_GLOBAL__sub_I_cc1_main.cpp
_GLOBAL__sub_I_X86CallFrameOptimization.cpp
__ZN4llvm2cl6Option9setArgStrENS_9StringRefE
__ZN4llvm2cl6Option11addArgumentEv
__ZNK4llvm17ManagedStaticBase21RegisterManagedStaticEPFPvvEPFvS1_E
__ZN4llvm14object_creatorIN12_GLOBAL__N_117CommandLineParserEEEPvv
__ZN4llvm9StringMapIPNS_2cl6OptionENS_15MallocAllocatorEE14emplace_secondIJS3_EEENSt3__14pairINS_17StringMapIteratorIS3_EEbEENS_9StringRefEDpOT_
__ZN4llvm13StringMapImpl15LookupBucketForENS_9StringRefE
__ZN4llvm13StringMapImpl11RehashTableEj
_GLOBAL__sub_I_X86ISelLowering.cpp
_GLOBAL__sub_I_X86InstrInfo.cpp
_GLOBAL__sub_I_X86RegisterInfo.cpp
_GLOBAL__sub_I_X86Subtarget.cpp
_GLOBAL__sub_I_X86TargetMachine.cpp
_GLOBAL__sub_I_X86OptimizeLEAs.cpp
_GLOBAL__sub_I_X86FixupBWInsts.cpp
_GLOBAL__sub_I_X86AsmInstrumentation.cpp
_GLOBAL__sub_I_X86MCTargetDesc.cpp
_GLOBAL__sub_I_X86MCAsmInfo.cpp
__ZN4llvm2cl6valuesIiEENS0_11ValuesClassIT_EEPKcS3_S6_z
__ZN4llvm2cl16AddLiteralOptionERNS0_6OptionEPKc
_GLOBAL__sub_I_ARMBaseInstrInfo.cpp
_GLOBAL__sub_I_ARMConstantIslandPass.cpp
_GLOBAL__sub_I_ARMExpandPseudoInsts.cpp
_GLOBAL__sub_I_ARMFrameLowering.cpp
_GLOBAL__sub_I_ARMISelDAGToDAG.cpp
_GLOBAL__sub_I_ARMISelLowering.cpp
_GLOBAL__sub_I_ARMLoadStoreOptimizer.cpp
_GLOBAL__sub_I_ARMSubtarget.cpp
_GLOBAL__sub_I_ARMTargetMachine.cpp
_GLOBAL__sub_I_MLxExpansionPass.cpp
_GLOBAL__sub_I_Thumb2InstrInfo.cpp
_GLOBAL__sub_I_Thumb2SizeReduction.cpp
_GLOBAL__sub_I_ARMMCTargetDesc.cpp
_GLOBAL__sub_I_AArch64A57FPLoadBalancing.cpp
_GLOBAL__sub_I_AArch64AddressTypePromotion.cpp
_GLOBAL__sub_I_AArch64AdvSIMDScalarPass.cpp
_GLOBAL__sub_I_AArch64BranchRelaxation.cpp
_GLOBAL__sub_I_AArch64CollectLOH.cpp
_GLOBAL__sub_I_AArch64ConditionalCompares.cpp
_GLOBAL__sub_I_AArch64FrameLowering.cpp
_GLOBAL__sub_I_AArch64ISelLowering.cpp
_GLOBAL__sub_I_AArch64LoadStoreOptimizer.cpp
_GLOBAL__sub_I_AArch64PromoteConstant.cpp
_GLOBAL__sub_I_AArch64Subtarget.cpp
_GLOBAL__sub_I_AArch64TargetMachine.cpp
_GLOBAL__sub_I_AArch64MCAsmInfo.cpp
_GLOBAL__sub_I_AArch64MCTargetDesc.cpp
_GLOBAL__sub_I_AliasAnalysis.cpp
_GLOBAL__sub_I_AliasAnalysisEvaluator.cpp
_GLOBAL__sub_I_BasicAliasAnalysis.cpp
_GLOBAL__sub_I_CallGraphSCCPass.cpp
_GLOBAL__sub_I_CostModel.cpp
_GLOBAL__sub_I_DependenceAnalysis.cpp
_GLOBAL__sub_I_GlobalsModRef.cpp
_GLOBAL__sub_I_InlineCost.cpp
_GLOBAL__sub_I_Loads.cpp
_GLOBAL__sub_I_LoopAccessAnalysis.cpp
_GLOBAL__sub_I_LoopInfo.cpp
_GLOBAL__sub_I_MemoryDependenceAnalysis.cpp
_GLOBAL__sub_I_ObjCARCAnalysisUtils.cpp
_GLOBAL__sub_I_RegionInfo.cpp
_GLOBAL__sub_I_RegionPrinter.cpp
_GLOBAL__sub_I_ScalarEvolution.cpp
_GLOBAL__sub_I_TargetLibraryInfo.cpp
_GLOBAL__sub_I_TypeBasedAliasAnalysis.cpp
_GLOBAL__sub_I_ScopedNoAliasAA.cpp
_GLOBAL__sub_I_ValueTracking.cpp
_GLOBAL__sub_I_AggressiveAntiDepBreaker.cpp
_GLOBAL__sub_I_BasicTargetTransformInfo.cpp
_GLOBAL__sub_I_BranchFolding.cpp
_GLOBAL__sub_I_CodeGenPrepare.cpp
_GLOBAL__sub_I_EarlyIfConversion.cpp
_GLOBAL__sub_I_EdgeBundles.cpp
_GLOBAL__sub_I_GlobalMerge.cpp
_GLOBAL__sub_I_IfConversion.cpp
_GLOBAL__sub_I_ImplicitNullChecks.cpp
_GLOBAL__sub_I_InlineSpiller.cpp
_GLOBAL__sub_I_InterleavedAccessPass.cpp
_GLOBAL__sub_I_LLVMTargetMachine.cpp
_GLOBAL__sub_I_LiveDebugVariables.cpp
_GLOBAL__sub_I_LiveIntervalAnalysis.cpp
_GLOBAL__sub_I_MachineBlockPlacement.cpp
_GLOBAL__sub_I_MachineFunction.cpp
_GLOBAL__sub_I_MachineInstr.cpp
_GLOBAL__sub_I_MachineLICM.cpp
_GLOBAL__sub_I_MachineScheduler.cpp
__ZN4llvm18RegisterPassParserINS_20MachineSchedRegistryEE9NotifyAddEPKcPFPvvES4_
_GLOBAL__sub_I_MachineSink.cpp
_GLOBAL__sub_I_PHIElimination.cpp
_GLOBAL__sub_I_Passes.cpp
_GLOBAL__sub_I_PeepholeOptimizer.cpp
_GLOBAL__sub_I_PostRASchedulerList.cpp
_GLOBAL__sub_I_PrologEpilogInserter.cpp
_GLOBAL__sub_I_RegAllocBase.cpp
_GLOBAL__sub_I_RegAllocFast.cpp
__ZN4llvm18RegisterPassParserINS_16RegisterRegAllocEE9NotifyAddEPKcPFPvvES4_
_GLOBAL__sub_I_RegAllocGreedy.cpp
_GLOBAL__sub_I_RegAllocPBQP.cpp
_GLOBAL__sub_I_RegisterClassInfo.cpp
_GLOBAL__sub_I_RegisterCoalescer.cpp
_GLOBAL__sub_I_ScheduleDAGInstrs.cpp
_GLOBAL__sub_I_ShrinkWrap.cpp
_GLOBAL__sub_I_StackColoring.cpp
_GLOBAL__sub_I_StackProtector.cpp
_GLOBAL__sub_I_StackSlotColoring.cpp
_GLOBAL__sub_I_StackMapLivenessAnalysis.cpp
_GLOBAL__sub_I_StackMaps.cpp
_GLOBAL__sub_I_TailDuplication.cpp
_GLOBAL__sub_I_TargetInstrInfo.cpp
_GLOBAL__sub_I_TargetLoweringBase.cpp
_GLOBAL__sub_I_TargetSchedule.cpp
_GLOBAL__sub_I_TwoAddressInstructionPass.cpp
_GLOBAL__sub_I_WinEHPrepare.cpp
_GLOBAL__sub_I_DiagnosticInfo.cpp
__ZN4llvm2cl5applyINS0_3optIN12_GLOBAL__N_114PassRemarksOptELb1ENS0_6parserINSt3__112basic_stringIcNS6_11char_traitsIcEENS6_9allocatorIcEEEEEEEENS0_10value_descEJNS0_4descENS0_12OptionHiddenENS0_13LocationClassIS4_EENS0_13ValueExpectedENS0_18NumOccurrencesFlagEEEEvPT_RKT0_DpRKT1_
_GLOBAL__sub_I_Dominators.cpp
_GLOBAL__sub_I_LegacyPassManager.cpp
__ZN4llvm14PassNameParserC1ERNS_2cl6OptionE
__ZN4llvm14object_creatorINS_12PassRegistryEEEPvv
_GLOBAL__sub_I_Verifier.cpp
_GLOBAL__sub_I_ForceFunctionAttrs.cpp
_GLOBAL__sub_I_FunctionImport.cpp
_GLOBAL__sub_I_Internalize.cpp
_GLOBAL__sub_I_LoopExtractor.cpp
_GLOBAL__sub_I_LowerBitSets.cpp
_GLOBAL__sub_I_MergeFunctions.cpp
_GLOBAL__sub_I_PassManagerBuilder.cpp
_GLOBAL__sub_I_SampleProfile.cpp
_GLOBAL__sub_I_InstructionCombining.cpp
_GLOBAL__sub_I_AddressSanitizer.cpp
_GLOBAL__sub_I_BoundsChecking.cpp
_GLOBAL__sub_I_DataFlowSanitizer.cpp
_GLOBAL__sub_I_GCOVProfiling.cpp
_GLOBAL__sub_I_MemorySanitizer.cpp
_GLOBAL__sub_I_IndirectCallPromotion.cpp
_GLOBAL__sub_I_InstrProfiling.cpp
_GLOBAL__sub_I_PGOInstrumentation.cpp
_GLOBAL__sub_I_SafeStack.cpp
_GLOBAL__sub_I_SanitizerCoverage.cpp
_GLOBAL__sub_I_ThreadSanitizer.cpp
_GLOBAL__sub_I_Float2Int.cpp
_GLOBAL__sub_I_GVN.cpp
_GLOBAL__sub_I_InductiveRangeCheckElimination.cpp
_GLOBAL__sub_I_IndVarSimplify.cpp
_GLOBAL__sub_I_JumpThreading.cpp
_GLOBAL__sub_I_LICM.cpp
_GLOBAL__sub_I_LoopDataPrefetch.cpp
_GLOBAL__sub_I_LoopDistribute.cpp
_GLOBAL__sub_I_LoopLoadElimination.cpp
_GLOBAL__sub_I_LoopRerollPass.cpp
_GLOBAL__sub_I_LoopRotation.cpp
_GLOBAL__sub_I_LoopStrengthReduce.cpp
_GLOBAL__sub_I_LoopUnrollPass.cpp
_GLOBAL__sub_I_LoopUnswitch.cpp
_GLOBAL__sub_I_LowerExpectIntrinsic.cpp
_GLOBAL__sub_I_SROA.cpp
_GLOBAL__sub_I_SeparateConstOffsetFromGEP.cpp
_GLOBAL__sub_I_SimplifyCFGPass.cpp
_GLOBAL__sub_I_SpeculativeExecution.cpp
_GLOBAL__sub_I_CommandLine.cpp
__ZN4llvm2cl14OptionCategory16registerCategoryEv
_GLOBAL__sub_I_GraphWriter.cpp
_GLOBAL__sub_I_RandomNumberGenerator.cpp
_GLOBAL__sub_I_Statistic.cpp
_GLOBAL__sub_I_Timer.cpp
__ZN4llvm14object_creatorINSt3__112basic_stringIcNS1_11char_traitsIcEENS1_9allocatorIcEEEEEEPvv
_GLOBAL__sub_I_AddDiscriminators.cpp
_GLOBAL__sub_I_CodeExtractor.cpp
_GLOBAL__sub_I_InlineFunction.cpp
_GLOBAL__sub_I_LoopVersioning.cpp
_GLOBAL__sub_I_SimplifyCFG.cpp
_GLOBAL__sub_I_SimplifyLibCalls.cpp
_GLOBAL__sub_I_SymbolRewriter.cpp
_GLOBAL__sub_I_BBVectorize.cpp
_GLOBAL__sub_I_LoopVectorize.cpp
_GLOBAL__sub_I_SLPVectorizer.cpp
_GLOBAL__sub_I_APINotesYAMLCompiler.cpp
_GLOBAL__sub_I_CodeGenPGO.cpp
_GLOBAL__sub_I_DwarfDebug.cpp
__ZN4llvm2cl5applyINS0_3optIN12_GLOBAL__N_112DefaultOnOffELb0ENS0_6parserIS4_EEEENS0_12OptionHiddenEJNS0_4descENS0_11ValuesClassIiEENS0_11initializerIS4_EEEEEvPT_RKT0_DpRKT1_
_GLOBAL__sub_I_DwarfUnit.cpp
_GLOBAL__sub_I_DAGCombiner.cpp
_GLOBAL__sub_I_LegalizeTypes.cpp
_GLOBAL__sub_I_ResourcePriorityQueue.cpp
_GLOBAL__sub_I_ScheduleDAGRRList.cpp
_GLOBAL__sub_I_ScheduleDAGSDNodes.cpp
_GLOBAL__sub_I_SelectionDAGBuilder.cpp
_GLOBAL__sub_I_SelectionDAGDumper.cpp
_GLOBAL__sub_I_SelectionDAGISel.cpp
__ZN4llvm18RegisterPassParserINS_17RegisterSchedulerEE9NotifyAddEPKcPFPvvES4_
_GLOBAL__sub_I_ScheduleDAGVLIW.cpp
_GLOBAL__sub_I_BitcodeReader.cpp
_main
__ZN4llvm3sys28PrintStackTraceOnErrorSignalEb
__ZN4llvm14object_creatorINSt3__16vectorINS1_4pairIPFvPvES4_EENS1_9allocatorIS7_EEEEEES4_v
__ZL16RegisterHandlersv
__ZN4llvm14object_creatorINS_3sys10SmartMutexILb1EEEEEPvv
__ZN4llvm12PassRegistry12registerPassERKNS_8PassInfoEb
__ZN4llvm12DenseMapBaseINS_8DenseMapIPKvPKNS_8PassInfoENS_12DenseMapInfoIS3_EENS_6detail12DenseMapPairIS3_S6_EEEES3_S6_S8_SB_E20InsertIntoBucketImplERKS3_PSB_
__ZN4llvm8DenseMapIPKvPKNS_8PassInfoENS_12DenseMapInfoIS2_EENS_6detail12DenseMapPairIS2_S5_EEE4growEj
__ZN4llvm14PassNameParser14passRegisteredEPKNS_8PassInfoE
__ZNK4llvm14PassNameParser17ignorablePassImplEPKNS_8PassInfoE
__ZNK4llvm2cl6parserIPKNS_8PassInfoEE13getNumOptionsEv
__ZNK4llvm2cl6parserIPKNS_8PassInfoEE9getOptionEj
__ZN4llvm3sys4path16reverse_iteratorppEv
__ZNK4llvm9StringRef16find_last_not_ofES0_m
__ZN4llvm2cl19ExpandResponseFilesERNS_11StringSaverEPFvNS_9StringRefES2_RNS_15SmallVectorImplIPKcEEbES8_b
__ZN4llvm9StringMapINSt3__110unique_ptrIN5clang18PCHContainerWriterENS1_14default_deleteIS4_EEEENS_15MallocAllocatorEE14emplace_secondIJEEENS1_4pairINS_17StringMapIteratorIS7_EEbEENS_9StringRefEDpOT_
__ZN4llvm9StringMapINSt3__110unique_ptrIN5clang18PCHContainerReaderENS1_14default_deleteIS4_EEEENS_15MallocAllocatorEE14emplace_secondIJEEENS1_4pairINS_17StringMapIteratorIS7_EEbEENS_9StringRefEDpOT_
__ZN5clang18CompilerInvocationC2Ev
__ZN5clang17DiagnosticsEngine5ResetEv
__ZNSt3__16vectorIN5clang17DiagnosticsEngine14DiagStatePointENS_9allocatorIS3_EEE21__push_back_slow_pathIS3_EEvOT_
__ZN5clang18CompilerInvocation14CreateFromArgsERS0_PKPKcS5_RNS_17DiagnosticsEngineE
__ZN5clang6driver20createDriverOptTableEv
__ZN4llvm9StringMapIcNS_15MallocAllocatorEE14emplace_secondIJcEEENSt3__14pairINS_17StringMapIteratorIcEEbEENS_9StringRefEDpOT_
__ZNK4llvm3opt8OptTable9ParseArgsENS_8ArrayRefIPKcEERjS6_jj
__ZNK4llvm3opt8OptTable11ParseOneArgERKNS0_7ArgListERjjj
__ZNK4llvm3opt12InputArgList12getArgStringEj
__ZNK4llvm9StringRef17find_first_not_ofES0_m
__ZNK4llvm3opt6Option18getUnaliasedOptionEv
__ZNK4llvm3opt12InputArgList21getNumInputArgStringsEv
__ZNK4llvm3opt6Option7matchesENS0_12OptSpecifierE
__ZN5clang18getLastArgIntValueERKN4llvm3opt7ArgListENS1_12OptSpecifierEiPNS_17DiagnosticsEngineE
__ZNK4llvm3opt7ArgList15getAllArgValuesENS0_12OptSpecifierE
__ZNK4llvm3opt7ArgList15AddAllArgValuesERNS_11SmallVectorIPKcLj16EEENS0_12OptSpecifierES7_S7_
__ZNSt3__16vectorINS_12basic_stringIcNS_11char_traitsIcEENS_9allocatorIcEEEENS4_IS6_EEE6insertINS_11__wrap_iterIPS6_EEEENS_9enable_ifIXaasr21__is_forward_iteratorIT_EE5valuesr16is_constructibleIS6_NS_15iterator_traitsISE_E9referenceEEE5valueESC_E4typeENSA_IPKS6_EESE_SE_
__ZN5clang19ParseDiagnosticArgsERNS_17DiagnosticOptionsERN4llvm3opt7ArgListEPNS_17DiagnosticsEngineEb
__ZL17addDiagnosticArgsRN4llvm3opt7ArgListENS0_12OptSpecifierES3_RNSt3__16vectorINS4_12basic_stringIcNS4_11char_traitsIcEENS4_9allocatorIcEEEENS9_ISB_EEEE
__ZN4llvm6Triple9normalizeENS_9StringRefE
__ZNK4llvm9StringRef5splitERNS_15SmallVectorImplIS0_EEcib
__ZL9parseArchN4llvm9StringRefE
__ZL11parseVendorN4llvm9StringRefE
__ZL7parseOSN4llvm9StringRefE
__ZL16parseEnvironmentN4llvm9StringRefE
__ZL11parseFormatN4llvm9StringRefE
__ZL16ParseCodeGenArgsRN5clang14CodeGenOptionsERN4llvm3opt7ArgListENS_9InputKindERNS_17DiagnosticsEngineERKNS_13TargetOptionsE
__ZN4llvm6TripleC2ERKNS_5TwineE
__ZNK4llvm5Twine3strEv
__ZN4llvm3ARM20getCanonicalArchNameENS_9StringRefE
__ZN4llvm3ARM9parseArchENS_9StringRefE
__ZL20getOptimizationLevelRN4llvm3opt7ArgListEN5clang9InputKindERNS3_17DiagnosticsEngineE
__ZL25getAllNoBuiltinFuncValuesRN4llvm3opt7ArgListERNSt3__16vectorINS3_12basic_stringIcNS3_11char_traitsIcEENS3_9allocatorIcEEEENS8_ISA_EEEE
__ZL19parseSanitizerKindsN4llvm9StringRefERKNSt3__16vectorINS1_12basic_stringIcNS1_11char_traitsIcEENS1_9allocatorIcEEEENS6_IS8_EEEERN5clang17DiagnosticsEngineERNSD_12SanitizerSetE
__ZL13ParseLangArgsRN5clang11LangOptionsERN4llvm3opt7ArgListENS_9InputKindERNS_17DiagnosticsEngineE
__ZN5clang12LangStandard22getLangStandardForKindENS0_4KindE
__ZNSt3__16__sortIRNS_6__lessINS_12basic_stringIcNS_11char_traitsIcEENS_9allocatorIcEEEES7_EEPS7_EEvT0_SB_T_
__ZN5clang11FileManagerC1ERKNS_17FileSystemOptionsEN4llvm18IntrusiveRefCntPtrINS_3vfs10FileSystemEEE
__ZN5clang11FileManagerD1Ev
__ZN4llvm20BumpPtrAllocatorImplINS_15MallocAllocatorELm4096ELm4096EED2Ev
__ZNSt3__16__treeINS_12__value_typeIN4llvm3sys2fs8UniqueIDEN5clang9FileEntryEEENS_19__map_value_compareIS5_S8_NS_4lessIS5_EELb1EEENS_9allocatorIS8_EEE7destroyEPNS_11__tree_nodeIS8_PvEE
__ZNSt3__16__treeINS_12__value_typeIN4llvm3sys2fs8UniqueIDEN5clang14DirectoryEntryEEENS_19__map_value_compareIS5_S8_NS_4lessIS5_EELb1EEENS_9allocatorIS8_EEE7destroyEPNS_11__tree_nodeIS8_PvEE
__ZN4llvm3opt12InputArgListD2Ev
__ZN5clang16CompilerInstance17createDiagnosticsEPNS_17DiagnosticOptionsEPNS_18DiagnosticConsumerEbPKNS_14CodeGenOptionsE
__ZN4llvm4errsEv
__ZN5clang21ProcessWarningOptionsERNS_17DiagnosticsEngineERKNS_17DiagnosticOptionsEb
__ZNK5clang13DiagnosticIDs21getDiagnosticsInGroupENS_4diag6FlavorEN4llvm9StringRefERNS3_15SmallVectorImplIjEE
__ZL21getDiagnosticsInGroupN5clang4diag6FlavorEPKN12_GLOBAL__N_113WarningOptionERN4llvm15SmallVectorImplIjEE
__ZL11GetDiagInfoj
__ZN5clang17DiagnosticsEngine11setSeverityEjNS_4diag8SeverityENS_14SourceLocationE
__ZN5clang17DiagnosticsEngine9DiagState15getOrAddMappingEj
__ZN4llvm8DenseMapIjN5clang17DiagnosticMappingENS_12DenseMapInfoIjEENS_6detail12DenseMapPairIjS2_EEE4growEj
__ZN4llvm12DenseMapBaseINS_8DenseMapIjN5clang17DiagnosticMappingENS_12DenseMapInfoIjEENS_6detail12DenseMapPairIjS3_EEEEjS3_S5_S8_E18moveFromOldBucketsEPS8_SB_
__ZN4llvm14object_creatorINS_3sys10SmartMutexILb0EEEEEPvv
__ZN5clang25ExecuteCompilerInvocationEPNS_16CompilerInstanceE
__ZN4llvm11LLVMContextC2Ev
__ZN4llvm15LLVMContextImplC1ERNS_11LLVMContextE
__ZN4llvm9StringMapIjNS_15MallocAllocatorEE14emplace_secondIJjEEENSt3__14pairINS_17StringMapIteratorIjEEbEENS_9StringRefEDpOT_
__ZN5clang16CompilerInstance13ExecuteActionERNS_14FrontendActionE
__ZN5clang10TargetInfo16CreateTargetInfoERNS_17DiagnosticsEngineERKNSt3__110shared_ptrINS_13TargetOptionsEEE
__ZL14AllocateTargetRKN4llvm6TripleE
__ZN5clang10TargetInfoC2ERKN4llvm6TripleE
__ZNK4llvm6Triple12getOSVersionERjS1_S1_
__ZNK4llvm6Triple9getOSNameEv
__ZN12_GLOBAL__N_117AArch64TargetInfo6setCPUERKNSt3__112basic_stringIcNS1_11char_traitsIcEENS1_9allocatorIcEEEE
__ZN12_GLOBAL__N_117AArch64TargetInfo6setABIERKNSt3__112basic_stringIcNS1_11char_traitsIcEENS1_9allocatorIcEEEE
__ZNK5clang10TargetInfo14initFeatureMapERN4llvm9StringMapIbNS1_15MallocAllocatorEEERNS_17DiagnosticsEngineENS1_9StringRefERKNSt3__16vectorINS9_12basic_stringIcNS9_11char_traitsIcEENS9_9allocatorIcEEEENSE_ISG_EEEE
__ZNK5clang10TargetInfo17setFeatureEnabledERN4llvm9StringMapIbNS1_15MallocAllocatorEEENS1_9StringRefEb
__ZN4llvm9StringMapIbNS_15MallocAllocatorEE14emplace_secondIJEEENSt3__14pairINS_17StringMapIteratorIbEEbEENS_9StringRefEDpOT_
__ZNSt3__16vectorINS_12basic_stringIcNS_11char_traitsIcEENS_9allocatorIcEEEENS4_IS6_EEE21__push_back_slow_pathIS6_EEvOT_
__ZN12_GLOBAL__N_117AArch64TargetInfo20handleTargetFeaturesERNSt3__16vectorINS1_12basic_stringIcNS1_11char_traitsIcEENS1_9allocatorIcEEEENS6_IS8_EEEERN5clang17DiagnosticsEngineE
__ZN12_GLOBAL__N_119AArch64leTargetInfo19setDataLayoutStringEv
__ZN5clang10TargetInfo6adjustERKNS_11LangOptionsE
__ZN5clang14FrontendAction15BeginSourceFileERNS_16CompilerInstanceERKNS_17FrontendInputFileE
__ZN5clang14FrontendAction15BeginInvocationERNS_16CompilerInstanceE
__ZN5clang31createVFSFromCompilerInvocationERKNS_18CompilerInvocationERNS_17DiagnosticsEngineE
__ZN5clang16CompilerInstance17createFileManagerEv
__ZN5clang16CompilerInstance19createSourceManagerERNS_11FileManagerE
__ZN5clang13SourceManager13clearIDTablesEv
__ZNK5clang14FrontendAction20isModelParsingActionEv
__ZN5clang14FrontendAction22getTranslationUnitKindEv
__ZN5clang16CompilerInstance18createPreprocessorENS_19TranslationUnitKindE
__ZN5clang12HeaderSearchC1EN4llvm18IntrusiveRefCntPtrINS_19HeaderSearchOptionsEEERNS_13SourceManagerERNS_17DiagnosticsEngineERKNS_11LangOptionsEPKNS_10TargetInfoE
__ZN5clang12PreprocessorC1EN4llvm18IntrusiveRefCntPtrINS_19PreprocessorOptionsEEERNS_17DiagnosticsEngineERNS_11LangOptionsERNS_13SourceManagerERNS_12HeaderSearchERNS_12ModuleLoaderEPNS_20IdentifierInfoLookupEbNS_19TranslationUnitKindE
__ZN5clang15IdentifierTable11AddKeywordsERKNS_11LangOptionsE
__ZL10AddKeywordN4llvm9StringRefEN5clang3tok9TokenKindEjRKNS1_11LangOptionsERNS1_15IdentifierTableE
__ZL16getKeywordStatusRKN5clang11LangOptionsEj
__ZN5clang15IdentifierTable3getEN4llvm9StringRefE
__ZN4llvm9StringMapIPN5clang14IdentifierInfoENS_20BumpPtrAllocatorImplINS_15MallocAllocatorELm4096ELm4096EEEE14emplace_secondIJS3_EEENSt3__14pairINS_17StringMapIteratorIS3_EEbEENS_9StringRefEDpOT_
__ZN4llvm20BumpPtrAllocatorImplINS_15MallocAllocatorELm4096ELm4096EE8AllocateEmm
__ZN4llvm8DenseMapIPN5clang14IdentifierInfoEjNS_12DenseMapInfoIS3_EENS_6detail12DenseMapPairIS3_jEEE4growEj
__ZN5clang12Preprocessor22RegisterBuiltinPragmasEv
__ZN4llvm9StringMapIPN5clang13PragmaHandlerENS_15MallocAllocatorEE14emplace_secondIJEEENSt3__14pairINS_17StringMapIteratorIS3_EEbEENS_9StringRefEDpOT_
__ZN5clang12Preprocessor16AddPragmaHandlerEN4llvm9StringRefEPNS_13PragmaHandlerE
__ZNK4llvm13StringMapImpl7FindKeyENS_9StringRefE
__ZN5clang15PragmaNamespace14getIfNamespaceEv
__ZN5clang12Preprocessor21RegisterBuiltinMacrosEv
__ZN5clang12Preprocessor20appendMacroDirectiveEPNS_14IdentifierInfoEPNS_14MacroDirectiveE
__ZN4llvm12DenseMapBaseINS_8DenseMapIPKN5clang14IdentifierInfoENS2_12Preprocessor10MacroStateENS_12DenseMapInfoIS5_EENS_6detail12DenseMapPairIS5_S7_EEEES5_S7_S9_SC_E16FindAndConstructEOS5_
__ZN4llvm8DenseMapIPKN5clang14IdentifierInfoENS1_12Preprocessor10MacroStateENS_12DenseMapInfoIS4_EENS_6detail12DenseMapPairIS4_S6_EEE4growEj
__ZN5clang12Preprocessor10MacroStateD1Ev
__ZNK5clang12Preprocessor10MacroState13getModuleInfoERS0_PKNS_14IdentifierInfoE
__ZNK12_GLOBAL__N_117AArch64TargetInfo17getTargetBuiltinsEv
__ZNK5clang16CompilerInstance21getPCHContainerReaderEv
__ZNK4llvm5Twine13printOneChildERNS_11raw_ostreamENS0_5ChildENS0_8NodeKindE
__ZN4llvm11raw_ostream5writeEPKcm
__ZN4llvm11raw_ostream11SetBufferedEv
__ZNK4llvm11raw_ostream21preferred_buffer_sizeEv
__ZL26InitializePredefinedMacrosRKN5clang10TargetInfoERKNS_11LangOptionsERKNS_15FrontendOptionsERNS_12MacroBuilderE
__ZN5clang12MacroBuilder11defineMacroERKN4llvm5TwineES4_
__ZN5clang29getClangFullRepositoryVersionEv
__ZN4llvm11raw_ostream5writeEh
__ZN4llvm18raw_string_ostream10write_implEPKcm
__ZL14DefineTypeSizeRKN4llvm5TwineEN5clang10TargetInfo7IntTypeERKS4_RNS3_12MacroBuilderE
__ZNK4llvm5APInt8toStringERNS_15SmallVectorImplIcEEjbb
__ZNK5clang10TargetInfo13hasInt128TypeEv
__ZL9DefineFmtRKN4llvm5TwineEN5clang10TargetInfo7IntTypeERKS4_RNS3_12MacroBuilderE
__ZL17DefineFloatMacrosRN5clang12MacroBuilderEN4llvm9StringRefEPKNS2_12fltSemanticsES3_
__ZN4llvm11raw_ostreamlsEl
__ZL23DefineExactWidthIntTypeN5clang10TargetInfo7IntTypeERKS0_RNS_12MacroBuilderE
__ZL27DefineExactWidthIntTypeSizeN5clang10TargetInfo7IntTypeERKS0_RNS_12MacroBuilderE
__ZL23DefineLeastWidthIntTypejbRKN5clang10TargetInfoERNS_12MacroBuilderE
__ZNK5clang10TargetInfo22getLeastIntTypeByWidthEjb
__ZL17DefineFastIntTypejbRKN5clang10TargetInfoERNS_12MacroBuilderE
__ZNK5clang10TargetInfo18getFloatEvalMethodEv
__ZNK12_GLOBAL__N_112OSTargetInfoINS_19AArch64leTargetInfoEE16getTargetDefinesERKN5clang11LangOptionsERNS3_12MacroBuilderE
__ZNK12_GLOBAL__N_117AArch64TargetInfo16getTargetDefinesERKN5clang11LangOptionsERNS1_12MacroBuilderE
__ZNK12_GLOBAL__N_123DarwinAArch64TargetInfo12getOSDefinesERKN5clang11LangOptionsERKN4llvm6TripleERNS1_12MacroBuilderE
__ZN12_GLOBAL__N_1L16getDarwinDefinesERN5clang12MacroBuilderERKNS0_11LangOptionsERKN4llvm6TripleERNS6_9StringRefERNS0_12VersionTupleE
__ZN12_GLOBAL__N_116InitHeaderSearch7AddPathERKN4llvm5TwineEN5clang8frontend15IncludeDirGroupEb
__ZNK4llvm5Twine11toStringRefERNS_15SmallVectorImplIcEE
__ZN4llvm3sys4path11is_absoluteERKNS_5TwineE
__ZN4llvm3sys4path14root_directoryENS_9StringRefE
__ZN12_GLOBAL__N_116InitHeaderSearch15AddUnmappedPathERKN4llvm5TwineEN5clang8frontend15IncludeDirGroupEb
__ZNK4llvm5Twine8toVectorERNS_15SmallVectorImplIcEE
__ZN4llvm19raw_svector_ostream10write_implEPKcm
__ZN5clang11FileManager12getDirectoryEN4llvm9StringRefEb
__ZN4llvm3sys4path9root_pathENS_9StringRefE
__ZN4llvm9StringMapIPN5clang14DirectoryEntryENS_20BumpPtrAllocatorImplINS_15MallocAllocatorELm4096ELm4096EEEE14emplace_secondIJS3_EEENSt3__14pairINS_17StringMapIteratorIS3_EEbEENS_9StringRefEDpOT_
__ZN5clang11FileManager12getStatValueEPKcRNS_8FileDataEbPNSt3__110unique_ptrINS_3vfs4FileENS5_14default_deleteIS8_EEEE
__ZN5clang19FileSystemStatCache3getEPKcRNS_8FileDataEbPNSt3__110unique_ptrINS_3vfs4FileENS5_14default_deleteIS8_EEEEPS0_RNS7_10FileSystemE
__ZN12_GLOBAL__N_114RealFileSystem6statusERKN4llvm5TwineE
__ZNK4llvm5Twine25toNullTerminatedStringRefERNS_15SmallVectorImplIcEE
__ZN4llvm3sys2fsL10fillStatusEiRK4statRNS1_11file_statusE
__ZN5clang11FileManager7getFileEN4llvm9StringRefEbb
__ZN4llvm9StringMapIPN5clang9FileEntryENS_20BumpPtrAllocatorImplINS_15MallocAllocatorELm4096ELm4096EEEE14emplace_secondIJS3_EEENSt3__14pairINS_17StringMapIteratorIS3_EEbEENS_9StringRefEDpOT_
__ZN12_GLOBAL__N_115parent_path_endEN4llvm9StringRefE
__ZN4llvm3sys4path6appendERNS_15SmallVectorImplIcEERKNS_5TwineES7_S7_S7_
__ZN4llvm3sys4path9root_nameENS_9StringRefE
__ZNK4llvm3sys2fs11file_status23getLastModificationTimeEv
__ZL20copyStatusToFileDataRKN5clang3vfs6StatusERNS_8FileDataE
__ZNSt3__127__tree_balance_after_insertIPNS_16__tree_node_baseIPvEEEEvT_S5_
__ZNSt3__16vectorINS_4pairIN5clang8frontend15IncludeDirGroupENS2_15DirectoryLookupEEENS_9allocatorIS6_EEE21__push_back_slow_pathIS6_EEvOT_
__ZL16RemoveDuplicatesRNSt3__16vectorIN5clang15DirectoryLookupENS_9allocatorIS2_EEEEjb
__ZN5clang21TextDiagnosticPrinter15BeginSourceFileERKNS_11LangOptionsEPKNS_12PreprocessorE
__ZN5clang14FrontendAction21BeginSourceFileActionERNS_16CompilerInstanceEN4llvm9StringRefE
__ZN5clang16CompilerInstance23InitializeSourceManagerERKNS_17FrontendInputFileE
__ZN12_GLOBAL__N_114RealFileSystem15openFileForReadERKN4llvm5TwineE
__ZN4llvm3sys2fs15openFileForReadERKNS_5TwineERi
__ZN12_GLOBAL__N_18RealFile6statusEv
__ZNSt3__13mapIN4llvm3sys2fs8UniqueIDEN5clang9FileEntryENS_4lessIS4_EENS_9allocatorINS_4pairIKS4_S6_EEEEEixERSB_
__ZN5clang13SourceManager23getOrCreateContentCacheEPKNS_9FileEntryEb
__ZN4llvm8DenseMapIPKN5clang9FileEntryEPNS1_6SrcMgr12ContentCacheENS_12DenseMapInfoIS4_EENS_6detail12DenseMapPairIS4_S7_EEE4growEj
__ZN5clang13SourceManager12createFileIDEPKNS_6SrcMgr12ContentCacheENS_14SourceLocationENS1_18CharacteristicKindEij
__ZNK5clang17ASTFrontendAction20usesPreprocessorOnlyEv
__ZN5clang16CompilerInstance16createASTContextEv
__ZN5clang10ASTContextC1ERNS_11LangOptionsERNS_13SourceManagerERNS_15IdentifierTableERNS_13SelectorTableERNS_7Builtin7ContextE
__ZN4llvm15SpecialCaseList6createERKNSt3__16vectorINS1_12basic_stringIcNS1_11char_traitsIcEENS1_9allocatorIcEEEENS6_IS8_EEEERS8_
__ZN5clang11LangOptionsC2ERKS0_
__ZN5clang19TranslationUnitDecl6CreateERNS_10ASTContextE
__ZN5clang10ASTContext16InitBuiltinTypesERKNS_10TargetInfoEPS2_
__ZNK5clang10ASTContext14getComplexTypeENS_8QualTypeE
__ZN4llvm14FoldingSetImpl19FindNodeOrInsertPosERKNS_16FoldingSetNodeIDERPv
__ZN4llvm7hashing6detail23hash_combine_range_implIKjEENSt3__19enable_ifIXsr16is_hashable_dataIT_EE5valueENS_9hash_codeEE4typeEPS6_SA_
__ZN4llvm7hashing6detail10hash_shortEPKcmy
__ZN4llvm14FoldingSetImpl10InsertNodeEPNS0_4NodeEPv
__ZNK5clang10ASTContext14getPointerTypeENS_8QualTypeE
__ZN5clang14FrontendAction24CreateWrappedASTConsumerERNS_16CompilerInstanceEN4llvm9StringRefE
__ZN5clang13CodeGenAction17CreateASTConsumerERNS_16CompilerInstanceEN4llvm9StringRefE
__ZL15GetOutputStreamRN5clang16CompilerInstanceEN4llvm9StringRefENS_13BackendActionE
__ZN5clang16CompilerInstance16createOutputFileEN4llvm9StringRefEbbS2_S2_bb
__ZN4llvm3sys2fs6accessERKNS_5TwineENS1_10AccessModeE
__ZL18createUniqueEntityRKN4llvm5TwineERiRNS_15SmallVectorImplIcEEbj8FSEntity
__ZN4llvm3sys2fs16openFileForWriteERKNS_5TwineERiNS1_9OpenFlagsEj
__ZN4llvm3sys18RemoveFileOnSignalENS_9StringRefEPNSt3__112basic_stringIcNS2_11char_traitsIcEENS2_9allocatorIcEEEE
__ZN4llvm14object_creatorINSt3__16vectorINS1_12basic_stringIcNS1_11char_traitsIcEENS1_9allocatorIcEEEENS6_IS8_EEEEEEPvv
__ZN4llvm5Timer4initENS_9StringRefE
__ZN4llvm10TimerGroupC2ENS_9StringRefE
__ZNSt3__112basic_stringIcNS_11char_traitsIcEENS_9allocatorIcEEE6assignIPcEENS_9enable_ifIXsr21__is_forward_iteratorIT_EE5valueERS5_E4typeES9_S9_
__ZN5clang14CodeGenOptionsC2ERKS0_
__ZN4llvm6ModuleC1ENS_9StringRefERNS_11LLVMContextE
__ZN4llvm10DataLayout5resetENS_9StringRefE
__ZN4llvm10DataLayout5clearEv
__ZN4llvm10DataLayout12setAlignmentENS_13AlignTypeEnumEjjj
__ZN4llvm15SmallVectorImplINS_16PointerAlignElemEE6insertEPS1_OS1_
__ZN5clang11ASTConsumer22GetASTMutationListenerEv
__ZN5clang15BackendConsumer10InitializeERNS_10ASTContextE
__ZN12_GLOBAL__N_117CodeGeneratorImpl10InitializeERN5clang10ASTContextE
__ZN5clang7CodeGen13CodeGenModuleC1ERNS_10ASTContextERKNS_19HeaderSearchOptionsERKNS_19PreprocessorOptionsERKNS_14CodeGenOptionsERN4llvm6ModuleERNS_17DiagnosticsEngineEPNS_18CoverageSourceInfoE
__ZN5clang7CodeGen13CodeGenModule20getTargetCodeGenInfoEv
__ZNK12_GLOBAL__N_117AArch64TargetInfo6getABIEv
__ZN5clang7CodeGen14CodeGenVTablesC1ERNS0_13CodeGenModuleE
__ZNK5clang10ASTContext11getTypeInfoEPKNS_4TypeE
__ZN4llvm8DenseMapIPKN5clang4TypeENS1_8TypeInfoENS_12DenseMapInfoIS4_EENS_6detail12DenseMapPairIS4_S5_EEE4growEj
__ZN4llvm11IntegerType3getERNS_11LLVMContextEj
__ZN4llvm11PointerType3getEPNS_4TypeEj
__ZN4llvm8DenseMapIPNS_4TypeEPNS_11PointerTypeENS_12DenseMapInfoIS2_EENS_6detail12DenseMapPairIS2_S4_EEE4growEj
__ZN5clang7CodeGen11CGDebugInfoC1ERNS0_13CodeGenModuleE
__ZNK5clang7CodeGen11CGDebugInfo11remapDIPathEN4llvm9StringRefE
__ZN5clang19getClangFullVersionEv
__ZN5clang7CodeGen11CGDebugInfo17getCurrentDirnameEv
__ZN4llvm9DIBuilder17createCompileUnitEjNS_9StringRefES1_S1_bS1_jS1_NS_13DICompileUnit17DebugEmissionKindEy
__ZN4llvm9StringMapINS_8MDStringENS_20BumpPtrAllocatorImplINS_15MallocAllocatorELm4096ELm4096EEEE14emplace_secondIJEEENSt3__14pairINS_17StringMapIteratorIS1_EEbEENS_9StringRefEDpOT_
__ZN4llvm6DIFile7getImplERNS_11LLVMContextEPNS_8MDStringES4_NS_8Metadata11StorageTypeEb
__ZNK4llvm12DenseMapBaseINS_8DenseMapIPNS_6DIFileENS_6detail13DenseSetEmptyENS_10MDNodeInfoIS2_EENS4_12DenseSetPairIS3_EEEES3_S5_S7_S9_E15LookupBucketForINS_13MDNodeKeyImplIS2_EEEEbRKT_RPKS9_
__ZN4llvm6MDNodeC2ERNS_11LLVMContextEjNS_8Metadata11StorageTypeENS_8ArrayRefIPS3_EES7_
__ZN4llvm16MetadataTracking5trackEPvRNS_8MetadataENS_12PointerUnionIPNS_15MetadataAsValueEPS2_EE
__ZN4llvm12DenseMapBaseINS_8DenseMapIPNS_6DIFileENS_6detail13DenseSetEmptyENS_10MDNodeInfoIS2_EENS4_12DenseSetPairIS3_EEEES3_S5_S7_S9_E20InsertIntoBucketImplERKS3_PS9_
__ZN4llvm8DenseMapIPNS_6DIFileENS_6detail13DenseSetEmptyENS_10MDNodeInfoIS1_EENS3_12DenseSetPairIS2_EEE4growEj
__ZN4llvm13DICompileUnit7getImplERNS_11LLVMContextEjPNS_8MetadataEPNS_8MDStringEbS6_jS6_jS4_S4_S4_S4_S4_yNS3_11StorageTypeEb
__ZNSt3__16vectorIPN4llvm6MDNodeENS_9allocatorIS3_EEE21__push_back_slow_pathIS3_EEvOT_
__ZN4llvm6Module24getOrInsertNamedMetadataENS_9StringRefE
__ZN5clang7Builtin7Context18initializeBuiltinsERNS_15IdentifierTableERKNS_11LangOptionsE
__ZN5clang7Builtin7Context18builtinIsSupportedERKNS0_4InfoERKNS_11LangOptionsE
__ZN5clang14FrontendAction7ExecuteEv
__ZN5clang13CodeGenAction13ExecuteActionEv
__ZN5clang17ASTFrontendAction13ExecuteActionEv
__ZNK5clang14FrontendAction24hasCodeCompletionSupportEv
__ZN5clang16CompilerInstance10createSemaENS_19TranslationUnitKindEPNS_20CodeCompleteConsumerE
__ZN5clang4SemaC1ERNS_12PreprocessorERNS_10ASTContextERNS_11ASTConsumerENS_19TranslationUnitKindEPNS_20CodeCompleteConsumerE
__ZN5clang4sema21AnalysisBasedWarningsC1ERNS_4SemaE
__ZNK5clang13DiagnosticIDs21getDiagnosticSeverityEjNS_14SourceLocationERKNS_17DiagnosticsEngineE
__ZNK5clang17DiagnosticsEngine23GetDiagStatePointForLocENS_14SourceLocationE
__ZN5clang8ParseASTERNS_4SemaEbb
__ZN5clang6ParserC1ERNS_12PreprocessorERNS_4SemaEb
__ZN5clang12Preprocessor17addCommentHandlerEPNS_14CommentHandlerE
__ZN5clang12Preprocessor19EnterMainSourceFileEv
__ZN5clang12Preprocessor15EnterSourceFileENS_6FileIDEPKNS_15DirectoryLookupENS_14SourceLocationE
__ZNK5clang13SourceManager9getBufferENS_6FileIDENS_14SourceLocationEPb
__ZNK5clang6SrcMgr12ContentCache9getBufferERNS_17DiagnosticsEngineERKNS_13SourceManagerENS_14SourceLocationEPb
__ZN5clang11FileManager16getBufferForFileEPKNS_9FileEntryEbb
__ZN12_GLOBAL__N_18RealFile9getBufferERKN4llvm5TwineExbb
__ZL15getOpenFileImpliRKN4llvm5TwineEyyxbb
__ZN12_GLOBAL__N_18RealFileD0Ev
__ZN5clang5LexerC2ENS_6FileIDEPKN4llvm12MemoryBufferERNS_12PreprocessorE
__ZN5clang12Preprocessor24EnterSourceFileWithLexerEPNS_5LexerEPKNS_15DirectoryLookupE
__ZN5clang12HeaderSearch11getFileInfoEPKNS_9FileEntryE
__ZNSt3__16vectorIN5clang14HeaderFileInfoENS_9allocatorIS2_EEE8__appendEm
__ZN4llvm12MemoryBuffer21getNewUninitMemBufferEmRKNS_5TwineE
__ZN5clang13SourceManager27createMemBufferContentCacheENSt3__110unique_ptrIN4llvm12MemoryBufferENS1_14default_deleteIS4_EEEE
__ZNSt3__16vectorIN5clang12Preprocessor16IncludeStackInfoENS_9allocatorIS3_EEE24__emplace_back_slow_pathIJRNS2_12CurLexerKindERPNS1_6ModuleENS_10unique_ptrINS1_5LexerENS_14default_deleteISE_EEEENSD_INS1_8PTHLexerENSF_ISI_EEEERPNS1_17PreprocessorLexerENSD_INS1_10TokenLexerENSF_ISO_EEEERPKNS1_15DirectoryLookupEEEEvDpOT_
__ZNSt3__114__split_bufferIN5clang12Preprocessor16IncludeStackInfoERNS_9allocatorIS3_EEED2Ev
__ZN5clang6Parser10InitializeEv
__ZN5clang6Parser10EnterScopeEj
__ZN5clang5Scope4InitEPS0_j
__ZN5clang5Scope8setFlagsEPS0_j
__ZN5clang4Sema10InitializeEv
__ZN5clang18IdentifierResolver5beginENS_15DeclarationNameE
__ZNK5clang10ASTContext13getInt128DeclEv
__ZN5clang7TypeLoc22getFullDataSizeForTypeENS_8QualTypeE
__ZN5clang7TypeLoc18getNextTypeLocImplES0_
__ZN5clang7TypeLoc14initializeImplERNS_10ASTContextES0_NS_14SourceLocationE
__ZN5clang4DeclC2ENS0_4KindEPNS_11DeclContextENS_14SourceLocationE
__ZN5clang4Sema17PushOnScopeChainsEPNS_9NamedDeclEPNS_5ScopeEb
__ZN5clang11DeclContext13addHiddenDeclEPNS_4DeclE
__ZN5clang11DeclContext17getPrimaryContextEv
__ZN5clang11DeclContext33makeDeclVisibleInContextWithFlagsEPNS_9NamedDeclEbb
__ZN5clang18IdentifierResolver7AddDeclEPNS_9NamedDeclE
__ZNK5clang10ASTContext14getUInt128DeclEv
__ZNK5clang10ASTContext23getCFConstantStringDeclEv
__ZNK5clang10ASTContext19buildImplicitRecordEN4llvm9StringRefENS_11TagTypeKindE
__ZN5clang10RecordDecl6CreateERKNS_10ASTContextENS_11TagTypeKindEPNS_11DeclContextENS_14SourceLocationES7_PNS_14IdentifierInfoEPS0_
__ZN5clang12RedeclarableINS_7TagDeclEE15setPreviousDeclEPS1_
__ZNK5clang10ASTContext19getTypeDeclTypeSlowEPKNS_8TypeDeclE
__ZNK5clang10ASTContext13getRecordTypeEPKNS_10RecordDeclE
__ZNK5clang11DeclContext18isDependentContextEv
__ZN5clang4Decl7addAttrEPNS_4AttrE
__ZN5clang4Decl12setAttrsImplERKN4llvm11SmallVectorIPNS_4AttrELj2EEERNS_10ASTContextE
__ZN5clang10ASTContext12getDeclAttrsEPKNS_4DeclE
__ZN4llvm8DenseMapIPKN5clang4DeclEPNS_11SmallVectorIPNS1_4AttrELj2EEENS_12DenseMapInfoIS4_EENS_6detail12DenseMapPairIS4_S9_EEE4growEj
__ZN5clang7TagDecl15startDefinitionEv
__ZNK5clang7TagDecl13getDefinitionEv
__ZL21getInterestingTagDeclPN5clang7TagDeclE
__ZN5clang10RecordDecl18completeDefinitionEv
__ZNK5clang4Decl22getASTMutationListenerEv
__ZNK5clang10ASTContext20getBuiltinVaListDeclEv
__ZNK12_GLOBAL__N_123DarwinAArch64TargetInfo20getBuiltinVaListKindEv
__ZN5clang12Preprocessor3LexERNS_5TokenE
__ZN5clang5Lexer16LexTokenInternalERNS_5TokenEb
__ZN5clang12Preprocessor15HandleDirectiveERNS_5TokenE
__ZN5clang5Lexer18LexNumericConstantERNS_5TokenEPKc
__ZL12GetLineValueRN5clang5TokenERjjRNS_12PreprocessorEb
__ZN5clang5Lexer11getSpellingERKNS_5TokenERPKcRKNS_13SourceManagerERKNS_11LangOptionsEPb
__ZN5clang5Lexer16LexStringLiteralERNS_5TokenEPKcNS_3tok9TokenKindE
__ZN5clang19StringLiteralParser4initEN4llvm8ArrayRefINS_5TokenEEE
__ZN5clang19StringLiteralParser18CopyStringFragmentERKNS_5TokenEPKcN4llvm9StringRefE
__ZN4llvm17ConvertUTF8toWideEjNS_9StringRefERPcRPKh
__ZN5clang13SourceManager22getLineTableFilenameIDEN4llvm9StringRefE
__ZN4llvm9StringMapIjNS_20BumpPtrAllocatorImplINS_15MallocAllocatorELm4096ELm4096EEEE14emplace_secondIJjEEENSt3__14pairINS_17StringMapIteratorIjEEbEENS_9StringRefEDpOT_
__ZNSt3__16vectorIPN4llvm14StringMapEntryIjEENS_9allocatorIS4_EEE21__push_back_slow_pathIS4_EEvOT_
__ZN5clang13SourceManager11AddLineNoteENS_14SourceLocationEjibbbb
__ZNK5clang13SourceManager25getDecomposedExpansionLocENS_14SourceLocationE
__ZNK5clang13SourceManager16isOffsetInFileIDENS_6FileIDEj
__ZNSt3__13mapIN5clang6FileIDENS_6vectorINS1_9LineEntryENS_9allocatorIS4_EEEENS_4lessIS2_EENS5_INS_4pairIKS2_S7_EEEEEixERSB_
__ZNSt3__16vectorIN5clang9LineEntryENS_9allocatorIS2_EEE21__push_back_slow_pathIS2_EEvOT_
__ZN5clang5Lexer13LexIdentifierERNS_5TokenEPKc
__ZNK5clang12Preprocessor20LookUpIdentifierInfoERNS_5TokenE
__ZNK5clang14IdentifierInfo14getPPKeywordIDEv
__ZN5clang12Preprocessor13ReadMacroNameERNS_5TokenENS_8MacroUseEPb
__ZN5clang12Preprocessor14CheckMacroNameERNS_5TokenENS_8MacroUseEPb
__ZNK5clang13SourceManager21getFileCharacteristicENS_14SourceLocationE
__ZNK5clang13SourceManager12isInMainFileENS_14SourceLocationE
__ZN5clang12Preprocessor16HandleIdentifierERNS_5TokenE
__ZN5clang12Preprocessor18getMacroDefinitionEPKNS_14IdentifierInfoE
__ZN5clang5Lexer15LexCharConstantERNS_5TokenEPKcNS_3tok9TokenKindE
__ZNK5clang13SourceManager14getPresumedLocENS_14SourceLocationEb
__ZNK12_GLOBAL__N_115MemoryBufferMem19getBufferIdentifierEv
__ZNK5clang13SourceManager13getLineNumberENS_6FileIDEjPb
__ZL18ComputeLineNumbersRN5clang17DiagnosticsEngineEPNS_6SrcMgr12ContentCacheERN4llvm20BumpPtrAllocatorImplINS5_15MallocAllocatorELm4096ELm4096EEERKNS_13SourceManagerERb
__ZNK5clang13SourceManager15getColumnNumberENS_6FileIDEjPb
__ZNK5clang13SourceManager9getBufferENS_6FileIDEPb
__ZN5clang5Lexer12LexEndOfFileERNS_5TokenEPKc
__ZN5clang12Preprocessor15HandleEndOfFileERNS_5TokenEb
__ZN5clang12Preprocessor21RemoveTopOfLexerStackEv
__ZN5clang5LexerD0Ev
__ZN5clang11LangOptionsD2Ev
__ZN5clang5Lexer15SkipLineCommentERNS_5TokenEPKcRb
__ZN12_GLOBAL__N_120ActionCommentHandler13HandleCommentERN5clang12PreprocessorENS1_11SourceRangeE
__ZN5clang4Sema12ActOnCommentENS_11SourceRangeE
__ZNK5clang13SourceManager14getFileIDLocalEj
__ZN5clang10RawCommentC2ERKNS_13SourceManagerENS_11SourceRangeEbb
__ZNK5clang10RawComment10getRawTextERKNS_13SourceManagerE
__ZNK5clang13SourceManager16getDecomposedLocENS_14SourceLocationE
__ZNK5clang13SourceManager13getBufferDataENS_6FileIDEPb
__ZN5clang5Lexer14SkipWhitespaceERNS_5TokenEPKcRb
__ZN5clang6Parser17ParseTopLevelDeclERNS_9OpaquePtrINS_12DeclGroupRefEEE
__ZN5clang6Parser24ParseExternalDeclarationERNS0_25ParsedAttributesWithRangeEPNS_15ParsingDeclSpecE
__ZN5clang6Parser36ParseDeclarationOrFunctionDefinitionERNS0_25ParsedAttributesWithRangeEPNS_15ParsingDeclSpecENS_15AccessSpecifierE
__ZN5clang6Parser30ParseDeclOrFunctionDefInternalERNS0_25ParsedAttributesWithRangeERNS_15ParsingDeclSpecENS_15AccessSpecifierE
__ZN5clang6Parser26ParseDeclarationSpecifiersERNS_8DeclSpecERKNS0_18ParsedTemplateInfoENS_15AccessSpecifierENS0_15DeclSpecContextEPNS0_18LateParsedAttrListE
__ZN5clang4Sema17getPrintingPolicyERKNS_10ASTContextERKNS_12PreprocessorE
__ZN5clang6Parser19ParseClassSpecifierENS_3tok9TokenKindENS_14SourceLocationERNS_8DeclSpecERKNS0_18ParsedTemplateInfoENS_15AccessSpecifierEbNS0_15DeclSpecContextERNS0_25ParsedAttributesWithRangeE
__ZNK5clang6Parser20isCXX11VirtSpecifierERKNS_5TokenE
__ZN5clang4Sema8ActOnTagEPNS_5ScopeEjNS0_10TagUseKindENS_14SourceLocationERNS_12CXXScopeSpecEPNS_14IdentifierInfoES4_PNS_13AttributeListENS_15AccessSpecifierES4_N4llvm15MutableArrayRefIPNS_21TemplateParameterListEEERbSH_S4_bNS_12ActionResultINS_9OpaquePtrINS_8QualTypeEEELb0EEEbPNS0_12SkipBodyInfoE
__ZN5clang12LookupResult9configureEv
__ZN5clang4Sema23DiagnoseClassNameShadowEPNS_11DeclContextENS_19DeclarationNameInfoE
__ZN5clang4Sema10LookupNameERNS_12LookupResultEPNS_5ScopeEb
__ZN5clang4Sema15ProcessAPINotesEPNS_4DeclE
__ZN5clang9api_notes15APINotesManager12findAPINotesENS_14SourceLocationE
__ZN5clang4Decl21setLexicalDeclContextEPNS_11DeclContextE
__ZN5clang4Sema28AddPushedVisibilityAttributeEPNS_4DeclE
__ZN5clang12LookupResultD2Ev
__ZN5clang8DeclSpec6FinishERNS_4SemaERKNS_14PrintingPolicyE
__ZN5clang4Sema26ParsedFreeStandingDeclSpecEPNS_5ScopeENS_15AccessSpecifierERNS_8DeclSpecEN4llvm15MutableArrayRefIPNS_21TemplateParameterListEEEb
__ZN5clang4Sema18handleTagNumberingEPKNS_7TagDeclEPNS_5ScopeE
__ZN5clang4Sema26DiagnoseFunctionSpecifiersERKNS_8DeclSpecE
__ZN5clang4Sema22ActOnDocumentableDeclsEN4llvm8ArrayRefIPNS_4DeclEEE
__ZN5clang4Sema21PopParsingDeclarationENS0_23DelayedDiagnosticsStateEPNS_4DeclE
__ZN5clang15BackendConsumer18HandleTopLevelDeclENS_12DeclGroupRefE
__ZN12_GLOBAL__N_117CodeGeneratorImpl18HandleTopLevelDeclEN5clang12DeclGroupRefE
__ZN5clang7CodeGen13CodeGenModule16EmitTopLevelDeclEPNS_4DeclE
__ZN12_GLOBAL__N_117CodeGeneratorImpl24HandlingTopLevelDeclRAIID1Ev
__ZN5clang6Parser16ParseDeclarationEjRNS_14SourceLocationERNS0_25ParsedAttributesWithRangeE
__ZN5clang6Parser22ParseSimpleDeclarationEjRNS_14SourceLocationERNS0_25ParsedAttributesWithRangeEbPNS0_12ForRangeInitE
__ZN5clang8DeclSpec19SetStorageClassSpecERNS_4SemaENS0_3SCSENS_14SourceLocationERPKcRjRKNS_14PrintingPolicyE
__ZNK5clang12LookupResult17getAcceptableDeclEPNS_9NamedDeclE
__ZN5clang12LookupResult11resolveKindEv
__ZN5clang4Sema28isAcceptableTagRedeclarationEPKNS_7TagDeclENS_11TagTypeKindEbNS_14SourceLocationEPKNS_14IdentifierInfoE
__ZN5clang6Parser14ParseDeclGroupERNS_15ParsingDeclSpecEjPNS_14SourceLocationEPNS0_12ForRangeInitE
__ZN5clang6Parser23ParseDeclaratorInternalERNS_10DeclaratorEMS0_FvS2_E
__ZN5clang6Parser25ParseTypeQualifierListOptERNS_8DeclSpecEjbb
__ZN5clang6Parser21ParseDirectDeclaratorERNS_10DeclaratorE
__ZN5clang6Parser33ParseAsmAttributesAfterDeclaratorERNS_10DeclaratorE
__ZN5clang6Parser44ParseDeclarationAfterDeclaratorAndAttributesERNS_10DeclaratorERKNS0_18ParsedTemplateInfoEPNS0_12ForRangeInitE
__ZN5clang4Sema16HandleDeclaratorEPNS_5ScopeERNS_10DeclaratorEN4llvm15MutableArrayRefIPNS_21TemplateParameterListEEE
__ZN5clang4Sema24GetNameFromUnqualifiedIdERKNS_13UnqualifiedIdE
__ZN5clang4Sema31DiagnoseUnexpandedParameterPackERKNS_19DeclarationNameInfoENS0_30UnexpandedParameterPackContextE
__ZN5clang4Sema20GetTypeForDeclaratorERNS_10DeclaratorEPNS_5ScopeE
__ZL28GetDeclSpecTypeForDeclaratorRN12_GLOBAL__N_119TypeProcessingStateERPN5clang14TypeSourceInfoE
__ZN5clang4Sema17DiagnoseUseOfDeclEPNS_9NamedDeclENS_14SourceLocationEPKNS_17ObjCInterfaceDeclEb
__ZNK5clang4Decl15getAvailabilityEPNSt3__112basic_stringIcNS1_11char_traitsIcEENS1_9allocatorIcEEEEN4llvm8OptionalINS_12VersionTupleEEE
__ZN5clang4Sema27getFunctionLevelDeclContextEv
__ZNK5clang10ASTContext17getElaboratedTypeENS_21ElaboratedTypeKeywordEPNS_19NestedNameSpecifierENS_8QualTypeE
__ZL16processTypeAttrsRN12_GLOBAL__N_119TypeProcessingStateERN5clang8QualTypeE16TypeAttrLocationPNS2_13AttributeListE
__ZL24GetFullTypeForDeclaratorRN12_GLOBAL__N_119TypeProcessingStateEN5clang8QualTypeEPNS2_14TypeSourceInfoE
__ZZL24GetFullTypeForDeclaratorRN12_GLOBAL__N_119TypeProcessingStateEN5clang8QualTypeEPNS2_14TypeSourceInfoEENK3$_6clENS_17SimplePointerKindENS2_14SourceLocationERPNS2_13AttributeListE
__ZN5clang4Sema16BuildPointerTypeENS_8QualTypeENS_14SourceLocationENS_15DeclarationNameE
__ZL22checkQualifiedFunctionRN5clang4SemaENS_8QualTypeENS_14SourceLocationEN12_GLOBAL__N_121QualifiedFunctionKindE
__ZN5clang14TypeLocVisitorIN12_GLOBAL__N_117TypeSpecLocFillerEvE5VisitENS_13UnqualTypeLocE
__ZN12_GLOBAL__N_117TypeSpecLocFiller22VisitElaboratedTypeLocEN5clang17ElaboratedTypeLocE
__ZN5clang4Sema31DiagnoseUnexpandedParameterPackENS_14SourceLocationEPNS_14TypeSourceInfoENS0_30UnexpandedParameterPackContextE
__ZN5clang4Sema28setTagNameForLinkagePurposesEPNS_7TagDeclEPNS_15TypedefNameDeclE
__ZN5clang4Sema21ProcessDeclAttributesEPNS_5ScopeEPNS_4DeclERKNS_10DeclaratorE
__ZN5clang4Sema35CheckTypedefForVariablyModifiedTypeEPNS_5ScopeEPNS_15TypedefNameDeclE
__ZN5clang4Sema20ActOnTypedefNameDeclEPNS_5ScopeEPNS_11DeclContextEPNS_15TypedefNameDeclERNS_12LookupResultERb
__ZN5clang4Sema20FilterLookupForScopeERNS_12LookupResultEPNS_11DeclContextEPNS_5ScopeEbb
__ZN5clang6Parser23isTokenEqualOrEqualTypoEv
__ZN5clang4Sema22ActOnUninitializedDeclEPNS_4DeclEb
__ZN5clang4Sema19FinalizeDeclarationEPNS_4DeclE
__ZN4llvm19SmallPtrSetImplBase9erase_impEPKv
__ZN5clang6Parser20ExpectAndConsumeSemiEj
__ZN5clang4Sema23FinalizeDeclaratorGroupEPNS_5ScopeERKNS_8DeclSpecEN4llvm8ArrayRefIPNS_4DeclEEE
__ZN5clang4Sema20BuildDeclaratorGroupEN4llvm15MutableArrayRefIPNS_4DeclEEEb
__ZN5clang17ParsingDeclaratorD2Ev
__ZN5clang10Declarator5clearEv
__ZNK4llvm10FoldingSetIN5clang11PointerTypeEE10NodeEqualsEPNS_14FoldingSetImpl4NodeERKNS_16FoldingSetNodeIDEjRS7_
__ZN5clang4Sema31AddAlignmentAttributesForRecordEPNS_10RecordDeclE
__ZN5clang4Sema26AddMsStructLayoutForRecordEPNS_10RecordDeclE
__ZN5clang6Parser22ParseStructDeclarationERNS_15ParsingDeclSpecEN4llvm12function_refIFvRNS_22ParsingFieldDeclaratorEEEE
__ZN5clang6Parser27ParseSpecifierQualifierListERNS_8DeclSpecENS_15AccessSpecifierENS0_15DeclSpecContextE
__ZN4llvm12function_refIFvRN5clang22ParsingFieldDeclaratorEEE11callback_fnIZNS1_6Parser20ParseStructUnionBodyENS1_14SourceLocationEjPNS1_4DeclEE3$_1EEvlS3_
__ZN5clang4Sema11HandleFieldEPNS_5ScopeEPNS_10RecordDeclENS_14SourceLocationERNS_10DeclaratorEPNS_4ExprENS_16InClassInitStyleENS_15AccessSpecifierE
__ZN5clang4Sema18BuildQualifiedTypeENS_8QualTypeENS_14SourceLocationEjPKNS_8DeclSpecE
__ZN5clang4Sema18BuildQualifiedTypeENS_8QualTypeENS_14SourceLocationENS_10QualifiersEPKNS_8DeclSpecE
__ZN5clang4Sema14CheckFieldDeclENS_15DeclarationNameENS_8QualTypeEPNS_14TypeSourceInfoEPNS_10RecordDeclENS_14SourceLocationEbPNS_4ExprENS_16InClassInitStyleES7_NS_15AccessSpecifierEPNS_9NamedDeclEPNS_10DeclaratorE
__ZNK5clang10ASTContext18getBaseElementTypeENS_8QualTypeE
__ZN5clang8QualType21getSplitDesugaredTypeES0_
__ZN5clang4Sema19RequireCompleteTypeENS_14SourceLocationENS_8QualTypeERNS0_13TypeDiagnoserE
__ZN5clang4Sema23RequireCompleteTypeImplENS_14SourceLocationENS_8QualTypeEPNS0_13TypeDiagnoserE
__ZNK5clang4Type16isIncompleteTypeEPPNS_9NamedDeclE
__ZN5clang4Sema14isAbstractTypeENS_14SourceLocationENS_8QualTypeE
__ZN5clang22ParsingFieldDeclaratorD2Ev
__ZN5clang6Parser22ParseBracketDeclaratorERNS_10DeclaratorE
__ZN5clang12Preprocessor9PeekAheadEj
__ZN5clang12Preprocessor19EnterCachingLexModeEv
__ZN5clang4Sema20ActOnNumericConstantERKNS_5TokenEPNS_5ScopeE
__ZN5clang4Sema20ActOnIntegerConstantENS_14SourceLocationEy
__ZN5clang14IntegerLiteral6CreateERKNS_10ASTContextERKN4llvm5APIntENS_8QualTypeENS_14SourceLocationE
__ZN5clang12Preprocessor10CachingLexERNS_5TokenE
__ZN5clang24BalancedDelimiterTracker12consumeCloseEv
__ZN5clang6Parser14ConsumeBracketEv
__ZN5clang6Parser25MaybeParseCXX11AttributesERNS_16ParsedAttributesEPNS_14SourceLocationE
__ZNK5clang4Type20getContainedAutoTypeEv
__ZN5clang4Sema14BuildArrayTypeENS_8QualTypeENS_9ArrayType17ArraySizeModifierEPNS_4ExprEjNS_11SourceRangeENS_15DeclarationNameE
__ZN5clang4Sema31VerifyIntegerConstantExpressionEPNS_4ExprEPN4llvm6APSIntERNS0_18VerifyICEDiagnoserEb
__ZNK5clang4Stmt11getLocStartEv
__ZL8CheckICEPKN5clang4ExprERKNS_10ASTContextE
__ZNK5clang4Expr16EvaluateAsRValueERNS0_10EvalResultERKNS_10ASTContextE
__ZL20FastEvaluateAsRValuePKN5clang4ExprERNS0_10EvalResultERKNS_10ASTContextERb
__ZNK5clang16APNumericStorage11getIntValueEv
__ZNK5clang4Type21isUnsignedIntegerTypeEv
__ZN5clang7APValue24DestroyDataAndMakeUninitEv
__ZN4llvm6APSInt13compareValuesERKS0_S2_
__ZNK4llvm5APInt4sextEj
__ZNK4llvm6APSIntgtERKS0_
__ZNK4llvm5APInt3sltERKS0_
__ZN5clang17ConstantArrayType20getNumAddressingBitsERNS_10ASTContextENS_8QualTypeERKN4llvm5APIntE
__ZNK5clang10ASTContext18getTypeInfoInCharsEPKNS_4TypeE
__ZNK5clang10ASTContext20getConstantArrayTypeENS_8QualTypeERKN4llvm5APIntENS_9ArrayType17ArraySizeModifierEj
__ZNK4llvm5APInt11zextOrTruncEj
__ZNK4llvm10FoldingSetIN5clang17ConstantArrayTypeEE10NodeEqualsEPNS_14FoldingSetImpl4NodeERKNS_16FoldingSetNodeIDEjRS7_
__ZN5clang6Parser12ConsumeBraceEv
__ZN5clang4Sema11ActOnFieldsEPNS_5ScopeENS_14SourceLocationEPNS_4DeclEN4llvm8ArrayRefIS5_EES3_S3_PNS_13AttributeListE
__ZN5clang6Parser9ExitScopeEv
__ZN5clang4Sema13ActOnPopScopeENS_14SourceLocationEPNS_5ScopeE
__ZN5clang5Scope19mergeNRVOIntoParentEv
__ZN5clang4Sema18DiagnoseUnusedDeclEPKNS_9NamedDeclE
__ZN5clang4Decl24getNextRedeclarationImplEv
__ZN5clang18IdentifierResolver10RemoveDeclEPNS_9NamedDeclE
__ZN5clang4Sema24ActOnTagFinishDefinitionEPNS_5ScopeEPNS_4DeclENS_11SourceRangeE
__ZN5clang4Sema15getContainingDCEPNS_11DeclContextE
__ZN5clang15BackendConsumer23HandleTagDeclDefinitionEPNS_7TagDeclE
__ZN12_GLOBAL__N_117CodeGeneratorImpl23HandleTagDeclDefinitionEPN5clang7TagDeclE
__ZN5clang7CodeGen12CodeGenTypes19UpdateCompletedTypeEPKNS_7TagDeclE
__ZN5clang7CodeGen11CGDebugInfo20completeRequiredTypeEPKNS_10RecordDeclE
__ZL22UnwrapTypeForDebugInfoN5clang8QualTypeERKNS_10ASTContextE
__ZN5clang6Parser37DiagnoseMissingSemiAfterTagDefinitionERNS_8DeclSpecENS_15AccessSpecifierENS0_15DeclSpecContextEPNS0_18LateParsedAttrListE
__ZL37getNullabilityCompletenessCheckFileIDRN5clang4SemaENS_14SourceLocationE
__ZL13LookupBuiltinRN5clang4SemaERNS_12LookupResultE
__ZN5clang4Sema23ActOnVariableDeclaratorEPNS_5ScopeERNS_10DeclaratorEPNS_11DeclContextEPNS_14TypeSourceInfoERNS_12LookupResultEN4llvm15MutableArrayRefIPNS_21TemplateParameterListEEERb
__ZN5clang4Sema11CheckShadowEPNS_5ScopeEPNS_7VarDeclERKNS_12LookupResultE
__ZN5clang4Sema24CheckVariableDeclarationEPNS_7VarDeclERNS_12LookupResultE
__ZN5clang4Sema28CheckVariableDeclarationTypeEPNS_7VarDeclE
__ZNK5clang7VarDecl15hasLocalStorageEv
__ZNK5clang10ASTContext21getExternCContextDeclEv
__ZNK5clang11DeclContext6lookupENS_15DeclarationNameE
__ZNK5clang11DeclContext19getParentASTContextEv
__ZN5clang4Sema17ProcessPragmaWeakEPNS_5ScopeEPNS_4DeclE
__ZL23isIncompleteDeclExternCIN5clang7VarDeclEEbRNS0_4SemaEPKT_
__ZNK5clang7VarDecl18getLanguageLinkageEv
__ZN5clang15LinkageComputer12getLVForDeclEPKNS_9NamedDeclE17LVComputationKind
__ZL26getLVForNamespaceScopeDeclPKN5clang9NamedDeclE17LVComputationKind
__ZNK5clang7VarDecl28isThisDeclarationADefinitionERNS_10ASTContextE
__ZL27checkAttributesAfterMergingRN5clang4SemaERNS_9NamedDeclE
__ZNK5clang4Decl7getAttrINS_13DLLImportAttrEEEPT_v
__ZNK5clang4Decl7getAttrINS_13DLLExportAttrEEEPT_v
__ZNK5clang4Decl7getAttrINS_8UsedAttrEEEPT_v
__ZNK5clang7VarDecl23getDescribedVarTemplateEv
__ZN5clang4Sema24MarkUnusedFileScopedDeclEPKNS_14DeclaratorDeclE
__ZNK5clang4Sema32ShouldWarnIfUnusedFileScopedDeclEPKNS_14DeclaratorDeclE
__ZN5clang7CodeGen13CodeGenModule10EmitGlobalENS_10GlobalDeclE
__ZNK5clang10ASTContext36isMSStaticDataMemberInlineDefinitionEPKNS_7VarDeclE
__ZN5clang9DeclGroup6CreateERNS_10ASTContextEPPNS_4DeclEj
__ZN4llvm19SmallPtrSetImplBase14insert_imp_bigEPKv
__ZN4llvm19SmallPtrSetImplBase4GrowEj
__ZN5clang6Parser18ParseEnumSpecifierENS_14SourceLocationERNS_8DeclSpecERKNS0_18ParsedTemplateInfoENS_15AccessSpecifierENS0_15DeclSpecContextE
__ZN5clang8EnumDecl6CreateERNS_10ASTContextEPNS_11DeclContextENS_14SourceLocationES5_PNS_14IdentifierInfoEPS0_bbb
__ZNK5clang10ASTContext11getEnumTypeEPKNS_8EnumDeclE
__ZN5clang4Sema17ActOnEnumConstantEPNS_5ScopeEPNS_4DeclES4_NS_14SourceLocationEPNS_14IdentifierInfoEPNS_13AttributeListES5_PNS_4ExprE
__ZN5clang4Sema16LookupSingleNameEPNS_5ScopeENS_15DeclarationNameENS_14SourceLocationENS0_14LookupNameKindENS0_17RedeclarationKindE
__ZN5clang4Sema17CheckEnumConstantEPNS_8EnumDeclEPNS_16EnumConstantDeclENS_14SourceLocationEPNS_14IdentifierInfoEPNS_4ExprE
__ZNK5clang10ASTContext11getIntWidthENS_8QualTypeE
__ZNK5clang4Type32isSignedIntegerOrEnumerationTypeEv
__ZN5clang16EnumConstantDecl6CreateERNS_10ASTContextEPNS_8EnumDeclENS_14SourceLocationEPNS_14IdentifierInfoENS_8QualTypeEPNS_4ExprERKN4llvm6APSIntE
__ZL27isRepresentableIntegerValueRN5clang10ASTContextERN4llvm6APSIntENS_8QualTypeE
__ZN5clang4Sema13ActOnEnumBodyENS_14SourceLocationENS_11SourceRangeEPNS_4DeclEN4llvm8ArrayRefIS4_EEPNS_5ScopeEPNS_13AttributeListE
__ZN5clang7CodeGen11CGDebugInfo12completeTypeEPKNS_8EnumDeclE
__ZN5clang6Parser23ParseConstantExpressionENS0_13TypeCastStateE
__ZN5clang4Sema31PushExpressionEvaluationContextENS0_27ExpressionEvaluationContextEPNS_4DeclEb
__ZN5clang6Parser19ParseCastExpressionEbbRbNS0_13TypeCastStateE
__ZN5clang6Parser28ParsePostfixExpressionSuffixENS_12ActionResultIPNS_4ExprELb1EEE
__ZN5clang6Parser26ParseRHSOfBinaryExpressionENS_12ActionResultIPNS_4ExprELb1EEENS_4prec5LevelE
__ZN5clang4Sema25CorrectDelayedTyposInExprEPNS_4ExprEPNS_7VarDeclEN4llvm12function_refIFNS_12ActionResultIS2_Lb1EEES2_EEE
__ZN5clang4Sema30UpdateMarkingForLValueToRValueEPNS_4ExprE
__ZN5clang4Sema30PopExpressionEvaluationContextEv
__ZN5clang4Sema21CleanupVarDeclMarkingEv
__ZN4llvm19SmallPtrSetImplBase4swapERS0_
__ZN5clang4Sema31DiagnoseUnexpandedParameterPackEPNS_4ExprENS0_30UnexpandedParameterPackContextE
__ZN5clang4Sema23DefaultLvalueConversionEPNS_4ExprE
__ZNK5clang12Preprocessor11getSpellingERKNS_5TokenERN4llvm15SmallVectorImplIcEEPb
__ZN5clang20NumericLiteralParserC1EN4llvm9StringRefENS_14SourceLocationERNS_12PreprocessorE
__ZN5clang20NumericLiteralParser14checkSeparatorENS_14SourceLocationEPKcNS0_18CheckSeparatorKindE
__ZN5clang20NumericLiteralParser15GetIntegerValueERN4llvm5APIntE
__ZNK4llvm5APInt5truncEj
__ZN5clang4Sema20hasVisibleDefinitionEPNS_9NamedDeclEPS2_b
__ZNK5clang4Type27getUnqualifiedDesugaredTypeEv
__ZN5clang15BackendConsumer31HandleTagDeclRequiredDefinitionEPKNS_7TagDeclE
__ZN12_GLOBAL__N_117CodeGeneratorImpl31HandleTagDeclRequiredDefinitionEPKN5clang7TagDeclE
__ZNK5clang4Decl15getMaxAlignmentEv
__ZN5clang4Sema11getTypeNameERKNS_14IdentifierInfoENS_14SourceLocationEPNS_5ScopeEPNS_12CXXScopeSpecEbbNS_9OpaquePtrINS_8QualTypeEEEbbPPS1_
__ZNK5clang10ASTContext14getTypedefTypeEPKNS_15TypedefNameDeclENS_8QualTypeE
__ZN5clang8QualType30getSingleStepDesugaredTypeImplES0_RKNS_10ASTContextE
__ZNK5clang4Type44getLocallyUnqualifiedSingleStepDesugaredTypeEv
__ZNK5clang18IdentifierResolver13isDeclInScopeEPNS_4DeclEPNS_11DeclContextEPNS_5ScopeEb
__ZNK5clang9NamedDecl19declarationReplacesEPS0_b
__ZN5clang7TagDecl16getCanonicalDeclEv
__ZN5clang4Sema19mergeDeclAttributesEPNS_9NamedDeclEPNS_4DeclENS0_21AvailabilityMergeKindE
__ZN5clang7TagDecl21getMostRecentDeclImplEv
__ZN5clang6Parser23ParseFunctionDeclaratorERNS_10DeclaratorERNS_16ParsedAttributesERNS_24BalancedDelimiterTrackerEbb
__ZN5clang6Parser31ParseParameterDeclarationClauseERNS_10DeclaratorERNS_16ParsedAttributesERN4llvm15SmallVectorImplINS_15DeclaratorChunk9ParamInfoEEERNS_14SourceLocationE
__ZN5clang4Sema20ActOnParamDeclaratorEPNS_5ScopeERNS_10DeclaratorE
__ZNK4llvm10FoldingSetIN5clang14ElaboratedTypeEE10NodeEqualsEPNS_14FoldingSetImpl4NodeERKNS_16FoldingSetNodeIDEjRS7_
__ZN5clang4Sema14CheckParameterEPNS_11DeclContextENS_14SourceLocationES3_PNS_14IdentifierInfoENS_8QualTypeEPNS_14TypeSourceInfoENS_12StorageClassE
__ZN5clang6Parser12ConsumeParenEv
__ZN5clang15DeclaratorChunk11getFunctionEbbNS_14SourceLocationEPNS0_9ParamInfoEjS1_S1_jbS1_S1_S1_S1_S1_NS_26ExceptionSpecificationTypeENS_11SourceRangeEPNS_9OpaquePtrINS_8QualTypeEEEPS5_jPNS_4ExprEPN4llvm11SmallVectorINS_5TokenELj4EEES1_S1_RNS_10DeclaratorENS_12ActionResultIS8_Lb0EEE
__ZNK5clang10TargetInfo21getDefaultCallingConvENS0_21CallingConvMethodTypeE
__ZN5clang4Sema27checkExceptionSpecificationEbNS_26ExceptionSpecificationTypeEN4llvm8ArrayRefINS_9OpaquePtrINS_8QualTypeEEEEENS3_INS_11SourceRangeEEEPNS_4ExprERNS2_15SmallVectorImplIS5_EERNS_17FunctionProtoType17ExceptionSpecInfoE
__ZNK5clang10ASTContext15getFunctionTypeENS_8QualTypeEN4llvm8ArrayRefIS1_EERKNS_17FunctionProtoType12ExtProtoInfoE
__ZN5clang17FunctionProtoType7ProfileERN4llvm16FoldingSetNodeIDENS_8QualTypeEPKS4_jRKNS0_12ExtProtoInfoERKNS_10ASTContextE
__ZNK5clang10ASTContext21getCanonicalParamTypeENS_8QualTypeE
__ZNK5clang10ASTContext27getVariableArrayDecayedTypeENS_8QualTypeE
__ZN5clang4Sema23ActOnFunctionDeclaratorEPNS_5ScopeERNS_10DeclaratorEPNS_11DeclContextEPNS_14TypeSourceInfoERNS_12LookupResultEN4llvm15MutableArrayRefIPNS_21TemplateParameterListEEERb
__ZN5clang12FunctionDecl6CreateERNS_10ASTContextEPNS_11DeclContextENS_14SourceLocationERKNS_19DeclarationNameInfoENS_8QualTypeEPNS_14TypeSourceInfoENS_12StorageClassEbbb
__ZNK5clang12FunctionDecl6isMainEv
__ZNK5clang12FunctionDecl18isMSVCRTEntryPointEv
__ZN5clang4Sema24CheckFunctionDeclarationEPNS_5ScopeEPNS_12FunctionDeclERNS_12LookupResultEb
__ZN5clang4Sema26AddKnownFunctionAttributesEPNS_12FunctionDeclE
__ZNK5clang12FunctionDecl12getBuiltinIDEv
__ZN5clang12FunctionDecl16getCanonicalDeclEv
__ZL23isIncompleteDeclExternCIN5clang12FunctionDeclEEbRNS0_4SemaEPKT_
__ZNK5clang12FunctionDecl18getLanguageLinkageEv
__ZN5clang4Sema27mightHaveNonExternalLinkageEPKNS_14DeclaratorDeclE
__ZN5clang15DeclaratorChunk16FunctionTypeInfo7destroyEv
__ZNK5clang12FunctionDecl47doesDeclarationForceExternallyVisibleDefinitionEv
__ZNK5clang12RedeclarableINS_12FunctionDeclEE15getPreviousDeclEv
__ZN5clang7CodeGen13CodeGenModule32AddDeferredUnusedCoverageMappingEPNS_4DeclE
__ZNK4llvm20ContextualFoldingSetIN5clang17FunctionProtoTypeERNS1_10ASTContextEE10NodeEqualsEPNS_14FoldingSetImpl4NodeERKNS_16FoldingSetNodeIDEjRS9_
__ZNK5clang17FunctionProtoType15getExtProtoInfoEv
__ZN5clang6Parser20ParseTypeofSpecifierERNS_8DeclSpecE
__ZN5clang6Parser34ParseExprAfterUnaryExprOrTypeTraitERKNS_5TokenERbRNS_9OpaquePtrINS_8QualTypeEEERNS_11SourceRangeE
__ZN5clang6Parser20ParseParenExpressionERNS0_16ParenParseOptionEbbRNS_9OpaquePtrINS_8QualTypeEEERNS_14SourceLocationE
__ZN5clang6Parser24isTypeSpecifierQualifierEv
__ZN5clang6Parser25ParseAssignmentExpressionENS0_13TypeCastStateE
__ZN5clang4Sema13ActOnCastExprEPNS_5ScopeENS_14SourceLocationERNS_10DeclaratorERNS_9OpaquePtrINS_8QualTypeEEES3_PNS_4ExprE
__ZN5clang4Sema24GetTypeForDeclaratorCastERNS_10DeclaratorENS_8QualTypeE
__ZN5clang4Sema25checkUnusedDeclAttributesERNS_10DeclaratorE
__ZL25checkUnusedDeclAttributesRN5clang4SemaEPKNS_13AttributeListE
__ZN5clang4Sema16CreateParsedTypeENS_8QualTypeEPNS_14TypeSourceInfoE
__ZN5clang4Sema23CheckTollFreeBridgeCastENS_8QualTypeEPNS_4ExprE
__ZL28classifyTypeForARCConversionN5clang8QualTypeE
__ZN5clang4Sema19BuildCStyleCastExprENS_14SourceLocationEPNS_14TypeSourceInfoES1_PNS_4ExprE
__ZNK5clang8QualType20getNonLValueExprTypeERKNS_10ASTContextE
__ZN5clang4Expr19getValueKindForTypeENS_8QualTypeE
__ZNK5clang7TypeLoc11getBeginLocEv
__ZN5clang7TypeLoc23getLocalSourceRangeImplES0_
__ZNK5clang4Stmt9getLocEndEv
__ZN5clang4Sema30DefaultFunctionArrayConversionEPNS_4ExprEb
__ZL21checkIntToPointerCastbN5clang14SourceLocationEPKNS_4ExprENS_8QualTypeERNS_4SemaE
__ZL21DiagnoseCastOfObjCSELRN5clang4SemaERKNS_12ActionResultIPNS_4ExprELb1EEENS_8QualTypeE
__ZNK5clang4Expr10getExprLocEv
__ZN5clang4Sema17PrepareScalarCastERNS_12ActionResultIPNS_4ExprELb1EEENS_8QualTypeE
__ZNK5clang4Type17getScalarTypeKindEv
__ZNK5clang4Expr21isNullPointerConstantERNS_10ASTContextENS0_34NullPointerConstantValueDependenceE
__ZNK5clang4Type14getAsUnionTypeEv
__ZN5clang14CStyleCastExpr6CreateERKNS_10ASTContextENS_8QualTypeENS_13ExprValueKindENS_8CastKindEPNS_4ExprEPKN4llvm11SmallVectorIPNS_16CXXBaseSpecifierELj4EEEPNS_14TypeSourceInfoENS_14SourceLocationESI_
__ZN5clang8CastExprC2ENS_4Stmt9StmtClassENS_8QualTypeENS_13ExprValueKindENS_8CastKindEPNS_4ExprEj
__ZN5clang4Sema10ActOnBinOpEPNS_5ScopeENS_14SourceLocationENS_3tok9TokenKindEPNS_4ExprES7_
__ZN5clang4Sema10BuildBinOpEPNS_5ScopeENS_14SourceLocationENS_18BinaryOperatorKindEPNS_4ExprES6_
__ZN5clang4Sema18CreateBuiltinBinOpENS_14SourceLocationENS_18BinaryOperatorKindEPNS_4ExprES4_
__ZN5clang4Sema24CheckSubtractionOperandsERNS_12ActionResultIPNS_4ExprELb1EEES5_NS_14SourceLocationEPNS_8QualTypeE
__ZL19checkArithmeticNullRN5clang4SemaERNS_12ActionResultIPNS_4ExprELb1EEES6_NS_14SourceLocationEb
__ZN5clang4Expr19IgnoreParenImpCastsEv
__ZN5clang4Sema26UsualArithmeticConversionsERNS_12ActionResultIPNS_4ExprELb1EEES5_b
__ZN5clang4Sema21UsualUnaryConversionsEPNS_4ExprE
__ZNK5clang4Type14getPointeeTypeEv
__ZN5clang10ASTContext10mergeTypesENS_8QualTypeES1_bbb
__ZL36checkArithmeticIncompletePointerTypeRN5clang4SemaENS_14SourceLocationEPNS_4ExprE
__ZNK5clang4Stmt14getSourceRangeEv
__ZN5clang4Sema16CheckArrayAccessEPKNS_4ExprE
__ZN5clang4Expr16IgnoreParenCastsEv
__ZN5clang14BinaryOperatorC2EPNS_4ExprES2_NS_18BinaryOperatorKindENS_8QualTypeENS_13ExprValueKindENS_14ExprObjectKindENS_14SourceLocationEb
__ZN5clang4Sema19BuildTypeofExprTypeEPNS_4ExprENS_14SourceLocationE
__ZN5clang4Sema20CheckPlaceholderExprEPNS_4ExprE
__ZNK5clang10ASTContext17getTypeOfExprTypeEPNS_4ExprE
__ZN5clang4Sema13ActOnTypeNameEPNS_5ScopeERNS_10DeclaratorE
__ZN5clang4Sema30CreateUnaryExprOrTypeTraitExprEPNS_14TypeSourceInfoENS_14SourceLocationENS_20UnaryExprOrTypeTraitENS_11SourceRangeE
__ZL30CheckExtensionTraitOperandTypeRN5clang4SemaENS_8QualTypeENS_14SourceLocationENS_11SourceRangeENS_20UnaryExprOrTypeTraitE
__ZL32CheckObjCTraitOperandConstraintsRN5clang4SemaENS_8QualTypeENS_14SourceLocationENS_11SourceRangeENS_20UnaryExprOrTypeTraitE
__ZN5clang6Parser20ParseParenDeclaratorERNS_10DeclaratorE
__ZN5clang6Parser28ParseMicrosoftTypeAttributesERNS_16ParsedAttributesE
__ZNK5clang10ASTContext12getParenTypeENS_8QualTypeE
__ZNK4llvm10FoldingSetIN5clang9ParenTypeEE10NodeEqualsEPNS_14FoldingSetImpl4NodeERKNS_16FoldingSetNodeIDEjRS7_
__ZN5clang6Parser27TryAnnotateTypeOrScopeTokenEbb
__ZN5clang6Parser41TryAnnotateTypeOrScopeTokenAfterScopeSpecEbbRNS_12CXXScopeSpecEb
__ZN5clang6Parser14ParseSimpleAsmEPNS_14SourceLocationE
__ZN5clang6Parser21ParseAsmStringLiteralEv
__ZN5clang6Parser28ParseStringLiteralExpressionEb
__ZN5clang4Sema18ActOnStringLiteralEN4llvm8ArrayRefINS_5TokenEEEPNS_5ScopeE
__ZN5clang13StringLiteral9setStringERKNS_10ASTContextEN4llvm9StringRefENS0_10StringKindEb
__ZNK5clang4Decl8getAttrsEv
__ZN5clang6Parser18ParseGNUAttributesERNS_16ParsedAttributesEPNS_14SourceLocationEPNS0_18LateParsedAttrListEPNS_10DeclaratorE
__ZN5clang6Parser16ExpectAndConsumeENS_3tok9TokenKindEjN4llvm9StringRefE
__ZN5clang6Parser15ConsumeAnyTokenEb
__ZN5clang6Parser21ParseGNUAttributeArgsEPNS_14IdentifierInfoENS_14SourceLocationERNS_16ParsedAttributesEPS3_S2_S3_NS_13AttributeList6SyntaxEPNS_10DeclaratorE
__ZN5clang13AttributeList7getKindEPKNS_14IdentifierInfoES3_NS0_6SyntaxE
__ZL17normalizeAttrNameN4llvm9StringRefES0_N5clang13AttributeList6SyntaxE
__ZL11getAttrKindN4llvm9StringRefEN5clang13AttributeList6SyntaxE
__ZN5clang6Parser24ParseAttributeArgsCommonEPNS_14IdentifierInfoENS_14SourceLocationERNS_16ParsedAttributesEPS3_S2_S3_NS_13AttributeList6SyntaxE
__ZN5clang4Sema19LazilyCreateBuiltinEPNS_14IdentifierInfoEjPNS_5ScopeEbNS_14SourceLocationE
__ZL27LookupPredefedObjCSuperTypeRN5clang4SemaEPNS_5ScopeEPNS_14IdentifierInfoE
__ZNK5clang10ASTContext14GetBuiltinTypeEjRNS0_19GetBuiltinTypeErrorEPj
__ZL17DecodeTypeFromStrRPKcRKN5clang10ASTContextERNS3_19GetBuiltinTypeErrorERbb
__ZN5clang4Sema24ProcessDeclAttributeListEPNS_5ScopeEPNS_4DeclEPKNS_13AttributeListEb
__ZL20ProcessDeclAttributeRN5clang4SemaEPNS_5ScopeEPNS_4DeclERKNS_13AttributeListEb
__ZN12_GLOBAL__N_1L25defaultTargetRequirementsERKN5clang10TargetInfoE
__ZN12_GLOBAL__N_1L23defaultDiagnoseLangOptsERN5clang4SemaERKNS0_13AttributeListE
__ZL21checkAttributeNumArgsRN5clang4SemaERKNS_13AttributeListEj
__ZN12_GLOBAL__N_1L23checkFormatAppertainsToERN5clang4SemaERKNS0_13AttributeListEPKNS0_4DeclE
__ZNK5clang4Decl15getFunctionTypeEb
__ZL19checkUInt32ArgumentRN5clang4SemaERKNS_13AttributeListEPKNS_4ExprERjj
__ZNK5clang4Expr13EvaluateAsIntERN4llvm6APSIntERKNS_10ASTContextENS0_15SideEffectsKindE
__ZNK5clang13AttributeList29getAttributeSpellingListIndexEv
__ZN5clang4Sema15mergeFormatAttrEPNS_4DeclENS_11SourceRangeEPNS_14IdentifierInfoEiij
__ZNK5clang4Decl7getAttrINS_21ReqdWorkGroupSizeAttrEEEPT_v
__ZNK5clang4Decl7getAttrINS_21WorkGroupSizeHintAttrEEEPT_v
__ZNK5clang4Decl7getAttrINS_15VecTypeHintAttrEEEPT_v
__ZN5clang4Sema17MergeFunctionDeclEPNS_12FunctionDeclERPNS_9NamedDeclEPNS_5ScopeEb
__ZNK5clang4Decl7getAttrINS_18PassObjectSizeAttrEEEPT_v
__ZN5clang4Sema28MergeCompatibleFunctionDeclsEPNS_12FunctionDeclES2_PNS_5ScopeEb
__ZN5clang12FunctionDecl21getMostRecentDeclImplEv
__ZNK5clang12FunctionDecl9isDefinedERPKS0_
__ZN5clang12RedeclarableINS_12FunctionDeclEE15redecl_iteratorppEv
__ZNK5clang4Decl7getAttrINS_12AsmLabelAttrEEEPT_v
__ZL24mergeParamDeclAttributesPN5clang11ParmVarDeclEPKS0_RNS_4SemaE
__ZNK5clang4Decl7getAttrINS_21CarriesDependencyAttrEEEPT_v
__ZN5clang12FunctionDecl22setPreviousDeclarationEPS0_
__ZL30checkDLLAttributeRedeclarationRN5clang4SemaEPNS_9NamedDeclES3_b
__ZN5clang16AttributeFactory11reclaimPoolEPNS_13AttributeListE
__ZNK5clang10ASTContext22getFunctionNoProtoTypeENS_8QualTypeERKNS_12FunctionType7ExtInfoE
__ZNK5clang4Type23isPromotableIntegerTypeEv
__ZN5clang7VarDecl24getNextRedeclarationImplEv
__ZN5clang6Parser27isStartOfFunctionDefinitionERKNS_17ParsingDeclaratorE
__ZN5clang6Parser23ParseFunctionDefinitionERNS_17ParsingDeclaratorERKNS0_18ParsedTemplateInfoEPNS0_18LateParsedAttrListE
__ZN5clang30PoisonSEHIdentifiersRAIIObjectC2ERNS_6ParserEb
__ZN5clang4Sema23ActOnStartOfFunctionDefEPNS_5ScopeEPNS_4DeclEPNS0_12SkipBodyInfoE
__ZN5clang4Sema28CheckForFunctionRedefinitionEPNS_12FunctionDeclEPKS1_PNS0_12SkipBodyInfoE
__ZN5clang41isGenericLambdaCallOperatorSpecializationEPKNS_13CXXMethodDeclE
__ZN5clang4Sema17PushFunctionScopeEv
__ZN5clang4Sema24CheckParmsForFunctionDefEPKPNS_11ParmVarDeclES4_b
__ZN5clang4Sema11CheckShadowEPNS_5ScopeEPNS_7VarDeclE
__ZN5clang4Sema20ResolveExceptionSpecENS_14SourceLocationEPKNS_17FunctionProtoTypeE
__ZN5clang6Parser23ParseLexedAttributeListERNS0_18LateParsedAttrListEPNS_4DeclEbb
__ZN5clang6Parser26ParseFunctionStatementBodyEPNS_4DeclERNS0_10ParseScopeE
__ZN5clang6Parser26ParseCompoundStatementBodyEb
__ZN5clang6Parser27ParseStatementOrDeclarationERN4llvm11SmallVectorIPNS_4StmtELj32EEENS0_21AllowedContsructsKindEPNS_14SourceLocationE
__ZN5clang6Parser42ParseStatementOrDeclarationAfterAttributesERN4llvm11SmallVectorIPNS_4StmtELj32EEENS0_21AllowedContsructsKindEPNS_14SourceLocationERNS0_25ParsedAttributesWithRangeE
__ZN5clang6Parser25ParseParenExprOrConditionERNS_12ActionResultIPNS_4ExprELb1EEERPNS_4DeclENS_14SourceLocationEb
__ZN5clang4Sema17ActOnIdExpressionEPNS_5ScopeERNS_12CXXScopeSpecENS_14SourceLocationERNS_13UnqualifiedIdEbbNSt3__110unique_ptrINS_27CorrectionCandidateCallbackENS8_14default_deleteISA_EEEEbPNS_5TokenE
__ZN5clang4Sema22DecomposeUnqualifiedIdERKNS_13UnqualifiedIdERNS_24TemplateArgumentListInfoERNS_19DeclarationNameInfoERPKS4_
__ZN5clang4Sema16LookupParsedNameERNS_12LookupResultEPNS_5ScopeEPNS_12CXXScopeSpecEbb
__ZN5clang4Sema26UseArgumentDependentLookupERKNS_12CXXScopeSpecERKNS_12LookupResultEb
__ZN5clang4Sema24BuildDeclarationNameExprERKNS_12CXXScopeSpecERNS_12LookupResultEbb
__ZN5clang4Sema24BuildDeclarationNameExprERKNS_12CXXScopeSpecERKNS_19DeclarationNameInfoEPNS_9NamedDeclES8_PKNS_24TemplateArgumentListInfoEb
__ZL15CheckDeclInExprRN5clang4SemaENS_14SourceLocationEPNS_9NamedDeclE
__ZNK5clang8QualType19getNonReferenceTypeEv
__ZN5clang4Sema18tryCaptureVariableEPNS_7VarDeclENS_14SourceLocationENS0_14TryCaptureKindES3_bRNS_8QualTypeES6_PKj
__ZN5clang4Sema16BuildDeclRefExprEPNS_9ValueDeclENS_8QualTypeENS_13ExprValueKindERKNS_19DeclarationNameInfoEPKNS_12CXXScopeSpecEPNS_9NamedDeclEPKNS_24TemplateArgumentListInfoE
__ZN5clang11DeclRefExprC2ERKNS_10ASTContextENS_22NestedNameSpecifierLocENS_14SourceLocationEPNS_9ValueDeclEbRKNS_19DeclarationNameInfoEPNS_9NamedDeclEPKNS_24TemplateArgumentListInfoENS_8QualTypeENS_13ExprValueKindE
__ZN5clang11DeclRefExpr17computeDependenceERKNS_10ASTContextE
__ZL18MarkExprReferencedRN5clang4SemaENS_14SourceLocationEPNS_4DeclEPNS_4ExprEb
__ZL23DoMarkVarDeclReferencedRN5clang4SemaENS_14SourceLocationEPNS_7VarDeclEPNS_4ExprE
__ZNK5clang7VarDecl29getTemplateSpecializationKindEv
__ZN5clang18MarkVarDeclODRUsedEPNS_7VarDeclENS_14SourceLocationERNS_4SemaEPKj
__ZN12_GLOBAL__N_125CastExpressionIdValidatorD0Ev
__ZN5clang6Parser18ParseUnqualifiedIdERNS_12CXXScopeSpecEbbbNS_9OpaquePtrINS_8QualTypeEEERNS_14SourceLocationERNS_13UnqualifiedIdE
__ZN5clang4Sema21ActOnMemberAccessExprEPNS_5ScopeEPNS_4ExprENS_14SourceLocationENS_3tok9TokenKindERNS_12CXXScopeSpecES5_RNS_13UnqualifiedIdEPNS_4DeclE
__ZN5clang4Sema36MaybeConvertParenListExprToParenExprEPNS_5ScopeEPNS_4ExprE
__ZN5clang4Sema24BuildMemberReferenceExprEPNS_4ExprENS_8QualTypeENS_14SourceLocationEbRNS_12CXXScopeSpecES4_PNS_9NamedDeclERKNS_19DeclarationNameInfoEPKNS_24TemplateArgumentListInfoEPKNS_5ScopeEPNS0_26ActOnMemberAccessExtraArgsE
__ZL16LookupMemberExprRN5clang4SemaERNS_12LookupResultERNS_12ActionResultIPNS_4ExprELb1EEERbNS_14SourceLocationERNS_12CXXScopeSpecEPNS_4DeclEb
__ZL30CheckForNullPointerDereferenceRN5clang4SemaEPNS_4ExprE
__ZN5clang16ImplicitCastExpr6CreateERKNS_10ASTContextENS_8QualTypeENS_8CastKindEPNS_4ExprEPKN4llvm11SmallVectorIPNS_16CXXBaseSpecifierELj4EEENS_13ExprValueKindE
__ZL24LookupMemberExprInRecordRN5clang4SemaERNS_12LookupResultEPNS_4ExprEPKNS_10RecordTypeENS_14SourceLocationEbRNS_12CXXScopeSpecEbRPNS_8TypoExprE
__ZN5clang4Sema19LookupQualifiedNameERNS_12LookupResultEPNS_11DeclContextEb
__ZL12LookupDirectRN5clang4SemaERNS_12LookupResultEPKNS_11DeclContextE
__ZN5clang11DeclContext11buildLookupEv
__ZN5clang11DeclContext18collectAllContextsERN4llvm15SmallVectorImplIPS0_EE
__ZN5clang11DeclContext15buildLookupImplEPS0_b
__ZN5clang11DeclContext28makeDeclVisibleInContextImplEPNS_9NamedDeclEb
__ZN4llvm13SmallDenseMapIN5clang15DeclarationNameENS1_15StoredDeclsListELj4ENS_12DenseMapInfoIS2_EENS_6detail12DenseMapPairIS2_S3_EEE4growEj
__ZN4llvm12DenseMapBaseINS_13SmallDenseMapIN5clang15DeclarationNameENS2_15StoredDeclsListELj4ENS_12DenseMapInfoIS3_EENS_6detail12DenseMapPairIS3_S4_EEEES3_S4_S6_S9_E18moveFromOldBucketsEPS9_SC_
__ZN5clang4Sema24BuildMemberReferenceExprEPNS_4ExprENS_8QualTypeENS_14SourceLocationEbRKNS_12CXXScopeSpecES4_PNS_9NamedDeclERNS_12LookupResultEPKNS_24TemplateArgumentListInfoEPKNS_5ScopeEbPNS0_26ActOnMemberAccessExtraArgsE
__ZL23BuildFieldReferenceExprRN5clang4SemaEPNS_4ExprEbNS_14SourceLocationERKNS_12CXXScopeSpecEPNS_9FieldDeclENS_14DeclAccessPairERKNS_19DeclarationNameInfoE
__ZN5clang4Sema29PerformObjectMemberConversionEPNS_4ExprEPNS_19NestedNameSpecifierEPNS_9NamedDeclES6_
__ZN5clang10MemberExpr6CreateERKNS_10ASTContextEPNS_4ExprEbNS_14SourceLocationENS_22NestedNameSpecifierLocES6_PNS_9ValueDeclENS_14DeclAccessPairENS_19DeclarationNameInfoEPKNS_24TemplateArgumentListInfoENS_8QualTypeENS_13ExprValueKindENS_14ExprObjectKindE
__ZN5clang4Sema20MarkMemberReferencedEPNS_10MemberExprE
__ZN5clang4Sema12BuildUnaryOpEPNS_5ScopeENS_14SourceLocationENS_17UnaryOperatorKindEPNS_4ExprE
__ZN5clang4Sema20CreateBuiltinUnaryOpENS_14SourceLocationENS_17UnaryOperatorKindEPNS_4ExprE
__ZL30CheckIncrementDecrementOperandRN5clang4SemaEPNS_4ExprERNS_13ExprValueKindERNS_14ExprObjectKindENS_14SourceLocationEbb
__ZL24CheckForModifiableLvaluePN5clang4ExprENS_14SourceLocationERNS_4SemaE
__ZNK5clang4Expr12ClassifyImplERNS_10ASTContextEPNS_14SourceLocationE
__ZL16ClassifyInternalRN5clang10ASTContextEPKNS_4ExprE
__ZN5clang13UnaryOperatorC2EPNS_4ExprENS_17UnaryOperatorKindENS_8QualTypeENS_13ExprValueKindENS_14ExprObjectKindENS_14SourceLocationE
__ZN5clang4Sema20CheckCompareOperandsERNS_12ActionResultIPNS_4ExprELb1EEES5_NS_14SourceLocationENS_18BinaryOperatorKindEb
__ZNK5clang4Type25hasFloatingRepresentationEv
__ZNK5clang10ASTContext20isPromotableBitFieldEPNS_4ExprE
__ZN5clang4Expr17getSourceBitFieldEv
__ZNK5clang10MemberExpr11getLocStartEv
__ZN5clang5Lexer18getCharAndSizeSlowEPKcRjPNS_5TokenE
__ZN5clang4Sema22ActOnCharacterConstantERKNS_5TokenEPNS_5ScopeE
__ZN5clang17CharLiteralParserC1EPKcS2_NS_14SourceLocationERNS_12PreprocessorENS_3tok9TokenKindE
__ZL17ProcessCharEscapePKcRS0_S0_RbN5clang13FullSourceLocEjPNS3_17DiagnosticsEngineERKNS3_11LangOptionsE
__ZNK5clang10ASTContext22getPromotedIntegerTypeENS_8QualTypeE
__ZNK5clang4Type19isSignedIntegerTypeEv
__ZN5clang4Sema17ImpCastExprToTypeEPNS_4ExprENS_8QualTypeENS_8CastKindENS_13ExprValueKindEPKN4llvm11SmallVectorIPNS_16CXXBaseSpecifierELj4EEENS0_21CheckedConversionKindE
__ZN5clang4Sema35diagnoseNullableToNonnullConversionENS_8QualTypeES1_NS_14SourceLocationE
__ZL16EvaluateAsRValueRN12_GLOBAL__N_18EvalInfoEPKN5clang4ExprERNS2_7APValueE
__ZL16CheckLiteralTypeRN12_GLOBAL__N_18EvalInfoEPKN5clang4ExprEPKNS_6LValueE
__ZNK5clang4Type13isLiteralTypeERKNS_10ASTContextE
__ZL8EvaluateRN5clang7APValueERN12_GLOBAL__N_18EvalInfoEPKNS_4ExprE
__ZN5clang15StmtVisitorBaseINS_14make_const_ptrEN12_GLOBAL__N_116IntExprEvaluatorEbE5VisitEPKNS_4StmtE
__ZN12_GLOBAL__N_116IntExprEvaluator19VisitBinaryOperatorEPKN5clang14BinaryOperatorE
__ZN12_GLOBAL__N_130DataRecursiveIntBinOpEvaluator13shouldEnqueueEPKN5clang14BinaryOperatorE
__ZN12_GLOBAL__N_130DataRecursiveIntBinOpEvaluator7enqueueEPKN5clang4ExprE
__ZN12_GLOBAL__N_116IntExprEvaluator13VisitCastExprEPKN5clang8CastExprE
__ZN5clang15StmtVisitorBaseINS_14make_const_ptrEN12_GLOBAL__N_119LValueExprEvaluatorEbE5VisitEPKNS_4StmtE
__ZN12_GLOBAL__N_119LValueExprEvaluator12VisitVarDeclEPKN5clang4ExprEPKNS1_7VarDeclE
__ZN12_GLOBAL__N_1L7getTypeEN4llvm12PointerUnionIPKN5clang9ValueDeclEPKNS2_4ExprEEE
__ZN4llvm15SmallVectorImplIN5clang7APValue15LValuePathEntryEEaSEOS4_
__ZL30handleLValueToRValueConversionRN12_GLOBAL__N_18EvalInfoEPKN5clang4ExprENS2_8QualTypeERKNS_6LValueERNS2_7APValueE
__ZL18findCompleteObjectRN12_GLOBAL__N_18EvalInfoEPKN5clang4ExprE11AccessKindsRKNS_6LValueENS2_8QualTypeE
__ZNSt3__16__treeINS_12__value_typeIPKvN5clang7APValueEEENS_19__map_value_compareIS3_S6_NS_4lessIS3_EELb1EEENS_9allocatorIS6_EEE7destroyEPNS_11__tree_nodeIS6_PvEE
__ZN5clang15StmtVisitorBaseINS_14make_const_ptrEN12_GLOBAL__N_120PointerExprEvaluatorEbE5VisitEPKNS_4StmtE
__ZN12_GLOBAL__N_120PointerExprEvaluator13VisitCastExprEPKN5clang8CastExprE
__ZL22HandleConversionToBoolRKN5clang7APValueERb
__ZN5clang4Sema21CheckBooleanConditionEPNS_4ExprENS_14SourceLocationE
__ZN5clang4Sema29DiagnoseAssignmentAsConditionEPNS_4ExprE
__ZN12_GLOBAL__N_123CheckImplicitConversionERN5clang4SemaEPNS0_4ExprENS0_8QualTypeENS0_14SourceLocationEPb
__ZN5clang4Sema19ActOnFinishFullExprEPNS_4ExprENS_14SourceLocationEbbb
__ZN5clang4Sema18CheckCompletedExprEPNS_4ExprENS_14SourceLocationEb
__ZN12_GLOBAL__N_1L26AnalyzeImplicitConversionsERN5clang4SemaEPNS0_4ExprENS0_14SourceLocationE
__ZN5clang4Stmt8childrenEv
__ZN12_GLOBAL__N_1L28DiagnoseOutOfRangeComparisonERN5clang4SemaEPNS0_14BinaryOperatorEPNS0_4ExprES6_N4llvm6APSIntEb
__ZN12_GLOBAL__N_18IntRange14forValueOfTypeERN5clang10ASTContextENS1_8QualTypeE
__ZNK5clang4Expr25isKnownToHaveBooleanValueEv
__ZNK5clang4Type34isUnsignedIntegerOrEnumerationTypeEv
__ZNK5clang10ASTContext12MakeIntValueEyNS_8QualTypeE
__ZL23CheckConstantExpressionRN12_GLOBAL__N_18EvalInfoEN5clang14SourceLocationENS2_8QualTypeERKNS2_7APValueE
__ZN12_GLOBAL__N_1L12GetExprRangeERN5clang10ASTContextEPNS0_4ExprEj
__ZN5clang15StmtVisitorBaseINS_8make_ptrEN12_GLOBAL__N_115SequenceCheckerEvE5VisitEPNS_4StmtE
__ZN5clang24EvaluatedExprVisitorBaseINS_8make_ptrEN12_GLOBAL__N_115SequenceCheckerEE9VisitStmtEPNS_4StmtE
__ZN12_GLOBAL__N_115SequenceChecker19VisitUnaryPreIncDecEPN5clang13UnaryOperatorE
__ZNK12_GLOBAL__N_115SequenceChecker9getObjectEPN5clang4ExprEb
__ZN12_GLOBAL__N_115SequenceChecker10checkUsageEPN5clang9NamedDeclERNS0_9UsageInfoEPNS1_4ExprENS0_9UsageKindEb
__ZN12_GLOBAL__N_115SequenceChecker11notePostUseEPN5clang9NamedDeclEPNS1_4ExprE
__ZN12_GLOBAL__N_115SequenceChecker22SequencedSubexpressionD1Ev
__ZN12_GLOBAL__N_116IntExprEvaluator18VisitUnaryOperatorEPKN5clang13UnaryOperatorE
__ZN12_GLOBAL__N_115SequenceChecker12SequenceTree14representativeEj
__ZN5clang4Sema19CheckForIntOverflowEPNS_4ExprE
__ZN12_GLOBAL__N_116IntExprEvaluator7SuccessERKN4llvm5APIntEPKN5clang4ExprE
__ZN5clang6Parser20ParseReturnStatementEv
__ZL31checkArithmeticOpPointerOperandRN5clang4SemaENS_14SourceLocationEPNS_4ExprE
__ZL23CheckIndirectionOperandRN5clang4SemaEPNS_4ExprERNS_13ExprValueKindENS_14SourceLocationE
__ZN5clang4Sema23CheckAssignmentOperandsEPNS_4ExprERNS_12ActionResultIS2_Lb1EEENS_14SourceLocationENS_8QualTypeE
__ZN5clang4Sema32CheckSingleAssignmentConstraintsENS_8QualTypeERNS_12ActionResultIPNS_4ExprELb1EEEbbb
__ZN5clang4Sema26CheckAssignmentConstraintsENS_8QualTypeERNS_12ActionResultIPNS_4ExprELb1EEERNS_8CastKindEb
__ZN5clang4Sema24DiagnoseAssignmentResultENS0_17AssignConvertTypeENS_14SourceLocationENS_8QualTypeES3_PNS_4ExprENS0_16AssignmentActionEPb
__ZL22DiagnoseSelfAssignmentRN5clang4SemaEPNS_4ExprES3_NS_14SourceLocationE
__ZN5clang4Sema16DiagnoseSelfMoveEPKNS_4ExprES3_NS_14SourceLocationE
__ZL28RecordModifiableNonNullParamRN5clang4SemaEPKNS_4ExprE
__ZN5clang4Sema15ActOnReturnStmtENS_14SourceLocationEPNS_4ExprEPNS_5ScopeE
__ZN5clang4Sema15BuildReturnStmtENS_14SourceLocationEPNS_4ExprE
__ZNK5clang12FunctionDecl10isNoReturnEv
__ZN5clang4Sema31PerformMoveOrCopyInitializationERKNS_17InitializedEntityEPKNS_7VarDeclENS_8QualTypeEPNS_4ExprEb
__ZN5clang4Sema25PerformCopyInitializationERKNS_17InitializedEntityENS_14SourceLocationENS_12ActionResultIPNS_4ExprELb1EEEbb
__ZN5clang22InitializationSequence14InitializeFromERNS_4SemaERKNS_17InitializedEntityERKNS_18InitializationKindEN4llvm15MutableArrayRefIPNS_4ExprEEEbb
__ZNK5clang10ASTContext14getAsArrayTypeENS_8QualTypeE
__ZL22MaybeProduceObjCObjectRN5clang4SemaERNS_22InitializationSequenceERKNS_17InitializedEntityE
__ZN5clang22InitializationSequence7PerformERNS_4SemaERKNS_17InitializedEntityERKNS_18InitializationKindEN4llvm15MutableArrayRefIPNS_4ExprEEEPNS_8QualTypeE
__ZN5clang22InitializationSequenceD2Ev
__ZN5clang20OverloadCandidateSetD1Ev
__ZN5clang20OverloadCandidateSet17destroyCandidatesEv
__ZN5clang4Sema18CheckReturnValExprEPNS_4ExprENS_8QualTypeENS_14SourceLocationEbPKN4llvm11SmallVectorIPNS_4AttrELj2EEEPKNS_12FunctionDeclE
__ZNK12_GLOBAL__N_16LValue8moveIntoERN5clang7APValueE
__ZN12_GLOBAL__N_16LValue7setFromERN5clang10ASTContextERKNS1_7APValueE
__ZN12_GLOBAL__N_1L15DiagnoseImpCastERN5clang4SemaEPNS0_4ExprENS0_8QualTypeES5_NS0_14SourceLocationEjb
__ZN5clang4Sema21EmitCurrentDiagnosticEj
__ZN5clang11LangOptionsaSERKS0_
__ZNSt3__16vectorINS_12basic_stringIcNS_11char_traitsIcEENS_9allocatorIcEEEENS4_IS6_EEE6assignIPS6_EENS_9enable_ifIXaasr21__is_forward_iteratorIT_EE5valuesr16is_constructibleIS6_NS_15iterator_traitsISC_E9referenceEEE5valueEvE4typeESC_SC_
__ZNSt3__16vectorIN4llvm6TripleENS_9allocatorIS2_EEE6assignIPS2_EENS_9enable_ifIXaasr21__is_forward_iteratorIT_EE5valuesr16is_constructibleIS2_NS_15iterator_traitsIS9_E9referenceEEE5valueEvE4typeES9_S9_
__ZNK5clang13DiagnosticIDs11ProcessDiagERNS_17DiagnosticsEngineE
__ZN12_GLOBAL__N_115SequenceChecker14VisitBinAssignEPN5clang14BinaryOperatorE
__ZN12_GLOBAL__N_115SequenceChecker20VisitUnaryPostIncDecEPN5clang13UnaryOperatorE
__ZN12_GLOBAL__N_117ExprEvaluatorBaseINS_20PointerExprEvaluatorEE20VisitUnaryPostIncDecEPKN5clang13UnaryOperatorE
__ZN5clang4Sema22MarkFunctionReferencedENS_14SourceLocationEPNS_12FunctionDeclEb
__ZNK5clang12FunctionDecl24isImplicitlyInstantiableEv
__ZNK5clang12FunctionDecl9isDefinedEv
__ZN5clang6Parser19ParseExpressionListERN4llvm15SmallVectorImplIPNS_4ExprEEERNS2_INS_14SourceLocationEEENSt3__18functionIFvvEEE
__ZN5clang4Sema13ActOnCallExprEPNS_5ScopeEPNS_4ExprENS_14SourceLocationEN4llvm15MutableArrayRefIS4_EES5_S4_b
__ZN5clang4Sema21BuildResolvedCallExprEPNS_4ExprEPNS_9NamedDeclENS_14SourceLocationEN4llvm8ArrayRefIS2_EES5_S2_b
__ZN5clang8CallExprC2ERKNS_10ASTContextENS_4Stmt9StmtClassEPNS_4ExprEN4llvm8ArrayRefIS7_EESA_NS_8QualTypeENS_13ExprValueKindENS_14SourceLocationE
__ZN5clang4Sema19CheckCallReturnTypeENS_8QualTypeENS_14SourceLocationEPNS_8CallExprEPNS_12FunctionDeclE
__ZN5clang4Sema23ConvertArgumentsForCallEPNS_8CallExprEPNS_4ExprEPNS_12FunctionDeclEPKNS_17FunctionProtoTypeEN4llvm8ArrayRefIS4_EENS_14SourceLocationEb
__ZNK5clang12FunctionDecl23getMinRequiredArgumentsEv
__ZN5clang4Sema22GatherArgumentsForCallENS_14SourceLocationEPNS_12FunctionDeclEPKNS_17FunctionProtoTypeEjN4llvm8ArrayRefIPNS_4ExprEEERNS7_15SmallVectorImplISA_EENS0_16VariadicCallTypeEbb
__ZN5clang17InitializedEntity19InitializeParameterERNS_10ASTContextEPNS_11ParmVarDeclENS_8QualTypeE
__ZN5clang4Sema21DiagnoseSentinelCallsEPNS_9NamedDeclENS_14SourceLocationEN4llvm8ArrayRefIPNS_4ExprEEE
__ZN5clang4Sema17CheckFunctionCallEPNS_12FunctionDeclEPNS_8CallExprEPKNS_17FunctionProtoTypeE
__ZN5clang4Sema9checkCallEPNS_9NamedDeclEPKNS_17FunctionProtoTypeEN4llvm8ArrayRefIPKNS_4ExprEEEbNS_14SourceLocationENS_11SourceRangeENS0_16VariadicCallTypeE
__ZNK5clang12FunctionDecl21getMemoryFunctionKindEv
__ZN5clang4Sema20MaybeBindToTemporaryEPNS_4ExprE
__ZN12_GLOBAL__N_1L29IsImplicitBoolFloatConversionERN5clang4SemaEPNS0_4ExprEb
__ZNK5clang8CallExpr24isUnevaluatedBuiltinCallERKNS_10ASTContextE
__ZN5clang4Sema11ActOnIfStmtENS_14SourceLocationENS0_11FullExprArgEPNS_4DeclEPNS_4StmtES1_S6_
__ZN5clang4Sema24DiagnoseUnusedExprResultEPKNS_4StmtE
__ZN5clang4Sema17ActOnCompoundStmtENS_14SourceLocationES1_N4llvm8ArrayRefIPNS_4StmtEEEb
__ZN5clang4Sema23ActOnFinishFunctionBodyEPNS_4DeclEPNS_4StmtEb
__ZN5clang4Sema24DiagnoseUnusedParametersEPKPNS_11ParmVarDeclES4_
__ZN5clang4Sema38DiagnoseSizeOfParametersAndReturnValueEPKPNS_11ParmVarDeclES4_NS_8QualTypeEPNS_9NamedDeclE
__ZNK5clang12FunctionDecl8isGlobalEv
__ZN5clang4Sema20PopFunctionScopeInfoEPKNS_4sema21AnalysisBasedWarnings6PolicyEPKNS_4DeclEPKNS_9BlockExprE
__ZN5clang4sema21AnalysisBasedWarnings13IssueWarningsENS1_6PolicyEPNS0_17FunctionScopeInfoEPKNS_4DeclEPKNS_9BlockExprE
__ZN5clang30PoisonSEHIdentifiersRAIIObjectD2Ev
__ZN5clang10ASTContext17DeclMustBeEmittedEPKNS_4DeclE
__ZNK5clang10ASTContext24GetGVALinkageForFunctionEPKNS_12FunctionDeclE
__ZN5clang7CodeGen13CodeGenModule14getMangledNameENS_10GlobalDeclE
__ZN4llvm8DenseMapIN5clang10GlobalDeclEjNS_12DenseMapInfoIS2_EENS_6detail12DenseMapPairIS2_jEEE4growEj
__ZN5clang13MangleContext20shouldMangleDeclNameEPKNS_9NamedDeclE
__ZL22getCallingConvManglingRKN5clang10ASTContextEPKNS_9NamedDeclE
__ZN4llvm9StringMapIN5clang10GlobalDeclENS_20BumpPtrAllocatorImplINS_15MallocAllocatorELm4096ELm4096EEEE14emplace_secondIJS2_EEENSt3__14pairINS_17StringMapIteratorIS2_EEbEENS_9StringRefEDpOT_
__ZNSt3__13mapIN4llvm9StringRefEN5clang10GlobalDeclENS_4lessIS2_EENS_9allocatorINS_4pairIKS2_S4_EEEEE16__find_equal_keyERPNS_16__tree_node_baseIPvEERS9_
__ZN12_GLOBAL__N_1L19defaultAppertainsToERN5clang4SemaERKNS0_13AttributeListEPKNS0_4DeclE
__ZL20handleVisibilityAttrRN5clang4SemaEPNS_4DeclERKNS_13AttributeListEb
__ZN5clang4Sema30checkStringLiteralArgumentAttrERKNS_13AttributeListEjRN4llvm9StringRefEPNS_14SourceLocationE
__ZN5clang14VisibilityAttr26ConvertStrToVisibilityTypeEN4llvm9StringRefERNS0_14VisibilityTypeE
__ZN5clang4Sema19mergeVisibilityAttrEPNS_4DeclENS_11SourceRangeENS_14VisibilityAttr14VisibilityTypeEj
__ZNK5clang10ASTContext22getIncompleteArrayTypeENS_8QualTypeENS_9ArrayType17ArraySizeModifierEj
__ZN5clang6Parser22isDeclarationSpecifierEb
__ZN5clang6Parser25isCXX11AttributeSpecifierEbb
__ZN5clang4Sema22shouldSkipAnonEnumBodyEPNS_5ScopeEPNS_14IdentifierInfoENS_14SourceLocationE
__ZL28DiagnoseBitwiseOpInBitwiseOpRN5clang4SemaENS_18BinaryOperatorKindENS_14SourceLocationEPNS_4ExprE
__ZN5clang4Sema20CheckBitwiseOperandsERNS_12ActionResultIPNS_4ExprELb1EEES5_NS_14SourceLocationEb
__ZN12_GLOBAL__N_116IntExprEvaluator19CheckReferencedDeclEPKN5clang4ExprEPKNS1_4DeclE
__ZN12_GLOBAL__N_116IntExprEvaluator7SuccessERKN4llvm6APSIntEPKN5clang4ExprERNS5_7APValueE
__ZL17handleIntIntBinOpRN12_GLOBAL__N_18EvalInfoEPKN5clang4ExprERKN4llvm6APSIntENS2_18BinaryOperatorKindES7_RS7_
__ZL23DiagnoseAdditionInShiftRN5clang4SemaENS_14SourceLocationEPNS_4ExprEN4llvm9StringRefE
__ZN5clang4Sema18CheckShiftOperandsERNS_12ActionResultIPNS_4ExprELb1EEES5_NS_14SourceLocationENS_18BinaryOperatorKindEb
__ZNK5clang4Type24hasIntegerRepresentationEv
__ZNK4llvm5APInt3ultERKS0_
__ZN5clang4Sema24CheckBuiltinFunctionCallEPNS_12FunctionDeclEjPNS_8CallExprE
__ZN4llvm14FoldingSetImpl13GrowHashTableEv
__ZNK4llvm20ContextualFoldingSetIN5clang17FunctionProtoTypeERNS1_10ASTContextEE15ComputeNodeHashEPNS_14FoldingSetImpl4NodeERNS_16FoldingSetNodeIDE
__ZN5clang4Sema27CheckMultiplyDivideOperandsERNS_12ActionResultIPNS_4ExprELb1EEES5_NS_14SourceLocationEbb
__ZNK5clang4Type23getAsComplexIntegerTypeEv
__ZL23handleIntegerConversionIXadL_ZN12_GLOBAL__N_114doIntegralCastERN5clang4SemaEPNS1_4ExprENS1_8QualTypeEEEXadL_ZNS0_14doIntegralCastES3_S5_S6_EEES6_S3_RNS1_12ActionResultIS5_Lb1EEES9_S6_S6_b
__ZNK5clang10ASTContext19getIntegerTypeOrderENS_8QualTypeES1_
__ZNK5clang10ASTContext14getIntegerRankEPKNS_4TypeE
__ZN5clang4Sema22CheckRemainderOperandsERNS_12ActionResultIPNS_4ExprELb1EEES5_NS_14SourceLocationEb
__ZL34DiagnoseBadDivideOrRemainderValuesRN5clang4SemaERNS_12ActionResultIPNS_4ExprELb1EEES6_NS_14SourceLocationEb
__ZL18HandleIntToIntCastRN12_GLOBAL__N_18EvalInfoEPKN5clang4ExprENS2_8QualTypeES6_RKN4llvm6APSIntE
__ZN5clang4Sema21CheckAdditionOperandsERNS_12ActionResultIPNS_4ExprELb1EEES5_NS_14SourceLocationENS_18BinaryOperatorKindEPNS_8QualTypeE
__ZN5clang4Sema18ActOnConditionalOpENS_14SourceLocationES1_PNS_4ExprES3_S3_
__ZN5clang19ConditionalOperatorC2EPNS_4ExprENS_14SourceLocationES2_S3_S2_NS_8QualTypeENS_13ExprValueKindENS_14ExprObjectKindE
__ZNK4llvm5APInt4uremERKS0_
__ZNK4llvm5APInt4udivERKS0_
__ZN5clang18IdentifierResolver13IdDeclInfoMapixENS_15DeclarationNameE
__ZN5clang4Sema23ActOnArraySubscriptExprEPNS_5ScopeEPNS_4ExprENS_14SourceLocationES4_S5_
__ZN5clang4Sema31CreateBuiltinArraySubscriptExprEPNS_4ExprENS_14SourceLocationES2_S3_
__ZN5clang18ArraySubscriptExprC2EPNS_4ExprES2_NS_8QualTypeENS_13ExprValueKindENS_14ExprObjectKindENS_14SourceLocationE
__ZNK5clang18ArraySubscriptExpr7getBaseEv
__ZN5clang4Sema16CheckArrayAccessEPKNS_4ExprES3_PKNS_18ArraySubscriptExprEbb
__ZL14getElementTypePKN5clang4ExprE
__ZN12_GLOBAL__N_1L13GetValueRangeERN5clang10ASTContextERNS0_7APValueENS0_8QualTypeEj
__ZN12_GLOBAL__N_1L13GetValueRangeERN5clang10ASTContextERN4llvm6APSIntEj
__ZN5clang4Sema27SemaBuiltinConstantArgRangeEPNS_8CallExprEiii
__ZN5clang4Sema22SemaBuiltinConstantArgEPNS_8CallExprEiRN4llvm6APSIntE
__ZL30CheckMemorySizeofForComparisonRN5clang4SemaEPKNS_4ExprEPNS_14IdentifierInfoENS_14SourceLocationES7_
__ZL21SemaBuiltinMemChkCallRN5clang4SemaEPNS_12FunctionDeclEPNS_8CallExprEjj
__ZL8EvalAddrPN5clang4ExprERN4llvm15SmallVectorImplIPNS_11DeclRefExprEEEPNS_4DeclE
__ZL24getContainedDynamicClassN5clang8QualTypeERb
__ZNK5clang4Type12getAsTagDeclEv
__ZN5clang4Sema14VerifyBitFieldENS_14SourceLocationEPNS_14IdentifierInfoENS_8QualTypeEbPNS_4ExprEPb
__ZNK5clang10ASTContext18getASTRecordLayoutEPKNS_10RecordDeclE
__ZN4llvm12DenseMapBaseINS_8DenseMapIPKN5clang10RecordDeclEPKNS2_15ASTRecordLayoutENS_12DenseMapInfoIS5_EENS_6detail12DenseMapPairIS5_S8_EEEES5_S8_SA_SD_E20InsertIntoBucketImplERKS5_PSD_
__ZN4llvm8DenseMapIPKN5clang10RecordDeclEPKNS1_15ASTRecordLayoutENS_12DenseMapInfoIS4_EENS_6detail12DenseMapPairIS4_S7_EEE4growEj
__ZN12_GLOBAL__N_126ItaniumRecordLayoutBuilder16InitializeLayoutEPKN5clang4DeclE
__ZNK5clang4Decl7getAttrINS_21MaxFieldAlignmentAttrEEEPT_v
__ZN12_GLOBAL__N_126ItaniumRecordLayoutBuilder12LayoutFieldsEPKN5clang10RecordDeclE
__ZNK5clang10RecordDecl21mayInsertExtraPaddingEb
__ZN12_GLOBAL__N_126ItaniumRecordLayoutBuilder11LayoutFieldEPKN5clang9FieldDeclEb
__ZN12_GLOBAL__N_126ItaniumRecordLayoutBuilder17CheckFieldPaddingEyyyjbPKN5clang9FieldDeclE
__ZN12_GLOBAL__N_126ItaniumRecordLayoutBuilder12FinishLayoutEPKN5clang9NamedDeclE
__ZN12_GLOBAL__N_126ItaniumRecordLayoutBuilderD1Ev
__ZN5clang4Sema24SetMemberAccessSpecifierEPNS_9NamedDeclES2_NS_15AccessSpecifierE
__ZL22handleFunctionTypeAttrRN12_GLOBAL__N_119TypeProcessingStateERN5clang13AttributeListERNS2_8QualTypeE
__ZN12_GLOBAL__N_121FunctionTypeUnwrapperC1ERN5clang4SemaENS1_8QualTypeE
__ZN5clang10ASTContext18adjustFunctionTypeEPKNS_12FunctionTypeENS1_7ExtInfoE
__ZN12_GLOBAL__N_121FunctionTypeUnwrapper4wrapERN5clang10ASTContextENS1_8QualTypeEj
__ZNK5clang4Attr5cloneERNS_10ASTContextE
__ZNK5clang10ASTContext14getDecayedTypeENS_8QualTypeE
__ZNK4llvm10FoldingSetIN5clang12AdjustedTypeEE10NodeEqualsEPNS_14FoldingSetImpl4NodeERKNS_16FoldingSetNodeIDEjRS7_
__ZN5clang4Sema21BuildBlockPointerTypeENS_8QualTypeENS_14SourceLocationENS_15DeclarationNameE
__ZNK5clang10ASTContext19getBlockPointerTypeENS_8QualTypeE
__ZL27checkAttributeAtMostNumArgsRN5clang4SemaERKNS_13AttributeListEj
__ZNK4llvm10FoldingSetIN5clang16BlockPointerTypeEE10NodeEqualsEPNS_14FoldingSetImpl4NodeERKNS_16FoldingSetNodeIDEjRS7_
__ZN5clang4Sema12MergeVarDeclEPNS_7VarDeclERNS_12LookupResultE
__ZN5clang7VarDecl21getMostRecentDeclImplEv
__ZL21mergeTypeWithPreviousRN5clang4SemaEPNS_7VarDeclES3_RNS_12LookupResultE
__ZN5clang4Sema17MergeVarDeclTypesEPNS_7VarDeclES2_b
__ZNK5clang7VarDecl10getTLSKindEv
__ZN5clang7VarDecl16getCanonicalDeclEv
__ZNK4llvm10FoldingSetIN5clang19IncompleteArrayTypeEE10NodeEqualsEPNS_14FoldingSetImpl4NodeERKNS_16FoldingSetNodeIDEjRS7_
__ZN5clang4Sema26CheckAlignasUnderalignmentEPNS_4DeclE
__ZN5clang12Preprocessor21HandlePragmaDirectiveENS_14SourceLocationENS_20PragmaIntroducerKindE
__ZN5clang15PragmaNamespace12HandlePragmaERNS_12PreprocessorENS_20PragmaIntroducerKindERNS_5TokenE
__ZN12_GLOBAL__N_117PragmaPackHandler12HandlePragmaERN5clang12PreprocessorENS1_20PragmaIntroducerKindERNS1_5TokenE
__ZN5clang12Preprocessor16EnterTokenStreamEPKNS_5TokenEjbb
__ZN5clang10TokenLexer4InitEPKNS_5TokenEjbb
__ZN5clang10TokenLexer3LexERNS_5TokenE
__ZN5clang6Parser16HandlePragmaPackEv
__ZN5clang12Preprocessor21HandleEndOfTokenLexerERNS_5TokenE
__ZN5clang4Sema15ActOnPragmaPackENS0_14PragmaPackKindEPNS_14IdentifierInfoEPNS_4ExprENS_14SourceLocationES6_S6_
__ZN12_GLOBAL__N_1L25checkRestrictAppertainsToERN5clang4SemaERKNS0_13AttributeListEPKNS0_4DeclE
__ZNK4llvm10FoldingSetIN5clang19FunctionNoProtoTypeEE10NodeEqualsEPNS_14FoldingSetImpl4NodeERKNS_16FoldingSetNodeIDEjRS7_
__ZNK4llvm10FoldingSetIN5clang11PointerTypeEE15ComputeNodeHashEPNS_14FoldingSetImpl4NodeERNS_16FoldingSetNodeIDE
__ZNK4llvm5APIntngEv
__ZNK4llvm5APIntmiERKS0_
__ZN5clang4Sema9isCFErrorEPNS_10RecordDeclE
__ZN5clang8DeclSpec15SetTypeSpecTypeENS_17TypeSpecifierTypeENS_14SourceLocationERPKcRjRKNS_14PrintingPolicyE
__ZNK4llvm5APIntplERKS0_
__ZNK4llvm10FoldingSetIN5clang14ElaboratedTypeEE15ComputeNodeHashEPNS_14FoldingSetImpl4NodeERNS_16FoldingSetNodeIDE
__ZNK4llvm10FoldingSetIN5clang17ConstantArrayTypeEE15ComputeNodeHashEPNS_14FoldingSetImpl4NodeERNS_16FoldingSetNodeIDE
__ZN5clang4Sema31ActOnFinishKNRParamDeclarationsEPNS_5ScopeERNS_10DeclaratorENS_14SourceLocationE
__ZN5clang4Sema32CheckCompleteVariableDeclarationEPNS_7VarDeclE
__ZN5clang6Parser15TryAnnotateNameEbNSt3__110unique_ptrINS_27CorrectionCandidateCallbackENS1_14default_deleteIS3_EEEE
__ZN5clang4Sema12ClassifyNameEPNS_5ScopeERNS_12CXXScopeSpecERPNS_14IdentifierInfoENS_14SourceLocationERKNS_5TokenEbNSt3__110unique_ptrINS_27CorrectionCandidateCallbackENSC_14default_deleteISE_EEEE
__ZN12_GLOBAL__N_118StatementFilterCCCD0Ev
__ZN5clang6Parser43isStartOfObjCClassMessageMissingOpenBracketEv
__ZN5clang4Sema20AddInitializerToDeclEPNS_4DeclEPNS_4ExprEbb
__ZNK5clang7VarDecl29isUsableInConstantExpressionsERNS_10ASTContextE
__ZN5clang4Sema21DiagnoseEmptyStmtBodyENS_14SourceLocationEPKNS_4StmtEj
__ZN5clang12RedeclarableINS_7VarDeclEE15redecl_iteratorppEv
__ZN5clang6Parser25ParseSimpleExpressionListERN4llvm15SmallVectorImplIPNS_4ExprEEERNS2_INS_14SourceLocationEEE
__ZN5clang13ParenListExprC1ERKNS_10ASTContextENS_14SourceLocationEN4llvm8ArrayRefIPNS_4ExprEEES4_
__ZN12_GLOBAL__N_1L30CheckTrivialUnsignedComparisonERN5clang4SemaEPNS0_14BinaryOperatorE
__ZN12_GLOBAL__N_16LValue14checkSubobjectERNS_8EvalInfoEPKN5clang4ExprENS_18CheckSubobjectKindE
__ZL15EvaluateIntegerPKN5clang4ExprERN4llvm6APSIntERN12_GLOBAL__N_18EvalInfoE
__ZN12_GLOBAL__N_116IntExprEvaluator13VisitCallExprEPKN5clang8CallExprE
__ZL22CheckConstexprFunctionRN12_GLOBAL__N_18EvalInfoEN5clang14SourceLocationEPKNS2_12FunctionDeclES6_
__ZN12_GLOBAL__N_18EvalInfo4DiagEN5clang14SourceLocationEjjb
__ZN5clang4Sema19BuildPredefinedExprENS_14SourceLocationENS_14PredefinedExpr9IdentTypeE
__ZN5clang14PredefinedExpr11ComputeNameENS0_9IdentTypeEPKNS_4DeclE
__ZNK5clang15DeclarationName11getAsStringEv
__ZN5clang15DeclarationName5printERN4llvm11raw_ostreamERKNS_14PrintingPolicyE
__ZN5clang4Sema20IsNoReturnConversionENS_8QualTypeES1_RS1_
__ZN5clang4Sema23IgnoredValueConversionsEPNS_4ExprE
__ZNK5clang13SourceManager20isMacroBodyExpansionENS_14SourceLocationE
__ZNK5clang4Expr22isUnusedResultAWarningERPKS0_RNS_14SourceLocationERNS_11SourceRangeES7_RNS_10ASTContextE
__ZN5clang8CallExpr13getCalleeDeclEv
__ZNK5clang12FunctionDecl19hasUnusedResultAttrEv
__ZN5clang4Sema28DiagnoseAlwaysNonNullPointerEPNS_4ExprENS1_23NullPointerConstantKindEbNS_11SourceRangeE
__ZNK5clang4Decl14isWeakImportedEv
__ZNK5clang4Decl17canBeWeakImportedERb
__ZN12_GLOBAL__N_115SequenceChecker11notePostModEPN5clang9NamedDeclEPNS1_4ExprENS0_9UsageKindE
__ZN12_GLOBAL__N_120PointerExprEvaluator19VisitBinaryOperatorEPKN5clang14BinaryOperatorE
__ZN5clang4Sema14CheckCastAlignEPNS_4ExprENS_8QualTypeENS_11SourceRangeE
__ZL18CastsAwayConstnessRN5clang4SemaENS_8QualTypeES2_bbPS2_S3_PNS_10QualifiersE
__ZN5clang10ASTContext23getUnqualifiedArrayTypeENS_8QualTypeERNS_10QualifiersE
__ZNK5clang12FunctionDecl7getBodyEv
__ZNK5clang12FunctionDecl14getSourceRangeEv
__ZN5clang19AnalysisDeclContextD2Ev
__ZN4llvm12DenseMapBaseINS_8DenseMapIPN5clang9NamedDeclEjNS_12DenseMapInfoIS4_EENS_6detail12DenseMapPairIS4_jEEEES4_jS6_S9_E20InsertIntoBucketImplERKS4_PS9_
__ZN4llvm8DenseMapIPN5clang9NamedDeclEjNS_12DenseMapInfoIS3_EENS_6detail12DenseMapPairIS3_jEEE4growEj
__ZNSt3__16vectorINS_4pairIN4llvm3MVTEPKNS2_19TargetRegisterClassEEENS_9allocatorIS7_EEE21__push_back_slow_pathIS7_EEvOT_
__ZN5clang4Sema12ActOnForStmtENS_14SourceLocationES1_PNS_4StmtENS0_11FullExprArgEPNS_4DeclES4_S1_S3_
__ZN5clang4Sema25CheckBreakContinueBindingEPNS_4ExprE
__ZN5clang15StmtVisitorBaseINS_8make_ptrEN12_GLOBAL__N_119BreakContinueFinderEvE5VisitEPNS_4StmtE
__ZN5clang24EvaluatedExprVisitorBaseINS_8make_ptrEN12_GLOBAL__N_119BreakContinueFinderEE9VisitStmtEPNS_4StmtE
__ZNK5clang11DeclContext14isStdNamespaceEv
_ConvertUTF8toUTF32
__ZL33checkAddressOfFunctionIsAvailableRN5clang4SemaEPKNS_12FunctionDeclEbbNS_14SourceLocationE
__ZN5clang4Sema22CheckPointerConversionEPNS_4ExprENS_8QualTypeERNS_8CastKindERN4llvm11SmallVectorIPNS_16CXXBaseSpecifierELj4EEEbb
__ZN5clang4Sema28FindCompositeObjCPointerTypeERNS_12ActionResultIPNS_4ExprELb1EEES5_NS_14SourceLocationE
__ZNK5clang4Type15isObjCClassTypeEv
__ZNK5clang4Type12isObjCIdTypeEv
__ZNK5clang10ASTContext14getObjCSelDeclEv
__ZL36checkConditionalPointerCompatibilityRN5clang4SemaERNS_12ActionResultIPNS_4ExprELb1EEES6_NS_14SourceLocationE
__ZN12_GLOBAL__N_124CheckConditionalOperatorERN5clang4SemaEPNS0_19ConditionalOperatorENS0_14SourceLocationENS0_8QualTypeE
__ZN12_GLOBAL__N_115SequenceChecker32VisitAbstractConditionalOperatorEPN5clang27AbstractConditionalOperatorE
__ZN5clang4Sema21CheckAddressOfOperandERNS_12ActionResultIPNS_4ExprELb1EEENS_14SourceLocationE
__ZN5clang4Sema19LookupOrCreateLabelEPNS_14IdentifierInfoENS_14SourceLocationES3_
__ZN5clang4Sema17ActOnContinueStmtENS_14SourceLocationEPNS_5ScopeE
__ZN5clang4Sema14ActOnLabelStmtENS_14SourceLocationEPNS_9LabelDeclES1_PNS_4StmtE
__ZN5clang19AnalysisDeclContext6getCFGEv
__ZNK5clang19AnalysisDeclContext7getBodyERb
__ZN5clang3CFG8buildCFGEPKNS_4DeclEPNS_4StmtEPNS_10ASTContextERKNS0_12BuildOptionsE
__ZN5clang3CFG11createBlockEv
__ZN12_GLOBAL__N_110CFGBuilder5VisitEPN5clang4StmtENS_13AddStmtChoiceE
__ZN12_GLOBAL__N_110CFGBuilder17VisitCompoundStmtEPN5clang12CompoundStmtE
__ZN12_GLOBAL__N_110CFGBuilder20addLocalScopeForStmtEPN5clang4StmtE
__ZN12_GLOBAL__N_110CFGBuilder23addLocalScopeForVarDeclEPN5clang7VarDeclEPNS_10LocalScopeE
__ZN12_GLOBAL__N_110CFGBuilder20addAutomaticObjDtorsENS_10LocalScope14const_iteratorES2_PN5clang4StmtE
__ZN5clang8CFGBlock12addSuccessorENS0_13AdjacentBlockERNS_17BumpVectorContextE
__ZN12_GLOBAL__N_110CFGBuilder9alwaysAddEPKN5clang4StmtE
__ZN12_GLOBAL__N_110CFGBuilder13VisitChildrenEPN5clang4StmtE
__ZN5clang18getFunctionExtInfoERKNS_4TypeE
__ZN12_GLOBAL__N_110CFGBuilder15tryEvaluateBoolEPN5clang4ExprE
__ZN12_GLOBAL__N_110CFGBuilder33evaluateAsBooleanConditionNoCacheEPN5clang4ExprE
__ZN4llvm8DenseMapIPKN5clang8DeclStmtES4_NS_12DenseMapInfoIS4_EENS_6detail12DenseMapPairIS4_S4_EEE4growEj
__ZN12_GLOBAL__N_110CFGBuilder16VisitDeclSubExprEPN5clang8DeclStmtE
__ZN12_GLOBAL__N_110CFGBuilder24VisitConditionalOperatorEPN5clang27AbstractConditionalOperatorENS_13AddStmtChoiceE
__ZN4llvm12DenseMapBaseINS_8DenseMapIPN5clang9LabelDeclEN12_GLOBAL__N_117BlockScopePosPairENS_12DenseMapInfoIS4_EENS_6detail12DenseMapPairIS4_S6_EEEES4_S6_S8_SB_E4growEj
__ZN12_GLOBAL__N_110CFGBuilder20VisitLogicalOperatorEPN5clang14BinaryOperatorEPNS1_4StmtEPNS1_8CFGBlockES7_
__ZN12_GLOBAL__N_1L26tryNormalizeBinaryOperatorEPKN5clang14BinaryOperatorE
__ZN4llvm12DenseMapBaseINS_8DenseMapIPN5clang4ExprEN12_GLOBAL__N_19TryResultENS_12DenseMapInfoIS4_EENS_6detail12DenseMapPairIS4_S6_EEEES4_S6_S8_SB_E4growEj
__ZL13scanFromBlockPKN5clang8CFGBlockERN4llvm9BitVectorEPNS_12PreprocessorEb
__ZN5clang7CodeGen13CodeGenModule20EmitGlobalDefinitionENS_10GlobalDeclEPN4llvm11GlobalValueE
__ZN5clang7CodeGen13CodeGenModule27getLLVMLinkageForDeclaratorEPKNS_14DeclaratorDeclENS_10GVALinkageEb
__ZN5clang7CodeGen13CodeGenModule28EmitGlobalFunctionDefinitionENS_10GlobalDeclEPN4llvm11GlobalValueE
__ZN5clang7CodeGen12CodeGenTypes26arrangeFunctionDeclarationEPKNS_12FunctionDeclE
__ZL23arrangeLLVMFunctionInfoRN5clang7CodeGen12CodeGenTypesEbRN4llvm15SmallVectorImplINS_7CanQualINS_4TypeEEEEENS5_INS_17FunctionProtoTypeEEEPKNS_12FunctionDeclE
__ZL20appendParameterTypesRKN5clang7CodeGen12CodeGenTypesERN4llvm15SmallVectorImplINS_7CanQualINS_4TypeEEEEERNS5_INS_17FunctionProtoType16ExtParameterInfoEEENS6_ISB_EEPKNS_12FunctionDeclE
__ZN5clang7CodeGen12CodeGenTypes23arrangeLLVMFunctionInfoENS_7CanQualINS_4TypeEEEbbN4llvm8ArrayRefIS4_EENS_12FunctionType7ExtInfoENS6_INS_17FunctionProtoType16ExtParameterInfoEEENS0_12RequiredArgsE
__ZNK12_GLOBAL__N_114AArch64ABIInfo11computeInfoERN5clang7CodeGen14CGFunctionInfoE
__ZNK12_GLOBAL__N_113ItaniumCXXABI18classifyReturnTypeERN5clang7CodeGen14CGFunctionInfoE
__ZNK5clang4Type27isMemberFunctionPointerTypeEv
__ZNK12_GLOBAL__N_114AArch64ABIInfo20classifyArgumentTypeEN5clang8QualTypeE
__ZNK12_GLOBAL__N_114AArch64ABIInfo19isIllegalVectorTypeEN5clang8QualTypeE
__ZN5clang7CodeGen12CodeGenTypes11ConvertTypeENS_8QualTypeE
__ZN4llvm8DenseMapIPKN5clang4TypeEPNS_4TypeENS_12DenseMapInfoIS4_EENS_6detail12DenseMapPairIS4_S6_EEE4growEj
__ZN5clang7CodeGen12CodeGenTypes21ConvertRecordDeclTypeEPKNS_10RecordDeclE
__ZN4llvm8DenseMapIPKN5clang4TypeEPNS_10StructTypeENS_12DenseMapInfoIS4_EENS_6detail12DenseMapPairIS4_S6_EEE4growEj
__ZN5clang7CodeGen12CodeGenTypes17addRecordTypeNameEPKNS_10RecordDeclEPN4llvm10StructTypeENS5_9StringRefE
__ZNK5clang9NamedDecl18printQualifiedNameERN4llvm11raw_ostreamE
__ZNK5clang9NamedDecl18printQualifiedNameERN4llvm11raw_ostreamERKNS_14PrintingPolicyE
__ZN5clanglsERN4llvm11raw_ostreamENS_15DeclarationNameE
__ZN4llvm10StructType7setNameENS_9StringRefE
__ZN4llvm9StringMapIPNS_10StructTypeENS_15MallocAllocatorEE14emplace_secondIJS2_EEENSt3__14pairINS_17StringMapIteratorIS2_EEbEENS_9StringRefEDpOT_
__ZN5clang7CodeGen12CodeGenTypes19ComputeRecordLayoutEPKNS_10RecordDeclEPN4llvm10StructTypeE
__ZN12_GLOBAL__N_116CGRecordLowering5lowerEb
__ZNK5clang9FieldDecl16getBitWidthValueERKNS_10ASTContextE
__ZNK5clang9FieldDecl13getFieldIndexEv
__ZN5clang9FieldDecl16getCanonicalDeclEv
__ZN12_GLOBAL__N_116CGRecordLowering14getStorageTypeEPKN5clang9FieldDeclE
__ZL15isSafeToConvertPKN5clang10RecordDeclERNS_7CodeGen12CodeGenTypesERN4llvm11SmallPtrSetIS2_Lj16EEE
__ZN4llvm12DenseMapBaseINS_8DenseMapIPKN5clang9FieldDeclEjNS_12DenseMapInfoIS5_EENS_6detail12DenseMapPairIS5_jEEEES5_jS7_SA_E20InsertIntoBucketImplERKS5_PSA_
__ZN4llvm8DenseMapIPKN5clang9FieldDeclEjNS_12DenseMapInfoIS4_EENS_6detail12DenseMapPairIS4_jEEE4growEj
__ZN5clang7CodeGen12CodeGenTypes19isZeroInitializableENS_8QualTypeE
__ZNK4llvm10DataLayout12getAlignmentEPNS_4TypeEb
__ZNK4llvm10DataLayout17getTypeSizeInBitsEPNS_4TypeE
__ZNK4llvm10DataLayout16getAlignmentInfoENS_13AlignTypeEnumEjbPNS_4TypeE
__ZN4llvm9ArrayType3getEPNS_4TypeEy
__ZNK4llvm12DenseMapBaseINS_8DenseMapINSt3__14pairIPNS_4TypeEyEEPNS_9ArrayTypeENS_12DenseMapInfoIS6_EENS_6detail12DenseMapPairIS6_S8_EEEES6_S8_SA_SD_E15LookupBucketForIS6_EEbRKT_RPKSD_
__ZN4llvm8DenseMapINSt3__14pairIPNS_4TypeEyEEPNS_9ArrayTypeENS_12DenseMapInfoIS5_EENS_6detail12DenseMapPairIS5_S7_EEE4growEj
__ZNSt3__113__stable_sortIRNS_6__lessIN12_GLOBAL__N_116CGRecordLowering10MemberInfoES4_EENS_11__wrap_iterIPS4_EEEEvT0_SA_T_NS_15iterator_traitsISA_E15difference_typeEPNSD_10value_typeEl
__ZN4llvm10StructType7setBodyENS_8ArrayRefIPNS_4TypeEEEb
__ZN4llvm8DenseMapIPKN5clang4TypeEPNS1_7CodeGen14CGRecordLayoutENS_12DenseMapInfoIS4_EENS_6detail12DenseMapPairIS4_S7_EEE4growEj
__ZN4llvm8DenseMapIjPNS_11IntegerTypeENS_12DenseMapInfoIjEENS_6detail12DenseMapPairIjS2_EEE4growEj
__ZN12_GLOBAL__N_116CGRecordLowering15setBitFieldInfoEPKN5clang9FieldDeclENS1_9CharUnitsEPN4llvm4TypeE
__ZN4llvm8DenseMapIPKN5clang9FieldDeclENS1_7CodeGen14CGBitFieldInfoENS_12DenseMapInfoIS4_EENS_6detail12DenseMapPairIS4_S6_EEE4growEj
__ZNK4llvm10DataLayout15getStructLayoutEPNS_10StructTypeE
__ZN4llvm8DenseMapIPNS_10StructTypeEPNS_12StructLayoutENS_12DenseMapInfoIS2_EENS_6detail12DenseMapPairIS2_S4_EEE4growEj
__ZNK4llvm4Type18isSizedDerivedTypeEPNS_15SmallPtrSetImplIPS0_EE
__ZN5clang7CodeGen12CodeGenTypes15GetFunctionTypeERKNS0_14CGFunctionInfoE
__ZN12_GLOBAL__N_121ClangToLLVMArgMappingC1ERKN5clang10ASTContextERKNS1_7CodeGen14CGFunctionInfoEb
__ZN4llvm12FunctionType3getEPNS_4TypeENS_8ArrayRefIS2_EEb
__ZN4llvm8DenseMapIPNS_12FunctionTypeENS_6detail13DenseSetEmptyENS_19FunctionTypeKeyInfoENS3_12DenseSetPairIS2_EEE4growEj
__ZN4llvm19FunctionTypeKeyInfo12getHashValueERKNS0_5KeyTyE
__ZN4llvm7hashing6detail23hash_combine_range_implIKPNS_4TypeEEENSt3__19enable_ifIXsr16is_hashable_dataIT_EE5valueENS_9hash_codeEE4typeEPS8_SC_
__ZN5clang7CodeGen13CodeGenModule23GetOrCreateLLVMFunctionEN4llvm9StringRefEPNS2_4TypeENS_10GlobalDeclEbbbNS2_12AttributeSetEb
__ZN4llvm8FunctionC1EPNS_12FunctionTypeENS_11GlobalValue12LinkageTypesERKNS_5TwineEPNS_6ModuleE
__ZN4llvm5Value11setNameImplERKNS_5TwineE
__ZN4llvm5Value16destroyValueNameEv
__ZN4llvm5Value12setValueNameEPNS_14StringMapEntryIPS0_EE
__ZN4llvm8DenseMapIPKNS_5ValueEPNS_14StringMapEntryIPS1_EENS_12DenseMapInfoIS3_EENS_6detail12DenseMapPairIS3_S7_EEE4growEj
__ZN4llvm8Function22recalculateIntrinsicIDEv
__ZN4llvm16ValueSymbolTable13reinsertValueEPNS_5ValueE
__ZNK4llvm10FoldingSetIN5clang7CodeGen14CGFunctionInfoEE10NodeEqualsEPNS_14FoldingSetImpl4NodeERKNS_16FoldingSetNodeIDEjRS8_
__ZN5clang7CodeGen14CGFunctionInfo7ProfileERN4llvm16FoldingSetNodeIDE
__ZN5clang7CodeGen13CodeGenModule25SetLLVMFunctionAttributesEPKNS_4DeclERKNS0_14CGFunctionInfoEPN4llvm8FunctionE
__ZN5clang7CodeGen13CodeGenModule22ConstructAttributeListEN4llvm9StringRefERKNS0_14CGFunctionInfoENS0_12CGCalleeInfoERNS2_11SmallVectorINS2_12AttributeSetELj8EEERjb
__ZN4llvm11AttrBuilder12addAttributeENS_9StringRefES1_
__ZNSt3__13mapINS_12basic_stringIcNS_11char_traitsIcEENS_9allocatorIcEEEES6_NS_4lessIS6_EENS4_INS_4pairIKS6_S6_EEEEE16__find_equal_keyERPNS_16__tree_node_baseIPvEERSA_
__ZNSt3__17__sort4IRNS_6__lessINS_12basic_stringIcNS_11char_traitsIcEENS_9allocatorIcEEEES7_EEPS7_EEjT0_SB_SB_SB_T_
__ZNSt3__17__sort3IRNS_6__lessINS_12basic_stringIcNS_11char_traitsIcEENS_9allocatorIcEEEES7_EEPS7_EEjT0_SB_SB_T_
__ZN4llvm9join_implINSt3__111__wrap_iterIPNS1_12basic_stringIcNS1_11char_traitsIcEENS1_9allocatorIcEEEEEEEES8_T_SB_NS_9StringRefENS1_20forward_iterator_tagE
__ZN4llvm12AttributeSet3getERNS_11LLVMContextEjRKNS_11AttrBuilderE
__ZN4llvm16FoldingSetNodeID9AddStringENS_9StringRefE
__ZN4llvm12AttributeSet3getERNS_11LLVMContextENS_8ArrayRefINSt3__14pairIjNS_9AttributeEEEEE
__ZNSt3__16__sortIRNS_6__lessIN4llvm9AttributeES3_EEPS3_EEvT0_S7_T_
__ZNSt3__17__sort3IRNS_6__lessIN4llvm9AttributeES3_EEPS3_EEjT0_S7_S7_T_
__ZNK4llvm13AttributeImplltERKS0_
__ZN4llvm12AttributeSet7getImplERNS_11LLVMContextENS_8ArrayRefINSt3__14pairIjPNS_16AttributeSetNodeEEEEE
__ZN4llvm12AttributeSet3getERNS_11LLVMContextENS_8ArrayRefIS0_EE
__ZNK12_GLOBAL__N_19ARMCXXABI13HasThisReturnEN5clang10GlobalDeclE
__ZL28setLinkageAndVisibilityForGVPN4llvm11GlobalValueEPKN5clang9NamedDeclE
__ZNK5clang9NamedDecl21getExplicitVisibilityENS0_22ExplicitVisibilityKindE
__ZL15getVisibilityOfPKN5clang9NamedDeclENS0_22ExplicitVisibilityKindE
__ZL25useInlineVisibilityHiddenPKN5clang9NamedDeclE
__ZNK5clang12FunctionDecl7hasBodyEv
__ZNK5clang4Decl7getAttrINS_11SectionAttrEEEPT_v
__ZNK5clang12FunctionDecl37isReplaceableGlobalAllocationFunctionEv
__ZN5clang7CodeGen13CodeGenModule26setFunctionDLLStorageClassENS_10GlobalDeclEPN4llvm8FunctionE
__ZL16shouldBeInCOMDATRN5clang7CodeGen13CodeGenModuleERKNS_4DeclE
__ZN5clang13MangleContext16startNewFunctionEv
__ZN5clang7CodeGen15CodeGenFunction12GenerateCodeENS_10GlobalDeclEPN4llvm8FunctionERKNS0_14CGFunctionInfoE
__ZNK5clang12FunctionDecl31getTemplateInstantiationPatternEv
__ZN5clang7CodeGen15CodeGenFunction13StartFunctionENS_10GlobalDeclENS_8QualTypeEPN4llvm8FunctionERKNS0_14CGFunctionInfoERKNS0_15FunctionArgListENS_14SourceLocationESD_
__ZN5clang4Decl20getNonClosureContextEv
__ZNK5clang7CodeGen13CodeGenModule22isInSanitizerBlacklistEPN4llvm8FunctionENS_14SourceLocationE
__ZNK4llvm15SpecialCaseList9inSectionENS_9StringRefES1_S1_
__ZNK5clang13SourceManager11getFilenameENS_14SourceLocationE
__ZN4llvm21SymbolTableListTraitsINS_11InstructionEE15setSymTabObjectIPNS_8FunctionEEEvPT_S6_
__ZN4llvm10UndefValue3getEPNS_4TypeE
__ZN4llvm8DenseMapIPNS_4TypeEPNS_10UndefValueENS_12DenseMapInfoIS2_EENS_6detail12DenseMapPairIS2_S4_EEE4growEj
__ZN4llvm8CastInstC2EPNS_4TypeEjPNS_5ValueERKNS_5TwineEPNS_10BasicBlockE
__ZN5clang7CodeGen11CGDebugInfo17EmitFunctionStartENS_10GlobalDeclENS_14SourceLocationES3_NS_8QualTypeEPN4llvm8FunctionERNS0_11CGBuilderTyE
__ZNSt3__16vectorIjNS_9allocatorIjEEE21__push_back_slow_pathIjEEvOT_
__ZN5clang7CodeGen11CGDebugInfo15getOrCreateFileENS_14SourceLocationE
__ZN4llvm8DenseMapIPKcNS_13TrackingMDRefENS_12DenseMapInfoIS2_EENS_6detail12DenseMapPairIS2_S3_EEE4growEj
__ZN5clang7CodeGen11CGDebugInfo24collectFunctionDeclPropsENS_10GlobalDeclEPN4llvm6DIFileERNS3_9StringRefES7_RPNS3_7DIScopeERNS3_24MDTupleTypedArrayWrapperINS3_6DINodeEEERj
__ZN5clang7CodeGen11CGDebugInfo15getFunctionNameEPKNS_12FunctionDeclE
__ZN5clang7CodeGen11CGDebugInfo23getOrCreateFunctionTypeEPKNS_4DeclENS_8QualTypeEPN4llvm6DIFileE
__ZN5clang7CodeGen11CGDebugInfo15getOrCreateTypeENS_8QualTypeEPN4llvm6DIFileE
__ZN5clang7CodeGen11CGDebugInfo10CreateTypeEPKNS_12FunctionTypeEPN4llvm6DIFileE
__ZNK5clang11BuiltinType7getNameERKNS_14PrintingPolicyE
__ZN4llvm11DIBasicType7getImplERNS_11LLVMContextEjPNS_8MDStringEyyjNS_8Metadata11StorageTypeEb
__ZNK4llvm12DenseMapBaseINS_8DenseMapIPNS_11DIBasicTypeENS_6detail13DenseSetEmptyENS_10MDNodeInfoIS2_EENS4_12DenseSetPairIS3_EEEES3_S5_S7_S9_E15LookupBucketForINS_13MDNodeKeyImplIS2_EEEEbRKT_RPKS9_
__ZN4llvm12DenseMapBaseINS_8DenseMapIPNS_11DIBasicTypeENS_6detail13DenseSetEmptyENS_10MDNodeInfoIS2_EENS4_12DenseSetPairIS3_EEEES3_S5_S7_S9_E6insertEONSt3__14pairIS3_S5_EE
__ZN4llvm8DenseMapIPNS_11DIBasicTypeENS_6detail13DenseSetEmptyENS_10MDNodeInfoIS1_EENS3_12DenseSetPairIS2_EEE4growEj
__ZN4llvm10MDNodeInfoINS_11DIBasicTypeEE12getHashValueEPKS1_
__ZN4llvm12DenseMapBaseINS_8DenseMapIPKvNS_13TrackingMDRefENS_12DenseMapInfoIS3_EENS_6detail12DenseMapPairIS3_S4_EEEES3_S4_S6_S9_E16FindAndConstructEOS3_
__ZN4llvm8DenseMapIPKvNS_13TrackingMDRefENS_12DenseMapInfoIS2_EENS_6detail12DenseMapPairIS2_S3_EEE4growEj
__ZN5clang7CodeGen11CGDebugInfo10CreateTypeEPKNS_11TypedefTypeEPN4llvm6DIFileE
__ZN5clang7CodeGen11CGDebugInfo21CreatePointerLikeTypeEN4llvm5dwarf3TagEPKNS_4TypeENS_8QualTypeEPNS2_6DIFileE
__ZN5clang7CodeGen11CGDebugInfo10CreateTypeEPKNS_10RecordTypeE
__ZN5clang7CodeGen11CGDebugInfo20CreateTypeDefinitionEPKNS_10RecordTypeE
__ZN5clang7CodeGen11CGDebugInfo17CreateLimitedTypeEPKNS_10RecordTypeE
__ZN5clang7CodeGen11CGDebugInfo12getClassNameEPKNS_10RecordDeclE
__ZN5clang7CodeGen11CGDebugInfo21getParentModuleOrNullEPKNS_4DeclE
__ZN5clang7CodeGen11CGDebugInfo20getContextDescriptorEPKNS_4DeclEPN4llvm7DIScopeE
__ZL20getUniqueTagTypeNamePKN5clang7TagTypeERNS_7CodeGen13CodeGenModuleEPN4llvm13DICompileUnitE
__ZN4llvm9DIBuilder30createReplaceableCompositeTypeEjNS_9StringRefEPNS_7DIScopeEPNS_6DIFileEjjyyjS1_
__ZN4llvm6MDNode12makeDistinctEv
__ZN4llvm23ReplaceableMetadataImpl14resolveAllUsesEb
__ZNSt3__16__sortIRZN4llvm23ReplaceableMetadataImpl14resolveAllUsesEbE3$_1PNS_4pairIPvNS5_INS1_12PointerUnionIPNS1_15MetadataAsValueEPNS1_8MetadataEEEyEEEEEEvT0_SG_T_
__ZN4llvm12DenseMapBaseINS_8DenseMapIPKN5clang4DeclENS_13TrackingMDRefENS_12DenseMapInfoIS5_EENS_6detail12DenseMapPairIS5_S6_EEEES5_S6_S8_SB_E16FindAndConstructEOS5_
__ZN4llvm8DenseMapIPKN5clang4DeclENS_13TrackingMDRefENS_12DenseMapInfoIS4_EENS_6detail12DenseMapPairIS4_S5_EEE4growEj
__ZN4llvm9DIBuilder13replaceArraysERPNS_15DICompositeTypeENS_24MDTupleTypedArrayWrapperINS_6DINodeEEES6_
__ZN4llvm16MetadataTracking7untrackEPvRNS_8MetadataE
__ZN5clang7CodeGen11CGDebugInfo19CollectRecordFieldsEPKNS_10RecordDeclEPN4llvm6DIFileERNS5_15SmallVectorImplIPNS5_8MetadataEEEPNS5_15DICompositeTypeE
__ZN5clang7CodeGen11CGDebugInfo15createFieldTypeEN4llvm9StringRefENS_8QualTypeEyNS_14SourceLocationENS_15AccessSpecifierEyPNS2_6DIFileEPNS2_7DIScopeEPKNS_10RecordDeclE
__ZN5clang7CodeGen11CGDebugInfo14CreateEnumTypeEPKNS_8EnumTypeE
__ZN5clang7CodeGen11CGDebugInfo20CreateTypeDefinitionEPKNS_8EnumTypeE
__ZN4llvm12DIEnumerator7getImplERNS_11LLVMContextExPNS_8MDStringENS_8Metadata11StorageTypeEb
__ZNK4llvm12DenseMapBaseINS_8DenseMapIPNS_12DIEnumeratorENS_6detail13DenseSetEmptyENS_10MDNodeInfoIS2_EENS4_12DenseSetPairIS3_EEEES3_S5_S7_S9_E15LookupBucketForINS_13MDNodeKeyImplIS2_EEEEbRKT_RPKS9_
__ZN4llvm12DenseMapBaseINS_8DenseMapIPNS_12DIEnumeratorENS_6detail13DenseSetEmptyENS_10MDNodeInfoIS2_EENS4_12DenseSetPairIS3_EEEES3_S5_S7_S9_E20InsertIntoBucketImplERKS3_PS9_
__ZN4llvm8DenseMapIPNS_12DIEnumeratorENS_6detail13DenseSetEmptyENS_10MDNodeInfoIS1_EENS3_12DenseSetPairIS2_EEE4growEj
__ZN4llvm7MDTuple7getImplERNS_11LLVMContextENS_8ArrayRefIPNS_8MetadataEEENS4_11StorageTypeEb
__ZN4llvm12MDNodeOpsKey13calculateHashENS_8ArrayRefIPNS_8MetadataEEE
__ZNK4llvm12DenseMapBaseINS_8DenseMapIPNS_7MDTupleENS_6detail13DenseSetEmptyENS_10MDNodeInfoIS2_EENS4_12DenseSetPairIS3_EEEES3_S5_S7_S9_E15LookupBucketForINS_13MDNodeKeyImplIS2_EEEEbRKT_RPKS9_
__ZN4llvm12DenseMapBaseINS_8DenseMapIPNS_7MDTupleENS_6detail13DenseSetEmptyENS_10MDNodeInfoIS2_EENS4_12DenseSetPairIS3_EEEES3_S5_S7_S9_E20InsertIntoBucketImplERKS3_PS9_
__ZN4llvm8DenseMapIPNS_7MDTupleENS_6detail13DenseSetEmptyENS_10MDNodeInfoIS1_EENS3_12DenseSetPairIS2_EEE4growEj
__ZN4llvm15DICompositeType7getImplERNS_11LLVMContextEjPNS_8MDStringEPNS_8MetadataEjS6_S6_yyyjS6_jS6_S6_S4_NS5_11StorageTypeEb
__ZN4llvm12DenseMapBaseINS_8DenseMapIPNS_15DICompositeTypeENS_6detail13DenseSetEmptyENS_10MDNodeInfoIS2_EENS4_12DenseSetPairIS3_EEEES3_S5_S7_S9_E6insertEONSt3__14pairIS3_S5_EE
__ZN4llvm8DenseMapIPNS_15DICompositeTypeENS_6detail13DenseSetEmptyENS_10MDNodeInfoIS1_EENS3_12DenseSetPairIS2_EEE4growEj
__ZN4llvm10MDNodeInfoINS_15DICompositeTypeEE12getHashValueEPKS1_
__ZN4llvm13DIDerivedType7getImplERNS_11LLVMContextEjPNS_8MDStringEPNS_8MetadataEjS6_S6_yyyjS6_NS5_11StorageTypeEb
__ZNK4llvm12DenseMapBaseINS_8DenseMapIPNS_13DIDerivedTypeENS_6detail13DenseSetEmptyENS_10MDNodeInfoIS2_EENS4_12DenseSetPairIS3_EEEES3_S5_S7_S9_E15LookupBucketForINS_13MDNodeKeyImplIS2_EEEEbRKT_RPKS9_
__ZN4llvm12DenseMapBaseINS_8DenseMapIPNS_13DIDerivedTypeENS_6detail13DenseSetEmptyENS_10MDNodeInfoIS2_EENS4_12DenseSetPairIS3_EEEES3_S5_S7_S9_E20InsertIntoBucketImplERKS3_PS9_
__ZN4llvm8DenseMapIPNS_13DIDerivedTypeENS_6detail13DenseSetEmptyENS_10MDNodeInfoIS1_EENS3_12DenseSetPairIS2_EEE4growEj
__ZNK4llvm13MDNodeKeyImplINS_13DIDerivedTypeEE12getHashValueEv
__ZNK4llvm13MDNodeKeyImplINS_11DIBasicTypeEE12getHashValueEv
__ZNK4llvm13MDNodeKeyImplINS_13DIDerivedTypeEE7isKeyOfEPKS1_
__ZN5clang7CodeGen11CGDebugInfo10CreateTypeEPKNS_9ArrayTypeEPN4llvm6DIFileE
__ZN4llvm10DISubrange7getImplERNS_11LLVMContextExxNS_8Metadata11StorageTypeEb
__ZNK4llvm12DenseMapBaseINS_8DenseMapIPNS_10DISubrangeENS_6detail13DenseSetEmptyENS_10MDNodeInfoIS2_EENS4_12DenseSetPairIS3_EEEES3_S5_S7_S9_E15LookupBucketForINS_13MDNodeKeyImplIS2_EEEEbRKT_RPKS9_
__ZN4llvm12DenseMapBaseINS_8DenseMapIPNS_10DISubrangeENS_6detail13DenseSetEmptyENS_10MDNodeInfoIS2_EENS4_12DenseSetPairIS3_EEEES3_S5_S7_S9_E20InsertIntoBucketImplERKS3_PS9_
__ZN4llvm8DenseMapIPNS_10DISubrangeENS_6detail13DenseSetEmptyENS_10MDNodeInfoIS1_EENS3_12DenseSetPairIS2_EEE4growEj
__ZN5clang7CodeGen11CGDebugInfo19CreateQualifiedTypeENS_8QualTypeEPN4llvm6DIFileE
__ZN5clang7CodeGen11CGDebugInfo24getOrCreateRecordFwdDeclEPKNS_10RecordTypeEPN4llvm7DIScopeE
__ZN4llvm23SmallVectorTemplateBaseINS_18TypedTrackingMDRefINS_6MDNodeEEELb0EE4growEm
__ZN4llvm13SmallDenseMapIPvNSt3__14pairINS_12PointerUnionIPNS_15MetadataAsValueEPNS_8MetadataEEEyEELj4ENS_12DenseMapInfoIS1_EENS_6detail12DenseMapPairIS1_SA_EEE4growEj
__ZN4llvm12DenseMapBaseINS_13SmallDenseMapIPvNSt3__14pairINS_12PointerUnionIPNS_15MetadataAsValueEPNS_8MetadataEEEyEELj4ENS_12DenseMapInfoIS2_EENS_6detail12DenseMapPairIS2_SB_EEEES2_SB_SD_SG_E18moveFromOldBucketsEPSG_SJ_
__ZN4llvm23ReplaceableMetadataImpl7moveRefEPvS1_RKNS_8MetadataE
__ZN4llvm9DIBuilder20getOrCreateTypeArrayENS_8ArrayRefIPNS_8MetadataEEE
__ZN4llvm16DISubroutineType7getImplERNS_11LLVMContextEjPNS_8MetadataENS3_11StorageTypeEb
__ZN4llvm12DenseMapBaseINS_8DenseMapIPNS_16DISubroutineTypeENS_6detail13DenseSetEmptyENS_10MDNodeInfoIS2_EENS4_12DenseSetPairIS3_EEEES3_S5_S7_S9_E6insertEONSt3__14pairIS3_S5_EE
__ZN4llvm8DenseMapIPNS_16DISubroutineTypeENS_6detail13DenseSetEmptyENS_10MDNodeInfoIS1_EENS3_12DenseSetPairIS2_EEE4growEj
__ZN5clang7CodeGen11CGDebugInfo22getFunctionDeclarationEPKNS_4DeclE
__ZN4llvm9DIBuilder14createFunctionEPNS_7DIScopeENS_9StringRefES3_PNS_6DIFileEjPNS_16DISubroutineTypeEbbjjbNS_24MDTupleTypedArrayWrapperINS_19DITemplateParameterEEEPNS_12DISubprogramE
__ZN4llvm12DISubprogram7getImplERNS_11LLVMContextEPNS_8MetadataEPNS_8MDStringES6_S4_jS4_bbjS4_jjjbS4_S4_S4_S4_NS3_11StorageTypeEb
__ZN4llvm8Function11setMetadataEjPNS_6MDNodeE
__ZN4llvm12DenseMapBaseINS_8DenseMapIPKNS_8FunctionENS_15MDAttachmentMapENS_12DenseMapInfoIS4_EENS_6detail12DenseMapPairIS4_S5_EEEES4_S5_S7_SA_E16FindAndConstructEOS4_
__ZN4llvm8DenseMapIPKNS_8FunctionENS_15MDAttachmentMapENS_12DenseMapInfoIS3_EENS_6detail12DenseMapPairIS3_S4_EEE4growEj
__ZN4llvm15MDAttachmentMap3setEjRNS_6MDNodeE
__ZN5clang7CodeGen15CodeGenFunction12CreateIRTempENS_8QualTypeERKN4llvm5TwineE
__ZN4llvm10AllocaInstC2EPNS_4TypeEPNS_5ValueEjRKNS_5TwineEPNS_11InstructionE
__ZN4llvm11ConstantInt3getEPNS_11IntegerTypeEyb
__ZN4llvm11ConstantInt3getERNS_11LLVMContextERKNS_5APIntE
__ZNK4llvm12DenseMapBaseINS_8DenseMapINS_5APIntEPNS_11ConstantIntENS_20DenseMapAPIntKeyInfoENS_6detail12DenseMapPairIS2_S4_EEEES2_S4_S5_S8_E15LookupBucketForIS2_EEbRKT_RPKS8_
__ZN4llvm8DenseMapINS_5APIntEPNS_11ConstantIntENS_20DenseMapAPIntKeyInfoENS_6detail12DenseMapPairIS1_S3_EEE4growEj
__ZN4llvm10hash_valueERKNS_5APIntE
__ZN5clang7CodeGen15CodeGenFunction15EmitStartEHSpecEPKNS_4DeclE
__ZN5clang7CodeGen15CodeGenFunction18EmitFunctionPrologERKNS0_14CGFunctionInfoEPN4llvm8FunctionERKNS0_15FunctionArgListE
__ZNK4llvm8Function18BuildLazyArgumentsEv
__ZL14getNonNullAttrPKN5clang4DeclEPKNS_11ParmVarDeclENS_8QualTypeEj
__ZNK5clang4Decl7getAttrINS_14AlignValueAttrEEEPT_v
__ZN5clang7CodeGen15CodeGenFunction12EmitParmDeclERKNS_7VarDeclENS1_10ParamValueEj
__ZNK5clang10ASTContext12getDeclAlignEPKNS_4DeclEb
__ZNK5clang10ASTContext21getPreferredTypeAlignEPKNS_4TypeE
__ZN5clang7CodeGen15CodeGenFunction13CreateMemTempENS_8QualTypeENS_9CharUnitsERKN4llvm5TwineE
__ZN5clang7CodeGen15CodeGenFunction17EmitStoreOfScalarEPN4llvm5ValueENS0_6LValueEb
__ZN5clang7CodeGen15CodeGenFunction17EmitStoreOfScalarEPN4llvm5ValueENS0_7AddressEbNS_8QualTypeENS0_15AlignmentSourceEPNS2_6MDNodeEbS6_yb
__ZL24hasBooleanRepresentationN5clang8QualTypeE
__ZN4llvm9StoreInstC2EPNS_5ValueES2_bjNS_14AtomicOrderingENS_20SynchronizationScopeEPNS_11InstructionE
__ZNK5clang7CodeGen17CGBuilderInserter12InsertHelperEPN4llvm11InstructionERKNS2_5TwineEPNS2_10BasicBlockENS2_14ilist_iteratorIS3_EE
__ZNK5clang7CodeGen13LoopInfoStack12InsertHelperEPN4llvm11InstructionE
__ZNK4llvm13IRBuilderBase20SetInstDebugLocationEPNS_11InstructionE
__ZN4llvm8DenseMapIPKN5clang4DeclENS1_7CodeGen7AddressENS_12DenseMapInfoIS4_EENS_6detail12DenseMapPairIS4_S6_EEE4growEj
__ZN5clang7CodeGen11CGDebugInfo11EmitDeclareEPKNS_7VarDeclEPN4llvm5ValueENS5_8OptionalIjEERNS0_11CGBuilderTyE
__ZL19createLocalVariableRN4llvm11LLVMContextERNS_8DenseMapIPNS_6MDNodeENS_11SmallVectorINS_18TypedTrackingMDRefIS3_EELj1EEENS_12DenseMapInfoIS4_EENS_6detail12DenseMapPairIS4_S8_EEEEPNS_7DIScopeENS_9StringRefEjPNS_6DIFileEjPNS_6DITypeEbj
__ZN4llvm15DILocalVariable7getImplERNS_11LLVMContextEPNS_8MetadataEPNS_8MDStringES4_jS4_jjNS3_11StorageTypeEb
__ZNK4llvm12DenseMapBaseINS_8DenseMapIPNS_15DILocalVariableENS_6detail13DenseSetEmptyENS_10MDNodeInfoIS2_EENS4_12DenseSetPairIS3_EEEES3_S5_S7_S9_E15LookupBucketForINS_13MDNodeKeyImplIS2_EEEEbRKT_RPKS9_
__ZN4llvm12DenseMapBaseINS_8DenseMapIPNS_15DILocalVariableENS_6detail13DenseSetEmptyENS_10MDNodeInfoIS2_EENS4_12DenseSetPairIS3_EEEES3_S5_S7_S9_E6insertEONSt3__14pairIS3_S5_EE
__ZN4llvm8DenseMapIPNS_15DILocalVariableENS_6detail13DenseSetEmptyENS_10MDNodeInfoIS1_EENS3_12DenseSetPairIS2_EEE4growEj
__ZN4llvm10MDNodeInfoINS_15DILocalVariableEE12getHashValueEPKS1_
__ZN4llvm9DIBuilder16createExpressionENS_8ArrayRefIxEE
__ZN4llvm12DIExpression7getImplERNS_11LLVMContextENS_8ArrayRefIyEENS_8Metadata11StorageTypeEb
__ZN4llvm8DenseMapIPNS_12DIExpressionENS_6detail13DenseSetEmptyENS_10MDNodeInfoIS1_EENS3_12DenseSetPairIS2_EEE4growEj
__ZN4llvm7hashing6detail23hash_combine_range_implIKyEENSt3__19enable_ifIXsr16is_hashable_dataIT_EE5valueENS_9hash_codeEE4typeEPS6_SA_
__ZN4llvm10DILocation7getImplERNS_11LLVMContextEjjPNS_8MetadataES4_NS3_11StorageTypeEb
__ZNK4llvm12DenseMapBaseINS_8DenseMapIPNS_10DILocationENS_6detail13DenseSetEmptyENS_10MDNodeInfoIS2_EENS4_12DenseSetPairIS3_EEEES3_S5_S7_S9_E15LookupBucketForINS_13MDNodeKeyImplIS2_EEEEbRKT_RPKS9_
__ZN4llvm12DenseMapBaseINS_8DenseMapIPNS_10DILocationENS_6detail13DenseSetEmptyENS_10MDNodeInfoIS2_EENS4_12DenseSetPairIS3_EEEES3_S5_S7_S9_E20InsertIntoBucketImplERKS3_PS9_
__ZN4llvm8DenseMapIPNS_10DILocationENS_6detail13DenseSetEmptyENS_10MDNodeInfoIS1_EENS3_12DenseSetPairIS2_EEE4growEj
__ZNK4llvm13MDNodeKeyImplINS_10DILocationEE12getHashValueEv
__ZN4llvm9DIBuilder13insertDeclareEPNS_5ValueEPNS_15DILocalVariableEPNS_12DIExpressionEPKNS_10DILocationEPNS_10BasicBlockE
__ZN4llvm9Intrinsic14getDeclarationEPNS_6ModuleENS0_2IDENS_8ArrayRefIPNS_4TypeEEE
__ZN4llvm9Intrinsic7getNameENS0_2IDENS_8ArrayRefIPNS_4TypeEEE
__ZN4llvm9Intrinsic28getIntrinsicInfoTableEntriesENS0_2IDERNS_15SmallVectorImplINS0_13IITDescriptorEEE
__ZL13DecodeIITTypeRjN4llvm8ArrayRefIhEERNS0_15SmallVectorImplINS0_9Intrinsic13IITDescriptorEEE
__ZL15DecodeFixedTypeRN4llvm8ArrayRefINS_9Intrinsic13IITDescriptorEEENS0_IPNS_4TypeEEERNS_11LLVMContextE
__ZN4llvm6Module19getOrInsertFunctionENS_9StringRefEPNS_12FunctionTypeENS_12AttributeSetE
__ZL17lookupIntrinsicIDPKN4llvm14StringMapEntryIPNS_5ValueEEE
__ZN4llvm9Intrinsic13getAttributesERNS_11LLVMContextENS0_2IDE
__ZN4llvm12AttributeSet3getERNS_11LLVMContextEjNS_8ArrayRefINS_9Attribute8AttrKindEEE
__ZN4llvm9Attribute3getERNS_11LLVMContextENS0_8AttrKindEy
__ZNK4llvm10FoldingSetINS_13AttributeImplEE10NodeEqualsEPNS_14FoldingSetImpl4NodeERKNS_16FoldingSetNodeIDEjRS6_
__ZNK4llvm13AttributeImpl7ProfileERNS_16FoldingSetNodeIDE
__ZN4llvm15ValueAsMetadata3getEPNS_5ValueE
__ZN4llvm12DenseMapBaseINS_8DenseMapIPNS_5ValueEPNS_15ValueAsMetadataENS_12DenseMapInfoIS3_EENS_6detail12DenseMapPairIS3_S5_EEEES3_S5_S7_SA_E20InsertIntoBucketImplERKS3_PSA_
__ZN4llvm8DenseMapIPNS_5ValueEPNS_15ValueAsMetadataENS_12DenseMapInfoIS2_EENS_6detail12DenseMapPairIS2_S4_EEE4growEj
__ZN4llvm15MetadataAsValue3getERNS_11LLVMContextEPNS_8MetadataE
__ZN4llvm12DenseMapBaseINS_8DenseMapIPNS_8MetadataEPNS_15MetadataAsValueENS_12DenseMapInfoIS3_EENS_6detail12DenseMapPairIS3_S5_EEEES3_S5_S7_SA_E20InsertIntoBucketImplERKS3_PSA_
__ZN4llvm8DenseMapIPNS_8MetadataEPNS_15MetadataAsValueENS_12DenseMapInfoIS2_EENS_6detail12DenseMapPairIS2_S4_EEE4growEj
__ZN4llvm8CallInst4initEPNS_12FunctionTypeEPNS_5ValueENS_8ArrayRefIS4_EENS5_INS_17OperandBundleDefTIS4_EEEERKNS_5TwineE
__ZN5clang7CodeGen11CGDebugInfo12EmitLocationERNS0_11CGBuilderTyENS_14SourceLocationE
__ZN5clang7CodeGen11CGDebugInfo11setLocationENS_14SourceLocationE
__ZN5clang7CodeGen10CodeGenPGO20assignRegionCountersENS_10GlobalDeclEPN4llvm8FunctionE
__ZN5clang7CodeGen15CodeGenFunction16EmitFunctionBodyERNS0_15FunctionArgListEPKNS_4StmtE
__ZN5clang7CodeGen15CodeGenFunction28EmitCompoundStmtWithoutScopeERKNS_12CompoundStmtEbNS0_12AggValueSlotE
__ZN5clang7CodeGen15CodeGenFunction8EmitStmtEPKNS_4StmtE
__ZN5clang7CodeGen15CodeGenFunction12EmitDeclStmtERKNS_8DeclStmtE
__ZN5clang7CodeGen15CodeGenFunction8EmitDeclERKNS_4DeclE
__ZN5clang7CodeGen15CodeGenFunction11EmitVarDeclERKNS_7VarDeclE
__ZN5clang7CodeGen15CodeGenFunction17EmitAutoVarAllocaERKNS_7VarDeclE
__ZN5clang7CodeGen15CodeGenFunction16CreateTempAllocaEPN4llvm4TypeENS_9CharUnitsERKNS2_5TwineE
__ZN5clang7CodeGen15CodeGenFunction17EmitLifetimeStartEyPN4llvm5ValueE
__ZN5clang7CodeGen15CodeGenFunction15EmitAutoVarInitERKNS1_15AutoVarEmissionE
__ZN5clang7CodeGen18ApplyDebugLocation4initENS_14SourceLocationEb
__ZN5clang7CodeGen18ApplyDebugLocationD1Ev
__ZN5clang7CodeGen15CodeGenFunction19EmitAutoVarCleanupsERKNS1_15AutoVarEmissionE
__ZN5clang8QualType20isDestructedTypeImplES0_
__ZN5clang7CodeGen15CodeGenFunction14EmitExprAsInitEPKNS_4ExprEPKNS_9ValueDeclENS0_6LValueEb
__ZN5clang7CodeGen15CodeGenFunction14EmitScalarInitEPKNS_4ExprEPKNS_9ValueDeclENS0_6LValueEb
__ZN5clang15StmtVisitorBaseINS_8make_ptrEN12_GLOBAL__N_117ScalarExprEmitterEPN4llvm5ValueEE5VisitEPNS_4StmtE
__ZN5clang7CodeGen15CodeGenFunction22EmitStoreThroughLValueENS0_6RValueENS0_6LValueEb
__ZN5clang7CodeGen15CodeGenFunction11EmitAnyExprEPKNS_4ExprENS0_12AggValueSlotEb
__ZN5clang7CodeGen15CodeGenFunction17EmitCheckedLValueEPKNS_4ExprENS1_13TypeCheckKindE
__ZN5clang7CodeGen15CodeGenFunction10EmitLValueEPKNS_4ExprE
__ZN5clang7CodeGen15CodeGenFunction17EmitDeclRefLValueEPKNS_11DeclRefExprE
__ZL23EmitGlobalVarDeclLValueRN5clang7CodeGen15CodeGenFunctionEPKNS_4ExprEPKNS_7VarDeclE
__ZN5clang7CodeGen13CodeGenModule18GetAddrOfGlobalVarEPKNS_7VarDeclEPN4llvm4TypeEb
__ZN5clang7CodeGen13CodeGenModule21GetOrCreateLLVMGlobalEN4llvm9StringRefEPNS2_11PointerTypeEPKNS_7VarDeclEb
__ZN5clang7CodeGen13CodeGenModule24GetGlobalVarAddressSpaceEPKNS_7VarDeclEj
__ZN4llvm14GlobalVariableC1ERNS_6ModuleEPNS_4TypeEbNS_11GlobalValue12LinkageTypesEPNS_8ConstantERKNS_5TwineEPS0_NS5_15ThreadLocalModeEjb
__ZNSt3__16__treeINS_12__value_typeIN4llvm9StringRefEN5clang10GlobalDeclEEENS_19__map_value_compareIS3_S6_NS_4lessIS3_EELb1EEENS_9allocatorIS6_EEE4findIS3_EENS_15__tree_iteratorIS6_PNS_11__tree_nodeIS6_PvEElEERKT_
__ZN4llvm9IRBuilderINS_14ConstantFolderEN5clang7CodeGen17CGBuilderInserterEE10CreateCastENS_11Instruction7CastOpsEPNS_5ValueEPNS_4TypeERKNS_5TwineE
__ZL20setObjCGCLValueClassRKN5clang10ASTContextEPKNS_4ExprERNS_7CodeGen6LValueEb
__ZNK5clang10TargetInfo16hasBuiltinAtomicEyy
__ZN12_GLOBAL__N_117ScalarExprEmitter13VisitCastExprEPN5clang8CastExprE
__ZN5clang7CodeGen15CodeGenFunction17tryEmitAsConstantEPNS_11DeclRefExprE
__ZN5clang7CodeGen15CodeGenFunction16EmitLoadOfLValueENS0_6LValueENS_14SourceLocationE
__ZN5clang7CodeGen15CodeGenFunction16EmitLoadOfScalarENS0_7AddressEbNS_8QualTypeENS_14SourceLocationENS0_15AlignmentSourceEPN4llvm6MDNodeES3_yb
__ZN4llvm8LoadInstC1EPNS_4TypeEPNS_5ValueEPKcbPNS_11InstructionE
__ZN12_GLOBAL__N_117ScalarExprEmitter29EmitLValueAlignmentAssumptionEPKN5clang4ExprEPN4llvm5ValueE
__ZN5clang7CodeGen11CGDebugInfo20EmitExplicitCastTypeENS_8QualTypeE
__ZN5clang7CodeGen11CGDebugInfo19getOrCreateMainFileEv
__ZN12_GLOBAL__N_117ScalarExprEmitter13VisitCallExprEPKN5clang8CallExprE
__ZNK5clang8CallExpr17getCallReturnTypeERKNS_10ASTContextE
__ZN5clang7CodeGen15CodeGenFunction12EmitCallExprEPKNS_8CallExprENS0_15ReturnValueSlotE
__ZL22EmitFunctionDeclLValueRN5clang7CodeGen15CodeGenFunctionEPKNS_4ExprEPKNS_12FunctionDeclE
__ZN5clang7CodeGen12CodeGenTypes19ConvertFunctionTypeENS_8QualTypeEPKNS_12FunctionDeclE
__ZN5clang7CodeGen12CodeGenTypes26isFuncParamTypeConvertibleENS_8QualTypeE
__ZN12_GLOBAL__N_124ItaniumMangleContextImpl19shouldMangleCXXNameEPKN5clang9NamedDeclE
__ZNK4llvm10FoldingSetINS_16AttributeSetNodeEE10NodeEqualsEPNS_14FoldingSetImpl4NodeERKNS_16FoldingSetNodeIDEjRS6_
__ZNK4llvm10FoldingSetINS_16AttributeSetImplEE10NodeEqualsEPNS_14FoldingSetImpl4NodeERKNS_16FoldingSetNodeIDEjRS6_
__ZN5clang7CodeGen15CodeGenFunction8EmitCallENS_8QualTypeEPN4llvm5ValueEPKNS_8CallExprENS0_15ReturnValueSlotENS0_12CGCalleeInfoES5_
__ZN5clang7CodeGen15CodeGenFunction12EmitCallArgsINS_17FunctionProtoTypeEEEvRNS0_11CallArgListEPKT_N4llvm14iterator_rangeINS_4Stmt17ConstExprIteratorEEEPKNS_12FunctionDeclEj
__ZN5clang7CodeGen15CodeGenFunction12EmitCallArgsERNS0_11CallArgListEN4llvm8ArrayRefINS_8QualTypeEEENS4_14iterator_rangeINS_4Stmt17ConstExprIteratorEEEPKNS_12FunctionDeclEj
__ZN5clang7CodeGen15CodeGenFunction11EmitCallArgERNS0_11CallArgListEPKNS_4ExprENS_8QualTypeE
__ZN5clang7CodeGen15CodeGenFunction17EmitAnyExprToTempEPKNS_4ExprE
__ZN12_GLOBAL__N_117ScalarExprEmitter20EmitScalarConversionEPN4llvm5ValueEN5clang8QualTypeES5_NS4_14SourceLocationEb
__ZN4llvm9IRBuilderINS_14ConstantFolderEN5clang7CodeGen17CGBuilderInserterEE13CreateIntCastEPNS_5ValueEPNS_4TypeEbRKNS_5TwineE
__ZN4llvm8CastInst17CreateIntegerCastEPNS_5ValueEPNS_4TypeEbRKNS_5TwineEPNS_11InstructionE
__ZN4llvm8CastInst6CreateENS_11Instruction7CastOpsEPNS_5ValueEPNS_4TypeERKNS_5TwineEPS1_
__ZN4llvm8CastInstC2EPNS_4TypeEjPNS_5ValueERKNS_5TwineEPNS_11InstructionE
__ZN5clang7CodeGen15CodeGenFunction19EmitNonNullArgCheckENS0_6RValueENS_8QualTypeENS_14SourceLocationEPKNS_12FunctionDeclEj
__ZZN5clang7CodeGen15CodeGenFunction12EmitCallArgsERNS0_11CallArgListEN4llvm8ArrayRefINS_8QualTypeEEENS4_14iterator_rangeINS_4Stmt17ConstExprIteratorEEEPKNS_12FunctionDeclEjENK3$_2clEjPKNS_4ExprE
__ZL27arrangeFreeFunctionLikeCallRN5clang7CodeGen12CodeGenTypesERNS0_13CodeGenModuleERKNS0_11CallArgListEPKNS_12FunctionTypeEjb
__ZN5clang7CodeGen15CodeGenFunction8EmitCallERKNS0_14CGFunctionInfoEPN4llvm5ValueENS0_15ReturnValueSlotERKNS0_11CallArgListENS0_12CGCalleeInfoEPPNS5_11InstructionE
__ZN4llvm9IRBuilderINS_14ConstantFolderEN5clang7CodeGen17CGBuilderInserterEE10CreateCallEPNS_5ValueENS_8ArrayRefIS7_EENS8_INS_17OperandBundleDefTIS7_EEEERKNS_5TwineEPNS_6MDNodeE
__ZN4llvm3Use8initTagsEPS0_S1_
__ZN4llvm8CallInstC2EPNS_12FunctionTypeEPNS_5ValueENS_8ArrayRefIS4_EENS5_INS_17OperandBundleDefTIS4_EEEERKNS_5TwineEPNS_11InstructionE
__ZN12_GLOBAL__N_117ScalarExprEmitter7EmitMulERKNS_9BinOpInfoE
__ZN4llvm14BinaryOperatorC2ENS_11Instruction9BinaryOpsEPNS_5ValueES4_PNS_4TypeERKNS_5TwineEPS1_
__ZN5clang7CodeGen15CodeGenFunction14GetUndefRValueENS_8QualTypeE
__ZN5clang7CodeGen15CodeGenFunction11EmitForStmtERKNS_7ForStmtEN4llvm8ArrayRefIPKNS_4AttrEEE
__ZN5clang7CodeGen11CGDebugInfo21EmitLexicalBlockStartERNS0_11CGBuilderTyENS_14SourceLocationE
__ZN4llvm14DILexicalBlock7getImplERNS_11LLVMContextEPNS_8MetadataES4_jjNS3_11StorageTypeEb
__ZN5clang7CodeGen15CodeGenFunction9EmitBlockEPN4llvm10BasicBlockEb
__ZN5clang7CodeGen15CodeGenFunction10EmitBranchEPN4llvm10BasicBlockE
__ZN4llvm10BranchInstC1EPNS_10BasicBlockEPNS_11InstructionE
__ZN5clang7CodeGen13LoopInfoStack4pushEPN4llvm10BasicBlockERNS_10ASTContextENS2_8ArrayRefIPKNS_4AttrEEE
__ZN5clang7CodeGen8LoopInfoC2EPN4llvm10BasicBlockERKNS0_14LoopAttributesE
__ZN5clang7CodeGen15CodeGenFunction18EvaluateExprAsBoolEPKNS_4ExprE
__ZL29isConstantEmittableObjectTypeN5clang8QualTypeE
__ZN4llvm19ConstantPointerNull3getEPNS_11PointerTypeE
__ZN4llvm8DenseMapIPNS_11PointerTypeEPNS_19ConstantPointerNullENS_12DenseMapInfoIS2_EENS_6detail12DenseMapPairIS2_S4_EEE4growEj
__ZN4llvm9IRBuilderINS_14ConstantFolderEN5clang7CodeGen17CGBuilderInserterEE10CreateICmpENS_7CmpInst9PredicateEPNS_5ValueES9_RKNS_5TwineE
__ZN4llvm7CmpInstC2EPNS_4TypeENS_11Instruction8OtherOpsENS0_9PredicateEPNS_5ValueES7_RKNS_5TwineEPS3_
__ZN5clang7CodeGen15CodeGenFunction27createProfileWeightsForLoopEPKNS_4StmtEy
__ZN4llvm9IRBuilderINS_14ConstantFolderEN5clang7CodeGen17CGBuilderInserterEE12CreateCondBrEPNS_5ValueEPNS_10BasicBlockES9_PNS_6MDNodeESB_
__ZN4llvm10BranchInstC1EPNS_10BasicBlockES2_PNS_5ValueEPNS_11InstructionE
__ZN5clang7CodeGen15CodeGenFunction28ConstantFoldsToSimpleIntegerEPKNS_4ExprERN4llvm6APSIntE
__ZN5clang7CodeGen15CodeGenFunction20EmitBranchOnBoolExprEPKNS_4ExprEPN4llvm10BasicBlockES7_y
__ZN12_GLOBAL__N_117ScalarExprEmitter11EmitCompareEPKN5clang14BinaryOperatorEN4llvm7CmpInst9PredicateES7_S7_
__ZN5clang7CodeGen15CodeGenFunction22EmitArraySubscriptExprEPKNS_18ArraySubscriptExprEb
__ZNK5clang18ArraySubscriptExpr6getIdxEv
__ZN4llvm12ConstantExpr14getIntegerCastEPNS_8ConstantEPNS_4TypeEb
__ZN4llvm12ConstantExpr7getCastEjPNS_8ConstantEPNS_4TypeEb
__ZN4llvm27ConstantFoldCastInstructionEjPNS_8ConstantEPNS_4TypeE
__ZNK4llvm8Constant11isNullValueEv
__ZN4llvm8Constant12getNullValueEPNS_4TypeE
__ZN5clang7CodeGen15CodeGenFunction24EmitPointerWithAlignmentEPKNS_4ExprEPNS0_15AlignmentSourceE
__ZN5clang7CodeGen15CodeGenFunction23getNaturalTypeAlignmentENS_8QualTypeEPNS0_15AlignmentSourceEb
__ZNK5clang4Type5getAsINS_11TypedefTypeEEEPKT_v
__ZN5clang7CodeGen15CodeGenFunction13EmitTypeCheckENS1_13TypeCheckKindENS_14SourceLocationEPN4llvm5ValueENS_8QualTypeENS_9CharUnitsEb
__ZN5clang7CodeGen15CodeGenFunction18EmitLValueForFieldENS0_6LValueEPKNS_9FieldDeclE
__ZL22emitAddrOfFieldStorageRN5clang7CodeGen15CodeGenFunctionENS0_7AddressEPKNS_9FieldDeclE
__ZN5clang7CodeGen12CodeGenTypes17getCGRecordLayoutEPKNS_10RecordDeclE
__ZN4llvm9IRBuilderINS_14ConstantFolderEN5clang7CodeGen17CGBuilderInserterEE26CreateConstInBoundsGEP2_32EPNS_4TypeEPNS_5ValueEjjRKNS_5TwineE
__ZN4llvm17GetElementPtrInst6CreateEPNS_4TypeEPNS_5ValueENS_8ArrayRefIS4_EERKNS_5TwineEPNS_11InstructionE
__ZN4llvm17GetElementPtrInst16getGEPReturnTypeEPNS_4TypeEPNS_5ValueENS_8ArrayRefIS4_EE
__ZN4llvm17GetElementPtrInst14getIndexedTypeEPNS_4TypeENS_8ArrayRefIPNS_5ValueEEE
__ZNK4llvm13CompositeType10indexValidEPKNS_5ValueE
__ZN4llvm17GetElementPtrInst4initEPNS_5ValueENS_8ArrayRefIS2_EERKNS_5TwineE
__ZL21emitArraySubscriptGEPRN5clang7CodeGen15CodeGenFunctionENS0_7AddressEN4llvm8ArrayRefIPNS4_5ValueEEENS_8QualTypeEbRKNS4_5TwineE
__ZN4llvm9IRBuilderINS_14ConstantFolderEN5clang7CodeGen17CGBuilderInserterEE17CreateInBoundsGEPEPNS_4TypeEPNS_5ValueENS_8ArrayRefIS9_EERKNS_5TwineE
__ZN4llvm11Instruction15eraseFromParentEv
__ZN4llvm8ZExtInstD0Ev
__ZN4llvm11InstructionD2Ev
__ZN4llvm4UserdlEPv
__ZN5clang7CodeGen15CodeGenFunction16PopCleanupBlocksENS0_12EHScopeStack15stable_iteratorEm
__ZN5clang7CodeGen15CodeGenFunction12LexicalScopeD2Ev
__ZN12_GLOBAL__N_117ScalarExprEmitter7EmitAddERKNS_9BinOpInfoE
__ZN4llvm9IRBuilderINS_14ConstantFolderEN5clang7CodeGen17CGBuilderInserterEE12CreateNSWAddEPNS_5ValueES7_RKNS_5TwineE
__ZN4llvm9IRBuilderINS_14ConstantFolderEN5clang7CodeGen17CGBuilderInserterEE12CreateNSWMulEPNS_5ValueES7_RKNS_5TwineE
__ZN4llvm29ConstantFoldBinaryInstructionEjPNS_8ConstantES1_
__ZN5clang7CodeGen13CodeGenModule17EmitConstantValueERKNS_7APValueENS_8QualTypeEPNS0_15CodeGenFunctionE
__ZN5clang7CodeGen11CGDebugInfo18EmitGlobalVariableEPKNS_9ValueDeclEPN4llvm8ConstantE
__ZN5clang7CodeGen15CodeGenFunction16EmitCompoundStmtERKNS_12CompoundStmtEbNS0_12AggValueSlotE
__ZN12_GLOBAL__N_117ScalarExprEmitter23EmitScalarPrePostIncDecEPKN5clang13UnaryOperatorENS1_7CodeGen6LValueEbb
__ZN5clang18ArraySubscriptExpr7getBaseEv
__ZN5clang7CodeGen15CodeGenFunction24EmitLoadOfBitfieldLValueENS0_6LValueE
__ZN4llvm5APInt13getLowBitsSetEjj
__ZN4llvm9IRBuilderINS_14ConstantFolderEN5clang7CodeGen17CGBuilderInserterEE9CreateAndEPNS_5ValueES7_RKNS_5TwineE
__ZNK4llvm8Constant14isAllOnesValueEv
__ZN12_GLOBAL__N_117ScalarExprEmitter7EmitSubERKNS_9BinOpInfoE
__ZN5clang7CodeGen15CodeGenFunction19getJumpDestForLabelEPKNS_9LabelDeclE
__ZN4llvm12DenseMapBaseINS_8DenseMapIPKN5clang9LabelDeclENS2_7CodeGen15CodeGenFunction8JumpDestENS_12DenseMapInfoIS5_EENS_6detail12DenseMapPairIS5_S8_EEEES5_S8_SA_SD_E20InsertIntoBucketImplERKS5_PSD_
__ZN4llvm8DenseMapIPKN5clang9LabelDeclENS1_7CodeGen15CodeGenFunction8JumpDestENS_12DenseMapInfoIS4_EENS_6detail12DenseMapPairIS4_S7_EEE4growEj
__ZN5clang7CodeGen15CodeGenFunction24EmitBranchThroughCleanupENS1_8JumpDestE
__ZN5clang7CodeGen15CodeGenFunction9EmitLabelEPKNS_9LabelDeclE
__ZN5clang7CodeGen15CodeGenFunction19ResolveBranchFixupsEPN4llvm10BasicBlockE
__ZN12_GLOBAL__N_117ScalarExprEmitter32VisitAbstractConditionalOperatorEPKN5clang27AbstractConditionalOperatorE
__ZN4llvm7PHINode11addIncomingEPNS_5ValueEPNS_10BasicBlockE
__ZN5clang7CodeGen15CodeGenFunction18OpaqueValueMappingD2Ev
__ZNK4llvm13MDNodeKeyImplINS_15DICompositeTypeEE7isKeyOfEPKS1_
__ZN4llvm12ConstantExpr16getGetElementPtrEPNS_4TypeEPNS_8ConstantENS_8ArrayRefIPNS_5ValueEEEbS2_
__ZL29ConstantFoldGetElementPtrImplIPN4llvm5ValueEEPNS0_8ConstantEPNS0_4TypeES4_bNS0_8ArrayRefIT_EE
__ZN4llvm17ConstantUniqueMapINS_12ConstantExprEE11getOrCreateEPNS_4TypeENS_19ConstantExprKeyTypeE
__ZNK4llvm12DenseMapBaseINS_8DenseMapIPNS_12ConstantExprENS_6detail13DenseSetEmptyENS_17ConstantUniqueMapIS2_E7MapInfoENS4_12DenseSetPairIS3_EEEES3_S5_S8_SA_E15LookupBucketForIS3_EEbRKT_RPKSA_
__ZN4llvm12DenseMapBaseINS_8DenseMapIPNS_12ConstantExprENS_6detail13DenseSetEmptyENS_17ConstantUniqueMapIS2_E7MapInfoENS4_12DenseSetPairIS3_EEEES3_S5_S8_SA_E20InsertIntoBucketImplERKS3_PSA_
__ZN4llvm8DenseMapIPNS_12ConstantExprENS_6detail13DenseSetEmptyENS_17ConstantUniqueMapIS1_E7MapInfoENS3_12DenseSetPairIS2_EEE4growEj
__ZN4llvm17ConstantUniqueMapINS_12ConstantExprEE7MapInfo12getHashValueERKNSt3__14pairIPNS_4TypeENS_19ConstantExprKeyTypeEEE
__ZN4llvm7hashing6detail23hash_combine_range_implIKPNS_8ConstantEEENSt3__19enable_ifIXsr16is_hashable_dataIT_EE5valueENS_9hash_codeEE4typeEPS8_SC_
__ZNK4llvm19ConstantExprKeyTypeeqEPKNS_12ConstantExprE
__ZN12_GLOBAL__N_117ScalarExprEmitter24EmitCompoundAssignLValueEPKN5clang22CompoundAssignOperatorEMS0_FPN4llvm5ValueERKNS_9BinOpInfoEERS7_
__ZN5clang7CodeGen15CodeGenFunction14EmitReturnStmtERKNS_10ReturnStmtE
__ZN5clang7CodeGen15CodeGenFunction14FinishFunctionENS_14SourceLocationE
__ZN4llvm10BranchInstD0Ev
__ZN4llvm10BasicBlockD0Ev
__ZN4llvm10BasicBlockD2Ev
__ZN4llvm6iplistINS_11InstructionENS_21SymbolTableListTraitsIS1_EEE5clearEv
__ZN5clang7CodeGen18ApplyDebugLocationC1ERNS0_15CodeGenFunctionEN4llvm8DebugLocE
__ZN5clang7CodeGen15CodeGenFunction18EmitFunctionEpilogERKNS0_14CGFunctionInfoEbNS_14SourceLocationE
__ZN4llvm9StoreInstD0Ev
__ZN4llvm10AllocaInstD0Ev
__ZN4llvm10ReturnInstC1ERNS_11LLVMContextEPNS_5ValueEPNS_11InstructionE
__ZN5clang7CodeGen15CodeGenFunction13EmitEndEHSpecEPKNS_4DeclE
__ZN4llvm11BitCastInstD0Ev
__ZNK4llvm11Instruction8mayThrowEv
__ZN5clang7CodeGen15CodeGenFunctionD1Ev
__ZN5clang7CodeGen10CodeGenPGOD2Ev
__ZN5clang7CodeGen13CodeGenModule19SetCommonAttributesEPKNS_4DeclEPN4llvm11GlobalValueE
__ZNK5clang7CodeGen17TargetCodeGenInfo19setTargetAttributesEPKNS_4DeclEPN4llvm11GlobalValueERNS0_13CodeGenModuleE
__ZN5clang7CodeGen13CodeGenModule38SetLLVMFunctionAttributesForDefinitionEPKNS_4DeclEPN4llvm8FunctionE
__ZNK4llvm12AttributeSet13addAttributesERNS_11LLVMContextEjS0_
__ZN4llvm11AttrBuilder12addAttributeENS_9AttributeE
__ZL28tryEvaluateBuiltinObjectSizePKN5clang4ExprEjRN12_GLOBAL__N_18EvalInfoERyPb
__ZNK5clang4Expr14HasSideEffectsERKNS_10ASTContextEb
__ZNSt3__16vectorIN5clang7CodeGen13CodeGenModule14DeferredGlobalENS_9allocatorIS4_EEE24__emplace_back_slow_pathIJRPN4llvm11GlobalValueERNS1_10GlobalDeclEEEEvDpOT_
__ZN4llvm15ValueHandleBase12AddToUseListEv
__ZN4llvm12DenseMapBaseINS_8DenseMapIPNS_5ValueEPNS_15ValueHandleBaseENS_12DenseMapInfoIS3_EENS_6detail12DenseMapPairIS3_S5_EEEES3_S5_S7_SA_E20InsertIntoBucketImplERKS3_PSA_
__ZN4llvm8DenseMapIPNS_5ValueEPNS_15ValueHandleBaseENS_12DenseMapInfoIS2_EENS_6detail12DenseMapPairIS2_S4_EEE4growEj
__ZN4llvm15ValueHandleBase17RemoveFromUseListEv
__ZN12_GLOBAL__N_1L23checkUnusedAppertainsToERN5clang4SemaERKNS0_13AttributeListEPKNS0_4DeclE
__ZN12_GLOBAL__N_1L6IsZeroERN5clang4SemaEPNS0_4ExprE
__ZNK4llvm5APInt4zextEj
__ZNK4llvm6APSIntcoEv
__ZN12_GLOBAL__N_120PointerExprEvaluator13VisitCallExprEPKN5clang8CallExprE
__ZN5clang4Sema22ActOnStartOfSwitchStmtENS_14SourceLocationEPNS_4ExprEPNS_4DeclE
__ZN5clang4Sema35PerformContextualImplicitConversionENS_14SourceLocationEPNS_4ExprERNS0_27ContextualImplicitConverterE
__ZN5clang4Sema19ICEConvertDiagnoser5matchENS_8QualTypeE
__ZN5clang10SwitchStmtC1ERKNS_10ASTContextEPNS_7VarDeclEPNS_4ExprE
__ZN5clang6Parser18ParseCaseStatementEbNS_12ActionResultIPNS_4ExprELb1EEE
__ZN5clang4Sema13ActOnCaseStmtENS_14SourceLocationEPNS_4ExprES1_S3_S1_
__ZN5clang6Parser30DiagnoseAndSkipCXX11AttributesEv
__ZN5clang6Parser19SkipCXX11AttributesEv
__ZN5clang4Sema11ActOnDoStmtENS_14SourceLocationEPNS_4StmtES1_S1_PNS_4ExprES1_
__ZN5clang4Sema14ActOnBreakStmtENS_14SourceLocationEPNS_5ScopeE
__ZN5clang4Sema16ActOnDefaultStmtENS_14SourceLocationES1_PNS_4StmtEPNS_5ScopeE
__ZN5clang4Sema21ActOnFinishSwitchStmtENS_14SourceLocationEPNS_4StmtES3_
__ZL14checkCaseValueRN5clang4SemaENS_14SourceLocationERKN4llvm6APSIntEjb
__ZNSt3__113__stable_sortIRPFbRKNS_4pairIN4llvm6APSIntEPN5clang8CaseStmtEEES9_EPS7_EEvT0_SE_T_NS_15iterator_traitsISE_E15difference_typeEPNSH_10value_typeEl
__ZNSt3__118__stable_sort_moveIRPFbRKNS_4pairIN4llvm6APSIntEPN5clang8CaseStmtEEES9_EPS7_EEvT0_SE_T_NS_15iterator_traitsISE_E15difference_typeEPNSH_10value_typeE
__ZL11CmpCaseValsRKNSt3__14pairIN4llvm6APSIntEPN5clang8CaseStmtEEES8_
__ZN4llvm23SmallVectorTemplateBaseINSt3__14pairINS_6APSIntEPN5clang16EnumConstantDeclEEELb0EE4growEm
__ZNSt3__113__stable_sortIRPFbRKNS_4pairIN4llvm6APSIntEPN5clang16EnumConstantDeclEEES9_EPS7_EEvT0_SE_T_NS_15iterator_traitsISE_E15difference_typeEPNSH_10value_typeEl
__ZNSt3__118__stable_sort_moveIRPFbRKNS_4pairIN4llvm6APSIntEPN5clang16EnumConstantDeclEEES9_EPS7_EEvT0_SE_T_NS_15iterator_traitsISE_E15difference_typeEPNSH_10value_typeE
__ZL11CmpEnumValsRKNSt3__14pairIN4llvm6APSIntEPN5clang16EnumConstantDeclEEES8_
__ZL33ShouldDiagnoseSwitchCaseNotInEnumRKN5clang4SemaEPKNS_8EnumDeclEPKNS_4ExprERPNSt3__14pairIN4llvm6APSIntEPNS_16EnumConstantDeclEEESH_RKSC_
__ZN5clang17DiagnosticsEngine21EmitCurrentDiagnosticEb
__ZL27HandleLValueArrayAdjustmentRN12_GLOBAL__N_18EvalInfoEPKN5clang4ExprERNS_6LValueENS2_8QualTypeEx
__ZN12_GLOBAL__N_1L13shouldAddCaseERbPKN5clang4Expr10EvalResultEPKNS1_8CaseStmtERNS1_10ASTContextE
__ZN5clang4Sema14ActOnWhileStmtENS_14SourceLocationENS0_11FullExprArgEPNS_4DeclEPNS_4StmtE
__ZN5clang9WhileStmtC1ERKNS_10ASTContextEPNS_7VarDeclEPNS_4ExprEPNS_4StmtENS_14SourceLocationE
__ZL18HandleLValueMemberRN12_GLOBAL__N_18EvalInfoEPKN5clang4ExprERNS_6LValueEPKNS2_9FieldDeclEPKNS2_15ASTRecordLayoutE
__ZN5clang4Sema30CreateUnaryExprOrTypeTraitExprEPNS_4ExprENS_14SourceLocationENS_20UnaryExprOrTypeTraitE
__ZN5clang4Sema32CheckUnaryExprOrTypeTraitOperandEPNS_4ExprENS_20UnaryExprOrTypeTraitE
__ZN5clang24UnaryExprOrTypeTraitExprC1ENS_20UnaryExprOrTypeTraitEPNS_4ExprENS_8QualTypeENS_14SourceLocationES5_
__ZN5clang4Sema32DefaultVariadicArgumentPromotionEPNS_4ExprENS0_16VariadicCallTypeEPNS_12FunctionDeclE
__ZN5clang4Sema24DefaultArgumentPromotionEPNS_4ExprE
__ZN5clang4Sema17isValidVarArgTypeERKNS_8QualTypeE
__ZNK5clang8QualType14isCXX98PODTypeERNS_10ASTContextE
__ZN5clang7APValueC2ERKS0_
__ZN12_GLOBAL__N_1L25AnalyzeBitFieldAssignmentERN5clang4SemaEPNS0_9FieldDeclEPNS0_4ExprENS0_14SourceLocationE
__ZL7EvalValPN5clang4ExprERN4llvm15SmallVectorImplIPNS_11DeclRefExprEEEPNS_4DeclE
__ZL19evaluateVarDeclInitRN12_GLOBAL__N_18EvalInfoEPKN5clang4ExprEPKNS2_7VarDeclEPNS_14CallStackFrameERPNS2_7APValueE
__ZN5clang16EnumConstantDecl16getCanonicalDeclEv
__ZN12_GLOBAL__N_110CFGBuilder29analyzeLogicOperatorConditionEN5clang18BinaryOperatorKindERKN4llvm6APSIntES6_
__ZN5clang10ASTContext39doFunctionTypesMatchOnExtParameterInfosEPKNS_17FunctionProtoTypeES3_
__ZN5clang10ASTContext25mergeTransparentUnionTypeENS_8QualTypeES1_bb
__ZNK5clang17PartialDiagnostic10getStorageEv
__ZN5clang4Sema19DiagRuntimeBehaviorENS_14SourceLocationEPKNS_4StmtERKNS_17PartialDiagnosticE
__ZN4llvm15SmallVectorImplIN5clang15CharSourceRangeEEaSERKS3_
__ZN4llvm15SmallVectorImplIN5clang9FixItHintEEaSERKS3_
__ZN4llvm23SmallVectorTemplateBaseIN5clang4sema23PossiblyUnreachableDiagELb0EE4growEm
__ZN5clang19AnalysisDeclContext29registerForcedBlockExpressionEPKNS_4StmtE
__ZN4llvm8DenseMapIPKN5clang4StmtEPKNS1_8CFGBlockENS_12DenseMapInfoIS4_EENS_6detail12DenseMapPairIS4_S7_EEE4growEj
__ZN5clang19AnalysisDeclContext31getBlockForRegisteredExpressionEPKNS_4StmtE
__ZN5clang19AnalysisDeclContext25getCFGReachablityAnalysisEv
__ZN5clang35CFGReverseBlockReachabilityAnalysis11isReachableEPKNS_8CFGBlockES3_
__ZN4llvm12DenseMapBaseINS_8DenseMapIjNS_9BitVectorENS_12DenseMapInfoIjEENS_6detail12DenseMapPairIjS2_EEEEjS2_S4_S7_E20InsertIntoBucketImplERKjPS7_
__ZN4llvm8DenseMapIjNS_9BitVectorENS_12DenseMapInfoIjEENS_6detail12DenseMapPairIjS1_EEE4growEj
__ZN4llvm9BitVector6resizeEjb
__ZNK5clang17PartialDiagnostic4EmitERKNS_17DiagnosticBuilderE
__ZN5clang17PartialDiagnostic15freeStorageSlowEv
__ZN12_GLOBAL__N_117ExprEvaluatorBaseINS_16IntExprEvaluatorEE20VisitUnaryPostIncDecEPKN5clang13UnaryOperatorE
__ZL12handleIncDecRN12_GLOBAL__N_18EvalInfoEPKN5clang4ExprERKNS_6LValueENS2_8QualTypeEbPNS2_7APValueE
__ZNSt3__113__tree_removeIPNS_16__tree_node_baseIPvEEEEvT_S5_
__ZN5clang7CodeGen15CodeGenFunction13getVarArgTypeEPKNS_4ExprE
__ZNK5clang7CodeGen17TargetCodeGenInfo21isNoProtoCallVariadicERKNS0_11CallArgListEPKNS_19FunctionNoProtoTypeE
__ZN4llvm8CastInst20isEliminableCastPairENS_11Instruction7CastOpsES2_PNS_4TypeES4_S4_S4_S4_S4_
__ZN4llvm14SmallBitVector6resizeEjb
__ZN5clang4Sema19GetFormatStringTypeEPKNS_10FormatAttrE
__ZN5clang4Sema20CheckFormatArgumentsEN4llvm8ArrayRefIPKNS_4ExprEEEbjjNS0_16FormatStringTypeENS0_16VariadicCallTypeENS_14SourceLocationENS_11SourceRangeERNS1_14SmallBitVectorE
__ZL21checkFormatStringExprRN5clang4SemaEPKNS_4ExprEN4llvm8ArrayRefIS4_EEbjjNS0_16FormatStringTypeENS0_16VariadicCallTypeEbRNS5_14SmallBitVectorE
__ZL20ParsePrintfSpecifierRN5clang21analyze_format_string19FormatStringHandlerERPKcS4_RjRKNS_11LangOptionsERKNS_10TargetInfoEbb
__ZN12_GLOBAL__N_118CheckPrintfHandler21HandlePrintfSpecifierERKN5clang14analyze_printf15PrintfSpecifierEPKcj
__ZN12_GLOBAL__N_118CheckPrintfHandler12HandleAmountERKN5clang21analyze_format_string14OptionalAmountEjPKcj
__ZNK5clang21analyze_format_string15FormatSpecifier22hasValidLengthModifierERKNS_10TargetInfoE
__ZN12_GLOBAL__N_118CheckFormatHandler12CheckNumArgsERKN5clang21analyze_format_string15FormatSpecifierERKNS2_19ConversionSpecifierEPKcjj
__ZNK5clang14analyze_printf15PrintfSpecifier10getArgTypeERNS_10ASTContextEb
__ZNK5clang21analyze_format_string7ArgType11matchesTypeERNS_10ASTContextENS_8QualTypeE
__ZN12_GLOBAL__N_118CheckFormatHandler14DoneProcessingEv
__ZN5clang7CodeGen15CodeGenFunction23EmitArrayToPointerDecayEPKNS_4ExprEPNS0_15AlignmentSourceE
__ZN5clang7CodeGen13CodeGenModule34GetAddrOfConstantStringFromLiteralEPKNS_13StringLiteralEN4llvm9StringRefE
__ZN5clang7CodeGen13CodeGenModule33GetConstantArrayFromStringLiteralEPKNS_13StringLiteralE
__ZN4llvm22ConstantDataSequential7getImplENS_9StringRefEPNS_4TypeE
__ZN4llvm8DenseMapIPNS_8ConstantEPNS_14GlobalVariableENS_12DenseMapInfoIS2_EENS_6detail12DenseMapPairIS2_S4_EEE4growEj
__ZN12_GLOBAL__N_124ItaniumMangleContextImpl25shouldMangleStringLiteralEPKN5clang13StringLiteralE
__ZL21GenerateStringLiteralPN4llvm8ConstantENS_11GlobalValue12LinkageTypesERN5clang7CodeGen13CodeGenModuleENS_9StringRefENS4_9CharUnitsE
__ZN5clang7CodeGen17SanitizerMetadata18reportGlobalToASanEPN4llvm14GlobalVariableENS_14SourceLocationENS2_9StringRefENS_8QualTypeEbb
__ZN4llvm5Value18replaceAllUsesWithEPS0_
__ZN4llvm10BasicBlock28replaceSuccessorsPhiUsesWithEPS0_
__ZN4llvm16ValueSymbolTable14makeUniqueNameEPNS_5ValueERNS_11SmallStringILj256EEE
__ZN4llvm9StringMapIPNS_5ValueENS_15MallocAllocatorEE14emplace_secondIJS2_EEENSt3__14pairINS_17StringMapIteratorIS2_EEbEENS_9StringRefEDpOT_
__ZN5clang4Sema25ActOnEndOfTranslationUnitEv
__ZN5clang4Sema17DefineUsedVTablesEv
__ZN5clang4Sema22LoadExternalVTableUsesEv
__ZN5clang4Sema28PerformPendingInstantiationsEb
__ZN5clang4Sema32CheckDelayedMemberExceptionSpecsEv
__ZL22ShouldRemoveFromUnusedPN5clang4SemaEPKNS_14DeclaratorDeclE
__ZN5clang4Sema19getUndefinedButUsedERN4llvm15SmallVectorImplINSt3__14pairIPNS_9NamedDeclENS_14SourceLocationEEEEE
__ZN5clang7VarDecl19getActingDefinitionEv
__ZN5clang15BackendConsumer27CompleteTentativeDefinitionEPNS_7VarDeclE
__ZN12_GLOBAL__N_117CodeGeneratorImpl27CompleteTentativeDefinitionEPN5clang7VarDeclE
__ZN5clang7CodeGen13CodeGenModule23EmitTentativeDefinitionEPKNS_7VarDeclE
__ZN5clang10ASTContext24GetGVALinkageForVariableEPKNS_7VarDeclE
__ZN5clang7CodeGen13CodeGenModule23EmitGlobalVarDefinitionEPKNS_7VarDeclEb
__ZN5clang7CodeGen13CodeGenModule16EmitNullConstantENS_8QualTypeE
__ZN4llvm14GlobalVariable14setInitializerEPNS_8ConstantE
__ZN5clang7CodeGen13CodeGenModule14isTypeConstantENS_8QualTypeEb
__ZN5clang7CodeGen17SanitizerMetadata18reportGlobalToASanEPN4llvm14GlobalVariableERKNS_7VarDeclEb
__ZN5clang7CodeGen11CGDebugInfo18EmitGlobalVariableEPN4llvm14GlobalVariableEPKNS_7VarDeclE
__ZN5clang7CodeGen11CGDebugInfo19collectVarDeclPropsEPKNS_7VarDeclERPN4llvm6DIFileERjRNS_8QualTypeERNS5_9StringRefESD_RPNS5_7DIScopeE
__ZN5clang7CodeGen11CGDebugInfo44getOrCreateStaticDataMemberDeclarationOrNullEPKNS_7VarDeclE
__ZN4llvm9DIBuilder20createGlobalVariableEPNS_7DIScopeENS_9StringRefES3_PNS_6DIFileEjPNS_6DITypeEbPNS_8ConstantEPNS_6MDNodeE
__ZN4llvm16DIGlobalVariable7getImplERNS_11LLVMContextEPNS_8MetadataEPNS_8MDStringES6_S4_jS4_bbS4_S4_NS3_11StorageTypeEb
__ZN4llvm21ConstantAggregateZero3getEPNS_4TypeE
__ZN4llvm8DenseMapIPNS_4TypeEPNS_21ConstantAggregateZeroENS_12DenseMapInfoIS2_EENS_6detail12DenseMapPairIS2_S4_EEE4growEj
__ZN5clang4Sema38emitAndClearUnusedLocalTypedefWarningsEv
__ZN5clang15BackendConsumer21HandleTranslationUnitERNS_10ASTContextE
__ZN12_GLOBAL__N_117CodeGeneratorImpl21HandleTranslationUnitERN5clang10ASTContextE
__ZN5clang7CodeGen13CodeGenModule7ReleaseEv
__ZN5clang7CodeGen13CodeGenModule12EmitDeferredEv
__ZN5clang7CodeGen13CodeGenModule15GetAddrOfGlobalENS_10GlobalDeclEb
__ZN5clang7CodeGen15CodeGenFunction15EmitBuiltinExprEPKNS_12FunctionDeclEjPKNS_8CallExprENS0_15ReturnValueSlotE
__ZN5clang7CodeGen15CodeGenFunction21emitBuiltinObjectSizeEPKNS_4ExprEjPN4llvm11IntegerTypeE
__ZL17getMangledTypeStrPN4llvm4TypeE
__ZN4llvm3EVT6getEVTEPNS_4TypeEb
__ZNK4llvm3EVT12getEVTStringEv
__ZN4llvm9IRBuilderINS_14ConstantFolderEN5clang7CodeGen17CGBuilderInserterEE10CreateLShrEPNS_5ValueES7_RKNS_5TwineEb
__ZN4llvm8Constant15getAllOnesValueEPNS_4TypeE
__ZN12_GLOBAL__N_117ScalarExprEmitter6EmitOrERKNS_9BinOpInfoE
__ZN4llvm9IRBuilderINS_14ConstantFolderEN5clang7CodeGen17CGBuilderInserterEE8CreateOrEPNS_5ValueES7_RKNS_5TwineE
__ZN5clang7CodeGen15CodeGenFunction13EmitWhileStmtERKNS_9WhileStmtEN4llvm8ArrayRefIPKNS_4AttrEEE
__ZN4llvm12ConstantExpr7getICmpEtPNS_8ConstantES2_b
__ZN4llvm30ConstantFoldCompareInstructionEtPNS_8ConstantES1_
__ZN5clang7CodeGen15CodeGenFunction13ContainsLabelEPKNS_4StmtEb
__ZN4llvm9IRBuilderINS_14ConstantFolderEN5clang7CodeGen17CGBuilderInserterEE12CreateSelectEPNS_5ValueES7_S7_RKNS_5TwineE
__ZN4llvm10SelectInst4initEPNS_5ValueES2_S2_
__ZN12_GLOBAL__N_117ScalarExprEmitter7EmitDivERKNS_9BinOpInfoE
__ZN4llvm9IRBuilderINS_14ConstantFolderEN5clang7CodeGen17CGBuilderInserterEE10CreateSDivEPNS_5ValueES7_RKNS_5TwineEb
__ZN4llvm9IRBuilderINS_14ConstantFolderEN5clang7CodeGen17CGBuilderInserterEE19CreateZExtOrBitCastEPNS_5ValueEPNS_4TypeERKNS_5TwineE
__ZN4llvm8CastInst19CreateZExtOrBitCastEPNS_5ValueEPNS_4TypeERKNS_5TwineEPNS_11InstructionE
__ZN12_GLOBAL__N_117ScalarExprEmitter7EmitShlERKNS_9BinOpInfoE
__ZNK4llvm10BranchInst17getNumSuccessorsVEv
__ZNK4llvm10BranchInst13getSuccessorVEj
__ZN4llvm10BasicBlock15eraseFromParentEv
__ZL29CheckLValueConstantExpressionRN12_GLOBAL__N_18EvalInfoEN5clang14SourceLocationENS2_8QualTypeERKNS_6LValueE
__ZL14IsGlobalLValueN4llvm12PointerUnionIPKN5clang9ValueDeclEPKNS1_4ExprEEE
__ZN5clang7CodeGen15CodeGenFunction20EmitPredefinedLValueEPKNS_14PredefinedExprE
__ZN12_GLOBAL__N_117ScalarExprEmitter7EmitAndERKNS_9BinOpInfoE
__ZN12_GLOBAL__N_117ScalarExprEmitter7EmitShrERKNS_9BinOpInfoE
__ZN4llvm4User15growHungoffUsesEjb
__ZN4llvm12DenseMapBaseINS_8DenseMapIPKN5clang4DeclENS2_7CodeGen7AddressENS_12DenseMapInfoIS5_EENS_6detail12DenseMapPairIS5_S7_EEEES5_S7_S9_SC_E18moveFromOldBucketsEPSC_SF_
__ZN5clang7CodeGen15CodeGenFunction30EmitStoreThroughBitfieldLValueENS0_6RValueENS0_6LValueEPPN4llvm5ValueE
__ZN4llvm5APInt10getBitsSetEjjj
__ZN4llvm10SwitchInst4initEPNS_5ValueEPNS_10BasicBlockEj
__ZN5clang7CodeGen15CodeGenFunction12EmitCaseStmtERKNS_8CaseStmtE
__ZN5clang7CodeGen15CodeGenFunction24EmitBlockWithFallThroughEPN4llvm10BasicBlockEPKNS_4StmtE
__ZN4llvm10SwitchInst7addCaseEPNS_11ConstantIntEPNS_10BasicBlockE
__ZN5clang7CodeGen15CodeGenFunction10EmitDoStmtERKNS_6DoStmtEN4llvm8ArrayRefIPKNS_4AttrEEE
__ZN12_GLOBAL__N_117ScalarExprEmitter7EmitRemERKNS_9BinOpInfoE
__ZN4llvm9IRBuilderINS_14ConstantFolderEN5clang7CodeGen17CGBuilderInserterEE10CreateUDivEPNS_5ValueES7_RKNS_5TwineEb
__ZN12_GLOBAL__N_117ScalarExprEmitter7EmitXorERKNS_9BinOpInfoE
__ZN4llvm9IRBuilderINS_14ConstantFolderEN5clang7CodeGen17CGBuilderInserterEE9CreateXorEPNS_5ValueES7_RKNS_5TwineE
__ZN5clang16StmtIteratorBase10HandleDeclEPNS_4DeclE
__ZN4llvm9IRBuilderINS_14ConstantFolderEN5clang7CodeGen17CGBuilderInserterEE10CreateAShrEPNS_5ValueES7_RKNS_5TwineEb
__ZN4llvm15SmallVectorImplINSt3__14pairIjNS_18TypedTrackingMDRefINS_6MDNodeEEEEEEaSEOS7_
__ZNK4llvm5APInt15getLimitedValueEy
__ZN5clang7CodeGen13CodeGenModule21EmitCXXGlobalInitFuncEv
__ZN5clang7CodeGen13CodeGenModule21EmitCXXGlobalDtorFuncEv
__ZN5clang7CodeGen13CodeGenModule26EmitCXXThreadLocalInitFuncEv
__ZN12_GLOBAL__N_113ItaniumCXXABI24EmitThreadLocalInitFuncsERN5clang7CodeGen13CodeGenModuleEN4llvm8ArrayRefIPKNS1_7VarDeclEEENS6_IPNS5_8FunctionEEESA_
__ZN5clang7CodeGen13CodeGenModule12EmitCtorListERKNSt3__16vectorINS1_8StructorENS2_9allocatorIS4_EEEEPKc
__ZN4llvm10StructType3getEPNS_4TypeEz
__ZN4llvm10StructType3getERNS_11LLVMContextENS_8ArrayRefIPNS_4TypeEEEb
__ZN4llvm8DenseMapIPNS_10StructTypeENS_6detail13DenseSetEmptyENS_21AnonStructTypeKeyInfoENS3_12DenseSetPairIS2_EEE4growEj
__ZN4llvm21AnonStructTypeKeyInfo12getHashValueERKNS0_5KeyTyE
__ZL8emitUsedRN5clang7CodeGen13CodeGenModuleEN4llvm9StringRefERNSt3__16vectorINS3_6WeakVHENS5_9allocatorIS7_EEEE
__ZN4llvm6Module13addModuleFlagENS0_15ModFlagBehaviorENS_9StringRefEj
__ZN5clang7CodeGen13CodeGenModule19SimplifyPersonalityEv
__ZN5clang7CodeGen11CGDebugInfo8finalizeEv
__ZN4llvm6MDNode8uniquifyEv
__ZN4llvm6MDNode11makeUniquedEv
__ZNSt3__17__sort3IRZN4llvm23ReplaceableMetadataImpl14resolveAllUsesEbE3$_1PNS_4pairIPvNS5_INS1_12PointerUnionIPNS1_15MetadataAsValueEPNS1_8MetadataEEEyEEEEEEjT0_SG_SG_T_
__ZN4llvm9DIBuilder8finalizeEv
__ZZN4llvm9DIBuilder8finalizeEvENK3$_0clEPNS_12DISubprogramE
__ZN4llvm23ReplaceableMetadataImpl18replaceAllUsesWithEPNS_8MetadataE
__ZNSt3__16__sortIRZN4llvm23ReplaceableMetadataImpl18replaceAllUsesWithEPNS1_8MetadataEE3$_0PNS_4pairIPvNS7_INS1_12PointerUnionIPNS1_15MetadataAsValueES4_EEyEEEEEEvT0_SG_T_
__ZN4llvm6MDNode16deleteAsSubclassEv
__ZN4llvm6MDNode17dropAllReferencesEv
__ZNK5clang7CodeGen17TargetCodeGenInfo12emitTargetMDEPKNS_4DeclEPN4llvm11GlobalValueERNS0_13CodeGenModuleE
__ZN5clang12EmbedBitcodeEPN4llvm6ModuleERKNS_14CodeGenOptionsENS0_15MemoryBufferRefE
__ZN5clang17EmitBackendOutputERNS_17DiagnosticsEngineERKNS_14CodeGenOptionsERKNS_13TargetOptionsERKNS_11LangOptionsEN4llvm9StringRefEPNSB_6ModuleENS_13BackendActionEPNSB_17raw_pwrite_streamE
__ZN4llvm14TargetRegistry12lookupTargetERKNSt3__112basic_stringIcNS1_11char_traitsIcEENS1_9allocatorIcEEEERS7_
__ZN4llvm14RegisterTargetILNS_6Triple8ArchTypeE4ELb1EE12getArchMatchES2_
__ZN4llvm14RegisterTargetILNS_6Triple8ArchTypeE3ELb1EE12getArchMatchES2_
__ZZ31LLVMInitializeAArch64TargetInfoEN3$_08__invokeEN4llvm6Triple8ArchTypeE
__ZN4llvm14RegisterTargetILNS_6Triple8ArchTypeE25ELb1EE12getArchMatchES2_
__ZN4llvm14RegisterTargetILNS_6Triple8ArchTypeE24ELb1EE12getArchMatchES2_
__ZN4llvm14RegisterTargetILNS_6Triple8ArchTypeE2ELb1EE12getArchMatchES2_
__ZN4llvm14RegisterTargetILNS_6Triple8ArchTypeE1ELb1EE12getArchMatchES2_
__ZN4llvm14RegisterTargetILNS_6Triple8ArchTypeE27ELb1EE12getArchMatchES2_
__ZN4llvm14RegisterTargetILNS_6Triple8ArchTypeE26ELb1EE12getArchMatchES2_
__ZN4llvm2cl23ParseCommandLineOptionsEiPKPKcS2_
__ZN4llvm9join_implINSt3__111__wrap_iterIPKNS1_12basic_stringIcNS1_11char_traitsIcEENS1_9allocatorIcEEEEEEEES8_T_SC_NS_9StringRefENS1_20forward_iterator_tagE
__ZN4llvm11TargetRecipC2Ev
__ZN4llvm21RegisterTargetMachineINS_22AArch64leTargetMachineEE9AllocatorERKNS_6TargetERKNS_6TripleENS_9StringRefES9_RKNS_13TargetOptionsENS_5Reloc5ModelENS_9CodeModel5ModelENS_10CodeGenOpt5LevelE
__ZN4llvm20AArch64TargetMachineC2ERKNS_6TargetERKNS_6TripleENS_9StringRefES7_RKNS_13TargetOptionsENS_5Reloc5ModelENS_9CodeModel5ModelENS_10CodeGenOpt5LevelEb
__ZNSt3__16__treeINS_12__value_typeIN4llvm9StringRefENS2_11TargetRecip11RecipParamsEEENS_19__map_value_compareIS3_S6_NS_4lessIS3_EELb1EEENS_9allocatorIS6_EEE12__find_equalIS6_EERPNS_16__tree_node_baseIPvEENS_21__tree_const_iteratorIS6_PNS_11__tree_nodeIS6_SG_EElEESJ_RKT_
__ZN4llvm17LLVMTargetMachineC2ERKNS_6TargetENS_9StringRefERKNS_6TripleES4_S4_NS_13TargetOptionsENS_5Reloc5ModelENS_9CodeModel5ModelENS_10CodeGenOpt5LevelE
__ZL26createAArch64MCCodeGenInfoRKN4llvm6TripleENS_5Reloc5ModelENS_9CodeModel5ModelENS_10CodeGenOpt5LevelE
__ZNSt3__16__treeIjNS_4lessIjEENS_9allocatorIjEEE7destroyEPNS_11__tree_nodeIjPvEE
__ZN4llvm17LLVMTargetMachine11initAsmInfoEv
__ZL27createAArch64MCRegisterInfoRKN4llvm6TripleE
__ZL24createAArch64MCInstrInfov
__ZL28createAArch64MCSubtargetInfoRKN4llvm6TripleENS_9StringRefES3_
__ZN4llvm15MCSubtargetInfo19InitMCProcessorInfoENS_9StringRefES1_
__ZN4llvm17SubtargetFeaturesC1ENS_9StringRefE
__ZN4llvm17SubtargetFeatures14getFeatureBitsENS_9StringRefENS_8ArrayRefINS_18SubtargetFeatureKVEEES4_
__ZL4FindN4llvm9StringRefENS_8ArrayRefINS_18SubtargetFeatureKVEEE
__ZL14SetImpliedBitsRN4llvm13FeatureBitsetEPKNS_18SubtargetFeatureKVENS_8ArrayRefIS2_EE
__ZN4llvm17SubtargetFeatures16ApplyFeatureFlagERNS_13FeatureBitsetENS_9StringRefENS_8ArrayRefINS_18SubtargetFeatureKVEEE
__ZNK4llvm15MCSubtargetInfo19getSchedModelForCPUENS_9StringRefE
__ZL22createAArch64MCAsmInfoRKN4llvm14MCRegisterInfoERKNS_6TripleE
__ZN4llvm9MCAsmInfo20addInitialFrameStateERKNS_16MCCFIInstructionE
__ZNSt3__16vectorIN4llvm16MCCFIInstructionENS_9allocatorIS2_EEE21__push_back_slow_pathIRKS2_EEvOT_
__ZN4llvm10DataLayoutaSERKS0_
__ZN4llvm15SmallVectorImplINS_15LayoutAlignElemEEaSERKS2_
__ZN4llvm15SmallVectorImplINS_16PointerAlignElemEEaSERKS2_
__ZL10createTLIIRN4llvm6TripleERKN5clang14CodeGenOptionsE
__ZL10initializeRN4llvm21TargetLibraryInfoImplERKNS_6TripleENS_8ArrayRefIPKcEE
__ZN4llvm21TargetLibraryInfoImpl20setAvailableWithNameENS_7LibFunc4FuncENS_9StringRefE
__ZN4llvm12DenseMapBaseINS_8DenseMapIjNSt3__112basic_stringIcNS2_11char_traitsIcEENS2_9allocatorIcEEEENS_12DenseMapInfoIjEENS_6detail12DenseMapPairIjS8_EEEEjS8_SA_SD_E20InsertIntoBucketImplERKjPSD_
__ZN4llvm8DenseMapIjNSt3__112basic_stringIcNS1_11char_traitsIcEENS1_9allocatorIcEEEENS_12DenseMapInfoIjEENS_6detail12DenseMapPairIjS7_EEE4growEj
__ZN4llvm27initializeAlwaysInlinerPassERNS_12PassRegistryE
__ZNK12_GLOBAL__N_118EmitAssemblyHelper18getPerModulePassesEv
__ZN4llvm17PMTopLevelManagerC2EPNS_13PMDataManagerE
__ZN4llvm7PMStack4pushEPNS_13PMDataManagerE
__ZN4llvm20AArch64TargetMachine19getTargetIRAnalysisEv
__ZN4llvm36createTargetTransformInfoWrapperPassENS_16TargetIRAnalysisE
__ZN4llvm6legacy11PassManager3addEPNS_4PassE
__ZN4llvm17PMTopLevelManager12schedulePassEPNS_4PassE
__ZN4llvm4Pass18preparePassManagerERNS_7PMStackE
__ZNK4llvm17PMTopLevelManager20findAnalysisPassInfoEPKv
__ZN4llvm17PMTopLevelManager16findAnalysisPassEPKv
__ZN4llvm17PMTopLevelManager17findAnalysisUsageEPNS_4PassE
__ZNK4llvm4Pass16getAnalysisUsageERNS_13AnalysisUsageE
__ZN4llvm17PMTopLevelManager16AUFoldingSetNode7ProfileERNS_16FoldingSetNodeIDERKNS_13AnalysisUsageE
__ZN4llvm8DenseMapIPNS_4PassEPNS_13AnalysisUsageENS_12DenseMapInfoIS2_EENS_6detail12DenseMapPairIS2_S4_EEE4growEj
__ZN4llvm13ImmutablePass18getAsImmutablePassEv
__ZThn440_N4llvm6legacy15PassManagerImpl18getAsPMDataManagerEv
__ZN4llvm13PMDataManager22initializeAnalysisImplEPNS_4PassE
__ZN4llvm13ImmutablePass14initializePassEv
__ZN4llvm12DenseMapBaseINS_13SmallDenseMapIPKvPNS_13ImmutablePassELj8ENS_12DenseMapInfoIS3_EENS_6detail12DenseMapPairIS3_S5_EEEES3_S5_S7_SA_E20InsertIntoBucketImplERKS3_PSA_
__ZN4llvm13PMDataManager23recordAvailableAnalysisEPNS_4PassE
__ZN4llvm12DenseMapBaseINS_8DenseMapIPKvPNS_4PassENS_12DenseMapInfoIS3_EENS_6detail12DenseMapPairIS3_S5_EEEES3_S5_S7_SA_E20InsertIntoBucketImplERKS3_PSA_
__ZN4llvm8DenseMapIPKvPNS_4PassENS_12DenseMapInfoIS2_EENS_6detail12DenseMapPairIS2_S4_EEE4growEj
__ZN4llvm18PassManagerBuilder12addExtensionENS0_16ExtensionPointTyEPFvRKS0_RNS_6legacy15PassManagerBaseEE
__ZN4llvm6legacy19FunctionPassManagerC1EPNS_6ModuleE
__ZN4llvm6legacy19FunctionPassManager3addEPNS_4PassE
__ZThn440_N4llvm6legacy23FunctionPassManagerImpl18getAsPMDataManagerEv
__ZN4llvm18PassManagerBuilder27populateFunctionPassManagerERNS_6legacy19FunctionPassManagerE
__ZNK4llvm18PassManagerBuilder17addExtensionsToPMENS0_16ExtensionPointTyERNS_6legacy15PassManagerBaseE
__ZN4llvm14object_creatorINS_11SmallVectorINSt3__14pairINS_18PassManagerBuilder16ExtensionPointTyEPFvRKS4_RNS_6legacy15PassManagerBaseEEEELj8EEEEEPvv
__ZL24addAddDiscriminatorsPassRKN4llvm18PassManagerBuilderERNS_6legacy15PassManagerBaseE
__ZNK4llvm10FoldingSetINS_17PMTopLevelManager16AUFoldingSetNodeEE10NodeEqualsEPNS_14FoldingSetImpl4NodeERKNS_16FoldingSetNodeIDEjRS7_
__ZN4llvm4Pass18getAsImmutablePassEv
__ZThn440_N4llvm6legacy23FunctionPassManagerImpl26getTopLevelPassManagerTypeEv
__ZN4llvm12FunctionPass17assignPassManagerERNS_7PMStackENS_15PassManagerTypeE
__ZThn32_NK4llvm13FPPassManager18getPassManagerTypeEv
__ZN4llvm13PMDataManager3addEPNS_4PassEb
__ZN4llvm4Pass18getAsPMDataManagerEv
__ZN4llvm17PMTopLevelManager11setLastUserENS_8ArrayRefIPNS_4PassEEES3_
__ZN4llvm12DenseMapBaseINS_8DenseMapIPNS_4PassES3_NS_12DenseMapInfoIS3_EENS_6detail12DenseMapPairIS3_S3_EEEES3_S3_S5_S8_E20InsertIntoBucketImplERKS3_PS8_
__ZN4llvm8DenseMapIPNS_4PassES2_NS_12DenseMapInfoIS2_EENS_6detail12DenseMapPairIS2_S2_EEE4growEj
__ZN4llvm13PMDataManager26removeNotPreservedAnalysisEPNS_4PassE
__ZN4llvm28TargetLibraryInfoWrapperPassC1ERKNS_21TargetLibraryInfoImplE
__ZNSt3__16vectorIN4llvm7VecDescENS_9allocatorIS2_EEE6assignIPS2_EENS_9enable_ifIXaasr21__is_forward_iteratorIT_EE5valuesr16is_constructibleIS2_NS_15iterator_traitsIS9_E9referenceEEE5valueEvE4typeES9_S9_
__ZN4llvm18PassManagerBuilder25populateModulePassManagerERNS_6legacy15PassManagerBaseE
__ZThn440_N4llvm6legacy15PassManagerImpl26getTopLevelPassManagerTypeEv
__ZN4llvm10ModulePass17assignPassManagerERNS_7PMStackENS_15PassManagerTypeE
__ZThn32_NK12_GLOBAL__N_113MPPassManager18getPassManagerTypeEv
__ZN4llvm18PassManagerBuilder17addPGOInstrPassesERNS_6legacy15PassManagerBaseE
__ZNK4llvm7Inliner16getAnalysisUsageERNS_13AnalysisUsageE
__ZN4llvm25getAAResultsAnalysisUsageERNS_13AnalysisUsageE
__ZNK4llvm16CallGraphSCCPass16getAnalysisUsageERNS_13AnalysisUsageE
__ZN4llvm15SmallVectorImplIPKvEaSERKS3_
__ZN4llvm15callDefaultCtorINS_22AssumptionCacheTrackerEEEPNS_4PassEv
__ZNK4llvm16CallGraphSCCPass27getPotentialPassManagerTypeEv
__ZNK4llvm10ModulePass27getPotentialPassManagerTypeEv
__ZN4llvm15callDefaultCtorINS_28TargetLibraryInfoWrapperPassEEEPNS_4PassEv
__ZN4llvm15callDefaultCtorINS_20CallGraphWrapperPassEEEPNS_4PassEv
__ZNK4llvm20CallGraphWrapperPass16getAnalysisUsageERNS_13AnalysisUsageE
__ZN4llvm16CallGraphSCCPass17assignPassManagerERNS_7PMStackENS_15PassManagerTypeE
__ZNK12_GLOBAL__N_113CGPassManager16getAnalysisUsageERN4llvm13AnalysisUsageE
__ZN12_GLOBAL__N_113CGPassManager18getAsPMDataManagerEv
__ZThn32_N12_GLOBAL__N_113MPPassManager9getAsPassEv
__ZThn32_N12_GLOBAL__N_113CGPassManager9getAsPassEv
__ZN4llvm21createBarrierNoopPassEv
__ZThn32_NK12_GLOBAL__N_113CGPassManager18getPassManagerTypeEv
__ZN4llvm17LLVMTargetMachine19addPassesToEmitFileERNS_6legacy15PassManagerBaseERNS_17raw_pwrite_streamENS_13TargetMachine15CodeGenFileTypeEbPKvS9_S9_PNS_26MachineFunctionInitializerE
__ZL23addPassesToGenerateCodePN4llvm17LLVMTargetMachineERNS_6legacy15PassManagerBaseEbPKvS6_S6_PNS_26MachineFunctionInitializerE
__ZN4llvm30TargetTransformInfoWrapperPassD0Ev
__ZN4llvm20AArch64TargetMachine16createPassConfigERNS_6legacy15PassManagerBaseE
__ZN4llvm16TargetPassConfigC2EPNS_13TargetMachineERNS_6legacy15PassManagerBaseE
__ZN4llvm33initializeMachineTraceMetricsPassERNS_12PassRegistryE
__ZN4llvm32initializeLiveDebugVariablesPassERNS_12PassRegistryE
__ZN4llvm27initializeLiveIntervalsPassERNS_12PassRegistryE
__ZN4llvm34initializeAAResultsWrapperPassPassERNS_12PassRegistryE
__ZN4llvm32initializeBasicAAWrapperPassPassERNS_12PassRegistryE
__ZN4llvm34initializeGlobalsAAWrapperPassPassERNS_12PassRegistryE
__ZN4llvm40initializeScalarEvolutionWrapperPassPassERNS_12PassRegistryE
__ZN4llvm12DenseMapBaseINS_8DenseMapIPKvPKNS_8PassInfoENS_12DenseMapInfoIS3_EENS_6detail12DenseMapPairIS3_S6_EEEES3_S6_S8_SB_E18moveFromOldBucketsEPSB_SE_
__ZN4llvm39initializeMachineBlockFrequencyInfoPassERNS_12PassRegistryE
__ZN4llvm35initializeMachineBlockPlacementPassERNS_12PassRegistryE
__ZN4llvm40initializeMachineBlockPlacementStatsPassERNS_12PassRegistryE
__ZN4llvm24initializeMachineCSEPassERNS_12PassRegistryE
__ZN4llvm25initializeMachineLICMPassERNS_12PassRegistryE
__ZN4llvm30initializeMachineSchedulerPassERNS_12PassRegistryE
__ZN4llvm28initializeMachineSinkingPassERNS_12PassRegistryE
__ZN4llvm17initializePEIPassERNS_12PassRegistryE
__ZN4llvm31initializeRegisterCoalescerPassERNS_12PassRegistryE
__ZN4llvm24initializeShrinkWrapPassERNS_12PassRegistryE
__ZN4llvm27initializeStackColoringPassERNS_12PassRegistryE
__ZN4llvm31initializeStackSlotColoringPassERNS_12PassRegistryE
__ZN4llvm12DenseMapBaseINS_8DenseMapIPKvNS_18IdentifyingPassPtrENS_12DenseMapInfoIS3_EENS_6detail12DenseMapPairIS3_S4_EEEES3_S4_S6_S9_E20InsertIntoBucketImplERKS3_PS9_
__ZN4llvm8DenseMapIPKvNS_18IdentifyingPassPtrENS_12DenseMapInfoIS2_EENS_6detail12DenseMapPairIS2_S3_EEE4growEj
__ZN12_GLOBAL__N_117AArch64PassConfig11addIRPassesEv
__ZN4llvm16TargetPassConfig7addPassEPNS_4PassEbb
__ZNK4llvm13FPPassManager16getAnalysisUsageERNS_13AnalysisUsageE
__ZN4llvm13FPPassManager18getAsPMDataManagerEv
__ZN4llvm16TargetPassConfig11addIRPassesEv
__ZNK4llvm22TypeBasedAAWrapperPass16getAnalysisUsageERNS_13AnalysisUsageE
__ZNK4llvm26ScopedNoAliasAAWrapperPass16getAnalysisUsageERNS_13AnalysisUsageE
__ZNK4llvm18BasicAAWrapperPass16getAnalysisUsageERNS_13AnalysisUsageE
__ZNK4llvm12FunctionPass27getPotentialPassManagerTypeEv
__ZN4llvm13SmallDenseMapIPKvPNS_13ImmutablePassELj8ENS_12DenseMapInfoIS2_EENS_6detail12DenseMapPairIS2_S4_EEE4growEj
__ZThn32_N4llvm13FPPassManager9getAsPassEv
__ZNK12_GLOBAL__N_115LowerIntrinsics16getAnalysisUsageERN4llvm13AnalysisUsageE
__ZN4llvm15callDefaultCtorINS_12GCModuleInfoEEEPNS_4PassEv
__ZNK12_GLOBAL__N_120UnreachableBlockElim16getAnalysisUsageERN4llvm13AnalysisUsageE
__ZN4llvm16TargetPassConfig17addCodeGenPrepareEv
__ZN12_GLOBAL__N_114RewriteSymbolsC1Ev
__ZNK12_GLOBAL__N_114DwarfEHPrepare16getAnalysisUsageERN4llvm13AnalysisUsageE
__ZN4llvm15callDefaultCtorINS_24DominatorTreeWrapperPassEEEPNS_4PassEv
__ZNK4llvm24DominatorTreeWrapperPass16getAnalysisUsageERNS_13AnalysisUsageE
__ZN4llvm16TargetPassConfig14addISelPrepareEv
__ZN12_GLOBAL__N_117AArch64PassConfig10addPreISelEv
__ZNK12_GLOBAL__N_19SafeStack16getAnalysisUsageERN4llvm13AnalysisUsageE
__ZN4llvm15callDefaultCtorINS_26ScalarEvolutionWrapperPassEEEPNS_4PassEv
__ZNK4llvm26ScalarEvolutionWrapperPass16getAnalysisUsageERNS_13AnalysisUsageE
__ZN4llvm15callDefaultCtorINS_19LoopInfoWrapperPassEEEPNS_4PassEv
__ZNK4llvm19LoopInfoWrapperPass16getAnalysisUsageERNS_13AnalysisUsageE
__ZN4llvm12DenseMapBaseINS_8DenseMapINS_18ValueMapCallbackVHIPKNS_10AllocaInstENS_14StackProtector13SSPLayoutKindENS_14ValueMapConfigIS5_NS_3sys10SmartMutexILb0EEEEEEES7_NS_12DenseMapInfoISD_EENS_6detail12DenseMapPairISD_S7_EEEESD_S7_SF_SI_E9initEmptyEv
__ZNK4llvm14StackProtector16getAnalysisUsageERNS_13AnalysisUsageE
__ZNK4llvm20AArch64TargetMachine18getObjFileLoweringEv
__ZN4llvm9MCContextC1EPKNS_9MCAsmInfoEPKNS_14MCRegisterInfoEPKNS_16MCObjectFileInfoEPKNS_9SourceMgrEb
__ZN4llvm3sys2fs12current_pathERNS_15SmallVectorImplIcEE
__ZNK4llvm23MachineFunctionAnalysis16getAnalysisUsageERNS_13AnalysisUsageE
__ZN12_GLOBAL__N_117AArch64PassConfig15addInstSelectorEv
__ZN4llvm16SelectionDAGISelC2ERNS_13TargetMachineENS_10CodeGenOpt5LevelE
__ZN4llvm14object_creatorIN12_GLOBAL__N_18EVTArrayEEEPvv
__ZNK4llvm16SelectionDAGISel16getAnalysisUsageERNS_13AnalysisUsageE
__ZNK4llvm19MachineFunctionPass16getAnalysisUsageERNS_13AnalysisUsageE
__ZN4llvm15callDefaultCtorINS_20AAResultsWrapperPassEEEPNS_4PassEv
__ZNK4llvm20AAResultsWrapperPass16getAnalysisUsageERNS_13AnalysisUsageE
__ZN4llvm15callDefaultCtorINS_18BasicAAWrapperPassEEEPNS_4PassEv
__ZN4llvm16TargetPassConfig16addMachinePassesEv
__ZN4llvm16TargetPassConfig7addPassEPKvbb
__ZN4llvm15callDefaultCtorIN12_GLOBAL__N_117ExpandISelPseudosEEEPNS_4PassEv
__ZNK4llvm4Pass11getPassNameEv
__ZNK12_GLOBAL__N_117ExpandISelPseudos16getAnalysisUsageERN4llvm13AnalysisUsageE
__ZN4llvm15callDefaultCtorIN12_GLOBAL__N_118LocalStackSlotPassEEEPNS_4PassEv
__ZNK12_GLOBAL__N_118LocalStackSlotPass16getAnalysisUsageERN4llvm13AnalysisUsageE
__ZN12_GLOBAL__N_116GetCFGOnlyPasses13passEnumerateEPKN4llvm8PassInfoE
__ZN12_GLOBAL__N_117AArch64PassConfig14addPreRegAllocEv
__ZN4llvm16TargetPassConfig29createTargetRegisterAllocatorEb
__ZN4llvm16TargetPassConfig15addFastRegAllocEPNS_12FunctionPassE
__ZN4llvm15callDefaultCtorIN12_GLOBAL__N_114PHIEliminationEEEPNS_4PassEv
__ZNK12_GLOBAL__N_114PHIElimination16getAnalysisUsageERN4llvm13AnalysisUsageE
__ZN4llvm15callDefaultCtorIN12_GLOBAL__N_125TwoAddressInstructionPassEEEPNS_4PassEv
__ZNK12_GLOBAL__N_125TwoAddressInstructionPass16getAnalysisUsageERN4llvm13AnalysisUsageE
__ZNK12_GLOBAL__N_16RAFast11getPassNameEv
__ZNK12_GLOBAL__N_16RAFast16getAnalysisUsageERN4llvm13AnalysisUsageE
__ZN12_GLOBAL__N_117AArch64PassConfig15addPostRegAllocEv
__ZN4llvm15callDefaultCtorIN12_GLOBAL__N_13PEIEEEPNS_4PassEv
__ZNK12_GLOBAL__N_13PEI16getAnalysisUsageERN4llvm13AnalysisUsageE
__ZN4llvm15callDefaultCtorIN12_GLOBAL__N_112ExpandPostRAEEEPNS_4PassEv
__ZNK12_GLOBAL__N_112ExpandPostRA16getAnalysisUsageERN4llvm13AnalysisUsageE
__ZN12_GLOBAL__N_117AArch64PassConfig12addPreSched2Ev
__ZNK12_GLOBAL__N_119AArch64ExpandPseudo11getPassNameEv
__ZN4llvm16TargetPassConfig11addGCPassesEv
__ZN4llvm15callDefaultCtorIN12_GLOBAL__N_121GCMachineCodeAnalysisEEEPNS_4PassEv
__ZNK12_GLOBAL__N_121GCMachineCodeAnalysis16getAnalysisUsageERN4llvm13AnalysisUsageE
__ZN12_GLOBAL__N_117AArch64PassConfig14addPreEmitPassEv
__ZNK12_GLOBAL__N_123AArch64BranchRelaxation11getPassNameEv
__ZN4llvm15callDefaultCtorIN12_GLOBAL__N_113FuncletLayoutEEEPNS_4PassEv
__ZN4llvm15callDefaultCtorIN12_GLOBAL__N_116StackMapLivenessEEEPNS_4PassEv
__ZNK12_GLOBAL__N_116StackMapLiveness16getAnalysisUsageERN4llvm13AnalysisUsageE
__ZN4llvm15callDefaultCtorIN12_GLOBAL__N_115LiveDebugValuesEEEPNS_4PassEv
__ZNK12_GLOBAL__N_115LiveDebugValues16getAnalysisUsageERN4llvm13AnalysisUsageE
__ZN4llvm26createAArch64MCCodeEmitterERKNS_11MCInstrInfoERKNS_14MCRegisterInfoERNS_9MCContextE
__ZN4llvm25createAArch64leAsmBackendERKNS_6TargetERKNS_14MCRegisterInfoERKNS_6TripleENS_9StringRefE
__ZNK4llvm6Target22createMCObjectStreamerERKNS_6TripleERNS_9MCContextERNS_12MCAsmBackendERNS_17raw_pwrite_streamEPNS_13MCCodeEmitterERKNS_15MCSubtargetInfoEbbb
__ZL19createMachOStreamerRN4llvm9MCContextERNS_12MCAsmBackendERNS_17raw_pwrite_streamEPNS_13MCCodeEmitterEbb
__ZN4llvm19createMachOStreamerERNS_9MCContextERNS_12MCAsmBackendERNS_17raw_pwrite_streamEPNS_13MCCodeEmitterEbbb
__ZNK12_GLOBAL__N_123DarwinAArch64AsmBackend18createObjectWriterERN4llvm17raw_pwrite_streamE
__ZN4llvm33createAArch64ObjectTargetStreamerERNS_10MCStreamerERKNS_15MCSubtargetInfoE
__ZN4llvm18RegisterAsmPrinterIN12_GLOBAL__N_117AArch64AsmPrinterEE9AllocatorERNS_13TargetMachineEONSt3__110unique_ptrINS_10MCStreamerENS6_14default_deleteIS8_EEEE
__ZNK4llvm10MCStreamer12isVerboseAsmEv
__ZNK12_GLOBAL__N_117AArch64AsmPrinter16getAnalysisUsageERN4llvm13AnalysisUsageE
__ZN4llvm6legacy23FunctionPassManagerImpl16doInitializationERNS_6ModuleE
__ZNK4llvm17PMTopLevelManager13dumpArgumentsEv
__ZN4llvm4Pass16doInitializationERNS_6ModuleE
__ZN4llvm13FPPassManager16doInitializationERNS_6ModuleE
__ZN4llvm6legacy19FunctionPassManager3runERNS_8FunctionE
__ZN4llvm6legacy23FunctionPassManagerImpl3runERNS_8FunctionE
__ZN4llvm17PMTopLevelManager25initializeAllAnalysisInfoEv
__ZN4llvm8DenseMapIPNS_4PassENS_11SmallPtrSetIS2_Lj8EEENS_12DenseMapInfoIS2_EENS_6detail12DenseMapPairIS2_S4_EEE4growEj
__ZN4llvm13FPPassManager13runOnFunctionERNS_8FunctionE
__ZN4llvm13PMDataManager12dumpPassInfoEPNS_4PassENS_19PassDebuggingStringES3_NS_9StringRefE
__ZNK4llvm13PMDataManager15dumpRequiredSetEPKNS_4PassE
__ZN4llvm12getPassTimerEPNS_4PassE
__ZN12_GLOBAL__N_117AddDiscriminators13runOnFunctionERN4llvm8FunctionE
__ZNK4llvm6Module13getModuleFlagENS_9StringRefE
__ZNK4llvm6Module22getModuleFlagsMetadataERNS_15SmallVectorImplINS0_15ModuleFlagEntryEEE
__ZNK4llvm6Module22getModuleFlagsMetadataEv
__ZNK4llvm13PMDataManager16dumpPreservedSetEPKNS_4PassE
__ZNK4llvm13PMDataManager11dumpUsedSetEPKNS_4PassE
__ZN4llvm13PMDataManager16removeDeadPassesEPNS_4PassENS_9StringRefENS_19PassDebuggingStringE
__ZN4llvm17PMTopLevelManager15collectLastUsesERNS_15SmallVectorImplIPNS_4PassEEES3_
__ZN4llvm13PMDataManager8freePassEPNS_4PassENS_9StringRefENS_19PassDebuggingStringE
__ZN4llvm4Pass13releaseMemoryEv
__ZN4llvm6legacy23FunctionPassManagerImpl14doFinalizationERNS_6ModuleE
__ZN4llvm13FPPassManager14doFinalizationERNS_6ModuleE
__ZN4llvm4Pass14doFinalizationERNS_6ModuleE
__ZN4llvm6legacy11PassManager3runERNS_6ModuleE
__ZN12_GLOBAL__N_128ForceFunctionAttrsLegacyPass11runOnModuleERN4llvm6ModuleE
__ZN4llvm20CallGraphWrapperPass11runOnModuleERNS_6ModuleE
__ZN4llvm9CallGraph19getOrInsertFunctionEPKNS_8FunctionE
__ZNSt3__16vectorINS_4pairIN4llvm6WeakVHEPNS2_13CallGraphNodeEEENS_9allocatorIS6_EEE24__emplace_back_slow_pathIJPNS2_11InstructionERS5_EEEvDpOT_
__ZN12_GLOBAL__N_113CGPassManager11runOnModuleERN4llvm6ModuleE
__ZN4llvm4Pass26getAdjustedAnalysisPointerEPKv
__ZN4llvm16CallGraphSCCPass16doInitializationERNS_9CallGraphE
__ZN4llvm12scc_iteratorIPNS_9CallGraphENS_11GraphTraitsIS2_EEE11DFSVisitOneEPNS_13CallGraphNodeE
__ZN4llvm12DenseMapBaseINS_8DenseMapIPNS_13CallGraphNodeEjNS_12DenseMapInfoIS3_EENS_6detail12DenseMapPairIS3_jEEEES3_jS5_S8_E20InsertIntoBucketImplERKS3_PS8_
__ZN4llvm8DenseMapIPNS_13CallGraphNodeEjNS_12DenseMapInfoIS2_EENS_6detail12DenseMapPairIS2_jEEE4growEj
__ZNSt3__16vectorIPN4llvm13CallGraphNodeENS_9allocatorIS3_EEE21__push_back_slow_pathIRKS3_EEvOT_
__ZNSt3__16vectorIN4llvm12scc_iteratorIPNS1_9CallGraphENS1_11GraphTraitsIS4_EEE12StackElementENS_9allocatorIS8_EEE21__push_back_slow_pathIS8_EEvOT_
__ZN4llvm12scc_iteratorIPNS_9CallGraphENS_11GraphTraitsIS2_EEE10GetNextSCCEv
__ZN4llvm12scc_iteratorIPNS_9CallGraphENS_11GraphTraitsIS2_EEE16DFSVisitChildrenEv
__ZNK4llvm15mapped_iteratorINSt3__111__wrap_iterIPNS1_4pairINS_6WeakVHEPNS_13CallGraphNodeEEEEENS1_25pointer_to_unary_functionIS7_S6_EEEdeEv
__ZN4llvm11GraphTraitsIPNS_13CallGraphNodeEE8CGNDerefENSt3__14pairINS_6WeakVHES2_EE
__ZN4llvm7Inliner8runOnSCCERNS_12CallGraphSCCE
__ZN4llvm26isInstructionTriviallyDeadEPNS_11InstructionEPKNS_17TargetLibraryInfoE
__ZN12_GLOBAL__N_113AlwaysInliner13getInlineCostEN4llvm8CallSiteE
__ZNK4llvm17OperandBundleUserINS_8CallInstEPNS_3UseEE28isFnAttrDisallowedByOpBundleENS_9Attribute8AttrKindE
__ZN4llvm11LLVMContext8diagnoseERKNS_14DiagnosticInfoE
__ZN5clang15BackendConsumer17DiagnosticHandlerERKN4llvm14DiagnosticInfoEPv
__ZNK4llvm8CallInst15onlyReadsMemoryEv
__ZNK4llvm8CallInst19doesNotAccessMemoryEv
__ZL17getAllocationDataPKN4llvm5ValueE9AllocTypePKNS_17TargetLibraryInfoEb
__ZN4llvm10isFreeCallEPKNS_5ValueEPKNS_17TargetLibraryInfoE
__ZNK4llvm21TargetLibraryInfoImpl10getLibFuncENS_9StringRefERNS_7LibFunc4FuncE
__ZN4llvm12DenseMapBaseINS_8DenseMapIPNS_13CallGraphNodeEjNS_12DenseMapInfoIS3_EENS_6detail12DenseMapPairIS3_jEEEES3_jS5_S8_E18moveFromOldBucketsEPS8_SB_
__ZN12_GLOBAL__N_113AlwaysInliner14doFinalizationERN4llvm9CallGraphE
__ZN4llvm7Inliner19removeDeadFunctionsERNS_9CallGraphEb
__ZN4llvm22AssumptionCacheTracker13releaseMemoryEv
__ZN4llvm12DenseMapBaseINS_8DenseMapINS_22AssumptionCacheTracker18FunctionCallbackVHENSt3__110unique_ptrINS_15AssumptionCacheENS4_14default_deleteIS6_EEEENS_12DenseMapInfoIPNS_5ValueEEENS_6detail12DenseMapPairIS3_S9_EEEES3_S9_SD_SG_E10destroyAllEv
__ZN4llvm20CallGraphWrapperPass13releaseMemoryEv
__ZN4llvm9CallGraphD2Ev
__ZNSt3__16__treeINS_12__value_typeIPKN4llvm8FunctionENS_10unique_ptrINS2_13CallGraphNodeENS_14default_deleteIS7_EEEEEENS_19__map_value_compareIS5_SB_NS_4lessIS5_EELb1EEENS_9allocatorISB_EEE7destroyEPNS_11__tree_nodeISB_PvEE
__ZN12_GLOBAL__N_111BarrierNoop11runOnModuleERN4llvm6ModuleE
__ZN4llvm22AssumptionCacheTracker14doFinalizationERNS_6ModuleE
__ZNK4llvm22AssumptionCacheTracker14verifyAnalysisEv
__ZN4llvm22TypeBasedAAWrapperPass16doInitializationERNS_6ModuleE
__ZN4llvm26ScopedNoAliasAAWrapperPass16doInitializationERNS_6ModuleE
__ZN4llvm17MachineModuleInfo16doInitializationERNS_6ModuleE
__ZN12_GLOBAL__N_115LowerIntrinsics16doInitializationERN4llvm6ModuleE
__ZN12_GLOBAL__N_121ShadowStackGCLowering16doInitializationERN4llvm6ModuleE
__ZN12_GLOBAL__N_19SafeStack16doInitializationERN4llvm6ModuleE
__ZN4llvm23MachineFunctionAnalysis16doInitializationERNS_6ModuleE
__ZN4llvm10AsmPrinter16doInitializationERNS_6ModuleE
__ZN4llvm24TargetLoweringObjectFile10InitializeERNS_9MCContextERKNS_13TargetMachineE
__ZN4llvm16MCObjectFileInfo20InitMCObjectFileInfoERKNS_6TripleENS_5Reloc5ModelENS_9CodeModel5ModelERNS_9MCContextE
__ZN4llvm9MCContext15getMachOSectionENS_9StringRefES1_jjNS_11SectionKindEPKc
__ZN4llvm9MCContext16createTempSymbolERKNS_5TwineEbb
__ZN4llvm9MCContext12createSymbolENS_9StringRefEbb
__ZN4llvm9MCContext16createSymbolImplEPKNS_14StringMapEntryIbEEb
__ZN4llvm10MCStreamer12InitSectionsEb
__ZN4llvm10MCStreamer13SwitchSectionEPNS_9MCSectionEPKNS_6MCExprE
__ZN12_GLOBAL__N_115MCMachOStreamer13ChangeSectionEPN4llvm9MCSectionEPKNS1_6MCExprE
__ZN4llvm16MCObjectStreamer17changeSectionImplEPNS_9MCSectionEPKNS_6MCExprE
__ZN4llvm16MCObjectStreamer18flushPendingLabelsEPNS_10MCFragmentEy
__ZN4llvm11MCAssembler15registerSectionERNS_9MCSectionE
__ZN4llvm12DenseMapBaseINS_8DenseMapIPKNS_9MCSectionEbNS_12DenseMapInfoIS4_EENS_6detail12DenseMapPairIS4_bEEEES4_bS6_S9_E20InsertIntoBucketImplERKS4_PS9_
__ZN4llvm8DenseMapIPKNS_9MCSectionEbNS_12DenseMapInfoIS3_EENS_6detail12DenseMapPairIS3_bEEE4growEj
__ZN4llvm9MCContext29createLinkerPrivateTempSymbolEv
__ZN4llvm9StringMapIjNS_15MallocAllocatorEE14emplace_secondIJEEENSt3__14pairINS_17StringMapIteratorIjEEbEENS_9StringRefEDpOT_
__ZN4llvm9StringMapIbRNS_20BumpPtrAllocatorImplINS_15MallocAllocatorELm4096ELm4096EEEE14emplace_secondIJbEEENSt3__14pairINS_17StringMapIteratorIbEEbEENS_9StringRefEDpOT_
__ZNK4llvm8MCSymbol11isInSectionEb
__ZN12_GLOBAL__N_115MCMachOStreamer9EmitLabelEPN4llvm8MCSymbolE
__ZN4llvm16MCObjectStreamer9EmitLabelEPNS_8MCSymbolE
__ZN4llvm11MCAssembler14registerSymbolERKNS_8MCSymbolEPb
__ZN12_GLOBAL__N_115MCMachOStreamer14EmitVersionMinEN4llvm16MCVersionMinTypeEjjj
__ZN4llvm10AsmPrinter18EmitStartOfAsmFileERNS_6ModuleE
__ZN4llvm10DwarfDebugC1EPNS_10AsmPrinterEPNS_6ModuleE
__ZN4llvm18DIEDwarfAccelTableC1Eb
__ZN4llvm16NamedRegionTimerC1ENS_9StringRefES1_b
__ZN4llvm16DwarfCompileUnitC1EjPKNS_13DICompileUnitEPNS_10AsmPrinterEPNS_10DwarfDebugEPNS_9DwarfFileE
__ZN4llvm9DwarfUnit9insertDIEEPKNS_6DINodeEPNS_3DIEE
__ZN4llvm12DenseMapBaseINS_8DenseMapIPKNS_6MDNodeEPNS_3DIEENS_12DenseMapInfoIS4_EENS_6detail12DenseMapPairIS4_S6_EEEES4_S6_S8_SB_E20InsertIntoBucketImplERKS4_PSB_
__ZN4llvm8DenseMapIPKNS_6MDNodeEPNS_3DIEENS_12DenseMapInfoIS3_EENS_6detail12DenseMapPairIS3_S5_EEE4growEj
__ZN4llvm9DwarfFile7addUnitENSt3__110unique_ptrINS_9DwarfUnitENS1_14default_deleteIS3_EEEE
__ZNK4llvm10MCStreamer17hasRawTextSupportEv
__ZNSt3__13mapIjN4llvm16MCDwarfLineTableENS_4lessIjEENS_9allocatorINS_4pairIKjS2_EEEEEixERS7_
__ZNK4llvm16DwarfCompileUnit9isDwoUnitEv
__ZN4llvm15DwarfStringPool8getEntryERNS_10AsmPrinterENS_9StringRefE
__ZN4llvm12DIEValueList8addValueERNS_20BumpPtrAllocatorImplINS_15MallocAllocatorELm4096ELm4096EEENS_8DIEValueE
__ZN4llvm16DwarfCompileUnit12initStmtListEv
__ZN4llvm10MCStreamer23getDwarfLineTableSymbolEj
__ZN4llvm9MCContext17getOrCreateSymbolERKNS_5TwineE
__ZN4llvm9StringMapIPNS_8MCSymbolERNS_20BumpPtrAllocatorImplINS_15MallocAllocatorELm4096ELm4096EEEE14emplace_secondIJEEENSt3__14pairINS_17StringMapIteratorIS2_EEbEENS_9StringRefEDpOT_
__ZN4llvm12DenseMapBaseINS_8DenseMapIPKNS_6MDNodeEjNS_12DenseMapInfoIS4_EENS_6detail12DenseMapPairIS4_jEEEES4_jS6_S9_E20InsertIntoBucketImplERKS4_PS9_
__ZN4llvm8DenseMapIPKNS_6MDNodeEjNS_12DenseMapInfoIS3_EENS_6detail12DenseMapPairIS3_jEEE4growEj
__ZN4llvm8DenseMapIPKNS_3DIEEPNS_16DwarfCompileUnitENS_12DenseMapInfoIS3_EENS_6detail12DenseMapPairIS3_S5_EEE4growEj
__ZN4llvm16DwarfCompileUnit28getOrCreateGlobalVariableDIEEPKNS_16DIGlobalVariableE
__ZNK4llvm9DwarfUnit6getDIEEPKNS_6DINodeE
__ZN4llvm9DwarfUnit21getOrCreateContextDIEEPKNS_7DIScopeE
__ZN4llvm9DwarfUnit18getOrCreateTypeDIEEPKNS_6MDNodeE
__ZN4llvm9DwarfUnit23updateAcceleratorTablesEPKNS_7DIScopeEPKNS_6DITypeERKNS_3DIEE
__ZN4llvm18DIEDwarfAccelTable7AddNameENS_23DwarfStringPoolEntryRefEPKNS_3DIEE
__ZN4llvm9StringMapINS_15DwarfAccelTable9DataArrayERNS_20BumpPtrAllocatorImplINS_15MallocAllocatorELm4096ELm4096EEEE14emplace_secondIJEEENSt3__14pairINS_17StringMapIteratorIS2_EEbEENS_9StringRefEDpOT_
__ZN4llvm16DwarfCompileUnit13addGlobalTypeEPKNS_6DITypeERKNS_3DIEEPKNS_7DIScopeE
__ZNK4llvm9DwarfUnit22getParentContextStringEPKNS_7DIScopeE
__ZN4llvm9StringMapIPKNS_3DIEENS_15MallocAllocatorEE14emplace_secondIJEEENSt3__14pairINS_17StringMapIteratorIS3_EEbEENS_9StringRefEDpOT_
__ZN4llvm9DwarfUnit13addSourceLineERNS_3DIEEPKNS_16DIGlobalVariableE
__ZN4llvm16DwarfCompileUnit19getOrCreateSourceIDENS_9StringRefES1_
__ZN4llvm10MCStreamer22EmitDwarfFileDirectiveEjNS_9StringRefES1_j
__ZN4llvm22MCDwarfLineTableHeader7getFileERNS_9StringRefES2_j
__ZN4llvm16DwarfCompileUnit13addGlobalNameENS_9StringRefERNS_3DIEEPKNS_7DIScopeE
__ZNK4llvm13TargetMachine9getSymbolEPKNS_11GlobalValueERNS_7ManglerE
__ZNK4llvm7Mangler17getNameWithPrefixERNS_11raw_ostreamEPKNS_11GlobalValueEb
__ZL21getNameWithPrefixImplRN4llvm11raw_ostreamERKNS_5TwineEN12_GLOBAL__N_115ManglerPrefixTyERKNS_10DataLayoutEc
__ZNSt3__16vectorIN4llvm8SymbolCUENS_9allocatorIS2_EEE21__push_back_slow_pathIRKS2_EEvOT_
__ZN4llvm9DwarfUnit12addOpAddressERNS_6DIELocEPKNS_8MCSymbolE
__ZN4llvm9DwarfUnit8addBlockERNS_3DIEENS_5dwarf9AttributeEPNS_6DIELocE
__ZNK4llvm8DIEValue6SizeOfEPKNS_10AsmPrinterE
__ZNK4llvm10DIEInteger6SizeOfEPKNS_10AsmPrinterENS_5dwarf4FormE
__ZN4llvm9DwarfUnit13addSourceLineERNS_3DIEEPKNS_6DITypeE
__ZN4llvm9DwarfUnit16constructTypeDIEERNS_3DIEEPKNS_15DICompositeTypeE
__ZN4llvm13FPPassManager11runOnModuleERNS_6ModuleE
__ZN12_GLOBAL__N_112AtomicExpand13runOnFunctionERN4llvm8FunctionE
__ZNK4llvm20AArch64TargetMachine16getSubtargetImplERKNS_8FunctionE
__ZNK4llvm12AttributeSet12getAttributeEjNS_9StringRefE
__ZNK4llvm13TargetMachine18resetTargetOptionsERKNS_8FunctionE
__ZNK4llvm12AttributeSet12hasAttributeEjNS_9StringRefE
__ZN4llvm14TargetLoweringC2ERKNS_13TargetMachineE
__ZN4llvm21AArch64TargetLowering14addTypeForNEONENS_3EVTES1_
__ZNSt3__13mapINS_4pairIjN4llvm3MVT15SimpleValueTypeEEES4_NS_4lessIS5_EENS_9allocatorINS1_IKS5_S4_EEEEEixEOS5_
__ZNK4llvm16AArch64Subtarget15getRegisterInfoEv
__ZNK4llvm16AArch64Subtarget12getInstrInfoEv
__ZN4llvm18TargetLoweringBase25computeRegisterPropertiesEPKNS_18TargetRegisterInfoE
__ZNK4llvm21AArch64TargetLowering24getPreferredVectorActionENS_3EVTE
__ZN4llvm3MVT11getVectorVTES0_j
__ZNK4llvm18TargetLoweringBase23findRepresentativeClassEPKNS_18TargetRegisterInfoENS_3MVTE
__ZNK4llvm19TargetSubtargetInfo18enableAtomicExpandEv
__ZNK4llvm16AArch64Subtarget17getTargetLoweringEv
__ZN4llvm18BasicAAWrapperPass13runOnFunctionERNS_8FunctionE
__ZN4llvm22AssumptionCacheTracker18getAssumptionCacheERNS_8FunctionE
__ZN4llvm8DenseMapINS_22AssumptionCacheTracker18FunctionCallbackVHENSt3__110unique_ptrINS_15AssumptionCacheENS3_14default_deleteIS5_EEEENS_12DenseMapInfoIPNS_5ValueEEENS_6detail12DenseMapPairIS2_S8_EEE4growEj
__ZN12_GLOBAL__N_115LowerIntrinsics13runOnFunctionERN4llvm8FunctionE
__ZN12_GLOBAL__N_121ShadowStackGCLowering13runOnFunctionERN4llvm8FunctionE
__ZN12_GLOBAL__N_120UnreachableBlockElim13runOnFunctionERN4llvm8FunctionE
__ZNSt3__16vectorINS_4pairIPKN4llvm10BasicBlockENS2_14TerminatorInst12SuccIteratorIPKS6_S4_EEEENS_9allocatorISB_EEE21__push_back_slow_pathISB_EEvOT_
__ZNK4llvm10ReturnInst17getNumSuccessorsVEv
__ZNK4llvm10SwitchInst17getNumSuccessorsVEv
__ZNK4llvm10SwitchInst13getSuccessorVEj
__ZNK4llvm15UnreachableInst17getNumSuccessorsVEv
__ZN12_GLOBAL__N_114RewriteSymbols11runOnModuleERN4llvm6ModuleE
__ZN4llvm24DominatorTreeWrapperPass13runOnFunctionERNS_8FunctionE
__ZN4llvm17DominatorTreeBaseINS_10BasicBlockEE11recalculateINS_8FunctionEEEvRT_
__ZN4llvm17DominatorTreeBaseINS_10BasicBlockEE5resetEv
__ZNSt3__16vectorIPN4llvm10BasicBlockENS_9allocatorIS3_EEE21__push_back_slow_pathIRKS3_EEvOT_
__ZN4llvm7DFSPassINS_11GraphTraitsIPNS_10BasicBlockEEEEEjRNS_17DominatorTreeBaseINT_8NodeTypeEEEPS7_j
__ZN4llvm12DenseMapBaseINS_8DenseMapIPNS_10BasicBlockENS_17DominatorTreeBaseIS2_E7InfoRecENS_12DenseMapInfoIS3_EENS_6detail12DenseMapPairIS3_S6_EEEES3_S6_S8_SB_E20InsertIntoBucketImplERKS3_PSB_
__ZN4llvm4EvalINS_11GraphTraitsIPNS_10BasicBlockEEEEEPNT_8NodeTypeERNS_17DominatorTreeBaseIS6_EES7_j
__ZN4llvm8DenseMapIPNS_10BasicBlockES2_NS_12DenseMapInfoIS2_EENS_6detail12DenseMapPairIS2_S2_EEE4growEj
__ZN4llvm12DenseMapBaseINS_8DenseMapIPNS_10BasicBlockES3_NS_12DenseMapInfoIS3_EENS_6detail12DenseMapPairIS3_S3_EEEES3_S3_S5_S8_E18moveFromOldBucketsEPS8_SB_
__ZN4llvm17DominatorTreeBaseINS_10BasicBlockEE15getNodeForBlockEPS1_
__ZNSt3__16vectorIPN4llvm12MachineInstrENS_9allocatorIS3_EEE21__push_back_slow_pathIRKS3_EEvOT_
__ZN4llvm12DenseMapBaseINS_8DenseMapIPNS_10BasicBlockENSt3__110unique_ptrINS_15DomTreeNodeBaseIS2_EENS4_14default_deleteIS7_EEEENS_12DenseMapInfoIS3_EENS_6detail12DenseMapPairIS3_SA_EEEES3_SA_SC_SF_E18moveFromOldBucketsEPSF_SI_
__ZNK4llvm17DominatorTreeBaseINS_10BasicBlockEE16updateDFSNumbersEv
__ZN12_GLOBAL__N_114DwarfEHPrepare13runOnFunctionERN4llvm8FunctionE
__ZN4llvm24DominatorTreeWrapperPass13releaseMemoryEv
__ZN4llvm19LoopInfoWrapperPass13runOnFunctionERNS_8FunctionE
__ZN4llvm19LoopInfoWrapperPass13releaseMemoryEv
__ZN4llvm12LoopInfoBaseINS_10BasicBlockENS_4LoopEE13releaseMemoryEv
__ZN4llvm12LoopInfoBaseINS_10BasicBlockENS_4LoopEE7analyzeERKNS_17DominatorTreeBaseIS1_EE
__ZNSt3__16vectorINS_4pairIPKN4llvm15DomTreeNodeBaseINS2_10BasicBlockEEENS_11__wrap_iterIPKPS5_EEEENS_9allocatorISD_EEE21__push_back_slow_pathISD_EEvOT_
__ZN4llvm11po_iteratorIPKNS_15DomTreeNodeBaseINS_10BasicBlockEEENS_11SmallPtrSetIS5_Lj8EEELb0ENS_11GraphTraitsIS5_EEE13traverseChildEv
__ZNK4llvm17DominatorTreeBaseINS_10BasicBlockEE9dominatesEPKS1_S4_
__ZN4llvm12LoopInfoBaseINS_10BasicBlockENS_4LoopEE13changeLoopForEPS1_PS2_
__ZN4llvm8DenseMapIPKNS_10BasicBlockEPNS_4LoopENS_12DenseMapInfoIS3_EENS_6detail12DenseMapPairIS3_S5_EEE4growEj
__ZN4llvm12DenseMapBaseINS_8DenseMapIPKNS_10BasicBlockEPNS_4LoopENS_12DenseMapInfoIS4_EENS_6detail12DenseMapPairIS4_S6_EEEES4_S6_S8_SB_E18moveFromOldBucketsEPSB_SE_
__ZN4llvm10post_orderIPNS_10BasicBlockEEENS_14iterator_rangeINS_11po_iteratorIT_NS_11SmallPtrSetIPNS_11GraphTraitsIS5_E8NodeTypeELj8EEELb0ES8_EEEERKS5_
__ZN4llvm11po_iteratorIPNS_10BasicBlockENS_11SmallPtrSetIS2_Lj8EEELb0ENS_11GraphTraitsIS2_EEE13traverseChildEv
__ZN4llvm10make_rangeINS_11po_iteratorIPNS_10BasicBlockENS_11SmallPtrSetIS3_Lj8EEELb0ENS_11GraphTraitsIS3_EEEEEENS_14iterator_rangeIT_EESA_SA_
__ZN4llvm8LoopBaseINS_10BasicBlockENS_4LoopEE13addBlockEntryEPS1_
__ZNSt3__16vectorIPN4llvm4TypeENS_9allocatorIS3_EEE21__push_back_slow_pathIRKS3_EEvOT_
__ZN4llvm26ScalarEvolutionWrapperPass13runOnFunctionERNS_8FunctionE
__ZN4llvm15ScalarEvolutionC2ERNS_8FunctionERNS_17TargetLibraryInfoERNS_15AssumptionCacheERNS_13DominatorTreeERNS_8LoopInfoE
__ZN12_GLOBAL__N_19SafeStack13runOnFunctionERN4llvm8FunctionE
__ZN4llvm26ScalarEvolutionWrapperPass13releaseMemoryEv
__ZN4llvm15ScalarEvolutionD2Ev
__ZN4llvm8LoopBaseINS_10BasicBlockENS_4LoopEED2Ev
__ZN4llvm14StackProtector13runOnFunctionERNS_8FunctionE
__ZNK4llvm10AllocaInst17isArrayAllocationEv
__ZNK4llvm14StackProtector24ContainsProtectableArrayEPNS_4TypeERbbb
__ZN4llvm23MachineFunctionAnalysis13runOnFunctionERNS_8FunctionE
__ZN4llvm15MachineFunctionC1EPKNS_8FunctionERKNS_13TargetMachineEjRNS_17MachineModuleInfoE
__ZNK4llvm16AArch64Subtarget16getFrameLoweringEv
__ZN4llvm21classifyEHPersonalityEPKNS_5ValueE
__ZN4llvm20AAResultsWrapperPass13runOnFunctionERNS_8FunctionE
__ZN4llvm19MachineFunctionPass13runOnFunctionERNS_8FunctionE
__ZN12_GLOBAL__N_119AArch64DAGToDAGISel20runOnMachineFunctionERN4llvm15MachineFunctionE
__ZN4llvm16SelectionDAGISel20runOnMachineFunctionERNS_15MachineFunctionE
__ZNK4llvm16AArch64Subtarget19getSelectionDAGInfoEv
__ZN4llvm20FunctionLoweringInfo3setERKNS_8FunctionERNS_15MachineFunctionEPNS_12SelectionDAGE
__ZN4llvm13GetReturnInfoEPNS_4TypeENS_12AttributeSetERNS_15SmallVectorImplINS_3ISD9OutputArgEEERKNS_14TargetLoweringERKNS_10DataLayoutE
__ZN4llvm15ComputeValueVTsERKNS_14TargetLoweringERKNS_10DataLayoutEPNS_4TypeERNS_15SmallVectorImplINS_3EVTEEEPNS8_IyEEy
__ZNK4llvm18TargetLoweringBase12getValueTypeERKNS_10DataLayoutEPNS_4TypeEb
__ZNK4llvm18TargetLoweringBase15getNumRegistersERNS_11LLVMContextENS_3EVTE
__ZNK4llvm18TargetLoweringBase15getRegisterTypeERNS_11LLVMContextENS_3EVTE
__ZNK4llvm21AArch64TargetLowering14CanLowerReturnEjRNS_15MachineFunctionEbRKNS_15SmallVectorImplINS_3ISD9OutputArgEEERNS_11LLVMContextE
__ZN4llvm7CCStateC2EjbRNS_15MachineFunctionERNS_15SmallVectorImplINS_11CCValAssignEEERNS_11LLVMContextE
__ZL19RetCC_AArch64_AAPCSjN4llvm3MVTES0_NS_11CCValAssign7LocInfoENS_3ISD10ArgFlagsTyERNS_7CCStateE.4589
__ZN4llvm7CCState13MarkAllocatedEj
__ZNSt3__16vectorIN4llvm16MachineFrameInfo11StackObjectENS_9allocatorIS3_EEE21__push_back_slow_pathIS3_EEvOT_
__ZN4llvm12DenseMapBaseINS_8DenseMapIPKNS_10AllocaInstEiNS_12DenseMapInfoIS4_EENS_6detail12DenseMapPairIS4_iEEEES4_iS6_S9_E20InsertIntoBucketImplERKS4_PS9_
__ZN4llvm8DenseMapIPKNS_10AllocaInstEiNS_12DenseMapInfoIS3_EENS_6detail12DenseMapPairIS3_iEEE4growEj
__ZN4llvm8DenseMapIPKNS_5ValueENS_3ISD8NodeTypeENS_12DenseMapInfoIS3_EENS_6detail12DenseMapPairIS3_S5_EEE4growEj
__ZN4llvm12DenseMapBaseINS_8DenseMapIPKNS_5ValueENS_3ISD8NodeTypeENS_12DenseMapInfoIS4_EENS_6detail12DenseMapPairIS4_S6_EEEES4_S6_S8_SB_E18moveFromOldBucketsEPSB_SE_
__ZN4llvm12DenseMapBaseINS_8DenseMapIPKNS_5ValueEjNS_12DenseMapInfoIS4_EENS_6detail12DenseMapPairIS4_jEEEES4_jS6_S9_E20InsertIntoBucketImplERKS4_PS9_
__ZN4llvm8DenseMapIPKNS_5ValueEjNS_12DenseMapInfoIS3_EENS_6detail12DenseMapPairIS3_jEEE4growEj
__ZN4llvm20FunctionLoweringInfo10CreateRegsEPNS_4TypeE
__ZNK4llvm18TargetLoweringBase14getRegClassForENS_3MVTE
__ZN4llvm19MachineRegisterInfo21createVirtualRegisterEPKNS_19TargetRegisterClassE
__ZN4llvm8DenseMapIPKNS_10BasicBlockEPNS_17MachineBasicBlockENS_12DenseMapInfoIS3_EENS_6detail12DenseMapPairIS3_S5_EEE4growEj
__ZNSt3__16vectorIPN4llvm17MachineBasicBlockENS_9allocatorIS3_EEE21__push_back_slow_pathIS3_EEvOT_
__ZN4llvm12DenseMapBaseINS_8DenseMapIPKNS_10BasicBlockEPNS_17MachineBasicBlockENS_12DenseMapInfoIS4_EENS_6detail12DenseMapPairIS4_S6_EEEES4_S6_S8_SB_E18moveFromOldBucketsEPSB_SE_
__ZNK4llvm4Type9isEmptyTyEv
__ZN4llvm15MachineFunction18CreateMachineInstrERKNS_11MCInstrDescENS_8DebugLocEb
__ZN4llvm12MachineInstrC1ERNS_15MachineFunctionERKNS_11MCInstrDescENS_8DebugLocEb
__ZN4llvm12MachineInstr10addOperandERNS_15MachineFunctionERKNS_14MachineOperandE
__ZN4llvm19SelectionDAGBuilder4initEPNS_14GCFunctionInfoERNS_9AAResultsEPKNS_17TargetLibraryInfoE
__ZN4llvm16SelectionDAGISel20SelectAllBasicBlocksERKNS_8FunctionE
__ZNK4llvm21AArch64TargetLowering14createFastISelERNS_20FunctionLoweringInfoEPKNS_17TargetLibraryInfoE
__ZNK4llvm21AArch64TargetLowering17supportSwiftErrorEv
__ZN4llvm11po_iteratorIPKNS_10BasicBlockENS_11SmallPtrSetIS3_Lj8EEELb0ENS_11GraphTraitsIS3_EEE13traverseChildEv
__ZNSt3__16vectorIPKN4llvm10BasicBlockENS_9allocatorIS4_EEE21__push_back_slow_pathIS4_EEvOT_
__ZN4llvm8FastISel13startNewBlockEv
__ZN4llvm8FastISel14lowerArgumentsEv
__ZN12_GLOBAL__N_115AArch64FastISel18fastLowerArgumentsEv
__ZNSt3__16vectorIPN4llvm6SDNodeENS_9allocatorIS3_EEE21__push_back_slow_pathIS3_EEvOT_
__ZN4llvm8FastISel14updateValueMapEPKNS_5ValueEjj
__ZN4llvm8FastISel17recomputeInsertPtEv
__ZN4llvm8FastISel17selectInstructionEPKNS_11InstructionE
__ZN12_GLOBAL__N_115AArch64FastISel21fastSelectInstructionEPKN4llvm11InstructionE
__ZN4llvm8FastISel14fastEmitBranchEPNS_17MachineBasicBlockENS_8DebugLocE
__ZN12_GLOBAL__N_115AArch64FastISel14computeAddressEPKN4llvm5ValueERNS0_7AddressEPNS1_4TypeE
__ZNK4llvm8FastISel26createMachineMemOperandForEPKNS_11InstructionE
__ZNK4llvm11Instruction13getAAMetadataERNS_9AAMDNodesEb
__ZN12_GLOBAL__N_115AArch64FastISel9emitStoreEN4llvm3MVTEjNS0_7AddressEPNS1_17MachineMemOperandE
__ZNK4llvm21AArch64TargetLowering30allowsMisalignedMemoryAccessesENS_3EVTEjjPb
__ZN12_GLOBAL__N_115AArch64FastISel15simplifyAddressERNS0_7AddressEN4llvm3MVTE
__ZN4llvm8FastISel24constrainOperandRegClassERKNS_11MCInstrDescEjj
__ZN4llvm7BuildMIERNS_17MachineBasicBlockENS0_15bundle_iteratorINS_12MachineInstrENS_14ilist_iteratorIS3_EEEENS_8DebugLocERKNS_11MCInstrDescE
__ZN12_GLOBAL__N_115AArch64FastISel20addLoadStoreOperandsERNS0_7AddressERKN4llvm19MachineInstrBuilderEjjPNS3_17MachineMemOperandE
__ZN4llvm24PseudoSourceValueManager13getFixedStackEi
__ZN4llvm8FastISel14getRegForValueEPKNS_5ValueE
__ZN4llvm8FastISel17lookUpRegForValueEPKNS_5ValueE
__ZN4llvm20FunctionLoweringInfo21InitializeRegForValueEPKNS_5ValueE
__ZN4llvm19MachineRegisterInfo17constrainRegClassEjPKNS_19TargetRegisterClassEj
__ZN4llvm8FastISel13tryToFoldLoadEPKNS_8LoadInstEPKNS_11InstructionE
__ZN4llvm8FastISel19tryToFoldLoadIntoMIEPNS_12MachineInstrEjPKNS_8LoadInstE
__ZN12_GLOBAL__N_115AArch64FastISel8emitLoadEN4llvm3MVTES2_NS0_7AddressEbPNS1_17MachineMemOperandE
__ZN4llvm12DenseMapBaseINS_8DenseMapIjjNS_12DenseMapInfoIjEENS_6detail12DenseMapPairIjjEEEEjjS3_S6_E20InsertIntoBucketImplERKjPS6_
__ZN4llvm8DenseMapIjjNS_12DenseMapInfoIjEENS_6detail12DenseMapPairIjjEEE4growEj
__ZN4llvm8FastISel14selectOperatorEPKNS_4UserEj
__ZN4llvm26ComputeUsesVAFloatArgumentERKNS_8CallInstEPNS_17MachineModuleInfoE
__ZNK4llvm17OperandBundleUserINS_8CallInstEPNS_3UseEE25getNumTotalBundleOperandsEv
__ZNK4llvm8CallInst12paramHasAttrEjNS_9Attribute8AttrKindE
__ZNK4llvm12CallSiteBaseIKNS_8FunctionEKNS_10BasicBlockEKNS_5ValueEKNS_4UserEKNS_3UseEKNS_11InstructionEKNS_8CallInstEKNS_10InvokeInstEPSA_E13doesNotReturnEv
__ZN4llvm8FastISel11lowerCallToERNS0_16CallLoweringInfoE
__ZN12_GLOBAL__N_115AArch64FastISel13fastLowerCallERN4llvm8FastISel16CallLoweringInfoE
__ZNK4llvm19AArch64RegisterInfo20getCallPreservedMaskERKNS_15MachineFunctionEj
__ZN4llvm12MachineInstr21setPhysRegsDeadExceptENS_8ArrayRefIjEERKNS_18TargetRegisterInfoE
__ZN4llvm8FastISel19enterLocalValueAreaEv
__ZN12_GLOBAL__N_115AArch64FastISel23fastMaterializeConstantEPKN4llvm8ConstantE
__ZN12_GLOBAL__N_115AArch64FastISel13materializeGVEPKN4llvm11GlobalValueE
__ZNK4llvm16AArch64Subtarget23ClassifyGlobalReferenceEPKNS_11GlobalValueERKNS_13TargetMachineE
__ZN4llvm8FastISel12ArgListEntry13setAttributesEPNS_17ImmutableCallSiteEj
__ZNK4llvm21AArch64TargetLowering41functionArgumentNeedsConsecutiveRegistersEPNS_4TypeEjb
__ZL20CC_AArch64_DarwinPCSjN4llvm3MVTES0_NS_11CCValAssign7LocInfoENS_3ISD10ArgFlagsTyERNS_7CCStateE
__ZN4llvm12MachineInstr18addRegisterDefinedEjPKNS_18TargetRegisterInfoE
__ZL12isIntExtFreePKN4llvm11InstructionE
__ZN4llvm8FastISel14hasTrivialKillEPKNS_5ValueE
__ZN12_GLOBAL__N_115AArch64FastISel10emitLSL_riEN4llvm3MVTES2_jbyb
__ZN12_GLOBAL__N_115AArch64FastISel10emitIntExtEN4llvm3MVTEjS2_b
__ZN4llvm8FastISel16fastEmitInst_riiEjPKNS_19TargetRegisterClassEjbyy
__ZNK4llvm19MachineRegisterInfo16getUniqueVRegDefEj
__ZN4llvm12MachineInstr15eraseFromParentEv
__ZN4llvm15MachineFunction18DeleteMachineInstrEPNS_12MachineInstrE
__ZN4llvm8FastISel13selectBitCastEPKNS_4UserE
__ZN4llvm12DenseMapBaseINS_8DenseMapIPKNS_5ValueEjNS_12DenseMapInfoIS4_EENS_6detail12DenseMapPairIS4_jEEEES4_jS6_S9_E18moveFromOldBucketsEPS9_SC_
__ZN12_GLOBAL__N_115AArch64FastISel14materializeIntEPKN4llvm11ConstantIntENS1_3MVTE
__ZN4llvm8FastISel14fastEmitInst_iEjPKNS_19TargetRegisterClassEy
__ZN4llvm12DenseMapBaseINS_8DenseMapIjjNS_12DenseMapInfoIjEENS_6detail12DenseMapPairIjjEEEEjjS3_S6_E18moveFromOldBucketsEPS6_S9_
__ZN4llvm8FastISel19selectIntrinsicCallEPKNS_13IntrinsicInstE
__ZN4llvm8FastISel16finishCondBranchEPKNS_10BasicBlockEPNS_17MachineBasicBlockES5_
__ZN12_GLOBAL__N_115AArch64FastISel10emitAddSubEbN4llvm3MVTEPKNS1_5ValueES5_bbb
__ZL11isMulPowOf2PKN4llvm5ValueE
__ZN12_GLOBAL__N_115AArch64FastISel13emitAddSub_riEbN4llvm3MVTEjbybb
__ZNK4llvm21AArch64TargetLowering15supportSplitCSREPNS_15MachineFunctionE
__ZL19RetCC_AArch64_AAPCSjN4llvm3MVTES0_NS_11CCValAssign7LocInfoENS_3ISD10ArgFlagsTyERNS_7CCStateE
__ZN12_GLOBAL__N_115AArch64FastISel13emitAddSub_rrEbN4llvm3MVTEjbjbbb
__ZNK4llvm16AArch64InstrInfo12InsertBranchERNS_17MachineBasicBlockEPS1_S3_NS_8ArrayRefINS_14MachineOperandEEENS_8DebugLocE
__ZN12_GLOBAL__N_115AArch64FastISel7emitCmpEPKN4llvm5ValueES4_b
__ZN4llvm8FastISel17canFoldAddIntoGEPEPKNS_4UserEPKNS_5ValueE
__ZNK4llvm17GetElementPtrInst17hasAllZeroIndicesEv
__ZN4llvm8FastISel16fastEmitInst_rrrEjPKNS_19TargetRegisterClassEjbjbjb
__ZN12_GLOBAL__N_115AArch64FastISel11fastEmit_rrEN4llvm3MVTES2_jjbjb
__ZN4llvm8FastISel15fastEmitInst_rrEjPKNS_19TargetRegisterClassEjbjb
__ZN12_GLOBAL__N_115AArch64FastISel11emitAdd_ri_EN4llvm3MVTEjbx
__ZN12_GLOBAL__N_115AArch64FastISel13emitLogicalOpEjN4llvm3MVTEPKNS1_5ValueES5_
__ZN4llvm10AArch64_AML23processLogicalImmediateEyjRy.4438
__ZN4llvm8FastISel15fastEmitInst_riEjPKNS_19TargetRegisterClassEjby
__ZNK4llvm18TargetLoweringBase17getTypeConversionERNS_11LLVMContextENS_3EVTE
__ZN12_GLOBAL__N_115AArch64FastISel21fastMaterializeAllocaEPKN4llvm10AllocaInstE
__ZN12_GLOBAL__N_115AArch64FastISelD0Ev
__ZN4llvm19SelectionDAGBuilder22clearDanglingDebugInfoEv
__ZN4llvm19MachineRegisterInfo16EmitLiveInCopiesEPNS_17MachineBasicBlockERKNS_18TargetRegisterInfoERKNS_15TargetInstrInfoE
__ZNSt3__16vectorIN4llvm17MachineBasicBlock16RegisterMaskPairENS_9allocatorIS3_EEE21__push_back_slow_pathIS3_EEvOT_
__ZNK4llvm8Function29callsFunctionThatReturnsTwiceEv
__ZN4llvm14MachineOperand6setRegEj
__ZNK4llvm14TargetLowering30hasCopyImplyingStackAdjustmentEPNS_15MachineFunctionE
__ZNK4llvm19AArch64RegisterInfo15getReservedRegsERKNS_15MachineFunctionE
__ZNK4llvm20AArch64FrameLowering5hasFPERKNS_15MachineFunctionE
__ZN4llvm20FunctionLoweringInfo5clearEv
__ZN12_GLOBAL__N_117ExpandISelPseudos20runOnMachineFunctionERN4llvm15MachineFunctionE
__ZN12_GLOBAL__N_118LocalStackSlotPass20runOnMachineFunctionERN4llvm15MachineFunctionE
__ZNK4llvm19AArch64RegisterInfo28requiresVirtualBaseRegistersERKNS_15MachineFunctionE
__ZN12_GLOBAL__N_118LocalStackSlotPass17AdjustStackOffsetEPN4llvm16MachineFrameInfoEiRxbRj
__ZNK4llvm19AArch64RegisterInfo17needsFrameBaseRegEPNS_12MachineInstrEx
__ZNK4llvm19AArch64RegisterInfo18isFrameOffsetLegalEPKNS_12MachineInstrEjx
__ZN4llvm25isAArch64FrameOffsetLegalERKNS_12MachineInstrERiPbPjPi
__ZN12_GLOBAL__N_114PHIElimination20runOnMachineFunctionERN4llvm15MachineFunctionE
__ZNK4llvm12DenseMapBaseINS_8DenseMapINSt3__14pairIjjEEjNS_12DenseMapInfoIS4_EENS_6detail12DenseMapPairIS4_jEEEES4_jS6_S9_E15LookupBucketForIS4_EEbRKT_RPKS9_
__ZN4llvm12DenseMapBaseINS_8DenseMapINSt3__14pairIjjEEjNS_12DenseMapInfoIS4_EENS_6detail12DenseMapPairIS4_jEEEES4_jS6_S9_E20InsertIntoBucketImplERKS4_PS9_
__ZN4llvm8DenseMapINSt3__14pairIjjEEjNS_12DenseMapInfoIS3_EENS_6detail12DenseMapPairIS3_jEEE4growEj
__ZN4llvm8DenseMapIPNS_12MachineInstrEjNS_27MachineInstrExpressionTraitENS_6detail12DenseMapPairIS2_jEEE4growEj
__ZN4llvm27MachineInstrExpressionTrait12getHashValueERKPKNS_12MachineInstrE
__ZN4llvm17MachineBasicBlock18getFirstTerminatorEv
__ZN12_GLOBAL__N_125TwoAddressInstructionPass20runOnMachineFunctionERN4llvm15MachineFunctionE
__ZNK4llvm19TargetSubtargetInfo21getInstrItineraryDataEv
__ZN4llvm12DenseMapBaseINS_8DenseMapIPNS_12MachineInstrEjNS_12DenseMapInfoIS3_EENS_6detail12DenseMapPairIS3_jEEEES3_jS5_S8_E20InsertIntoBucketImplERKS3_PS8_
__ZN4llvm8DenseMapIPNS_12MachineInstrEjNS_12DenseMapInfoIS2_EENS_6detail12DenseMapPairIS2_jEEE4growEj
__ZN12_GLOBAL__N_125TwoAddressInstructionPass8scanUsesEj
__ZN4llvm12DenseMapBaseINS_8DenseMapIPNS_12MachineInstrEjNS_12DenseMapInfoIS3_EENS_6detail12DenseMapPairIS3_jEEEES3_jS5_S8_E18moveFromOldBucketsEPS8_SB_
__ZN4llvm8DenseMapIPNS_12MachineInstrEjNS_12DenseMapInfoIS2_EENS_6detail12DenseMapPairIS2_jEEE16shrink_and_clearEv
__ZN12_GLOBAL__N_16RAFast20runOnMachineFunctionERN4llvm15MachineFunctionE
__ZN4llvm17RegisterClassInfo20runOnMachineFunctionERKNS_15MachineFunctionE
__ZNK4llvm22AArch64GenRegisterInfo21getNumRegPressureSetsEv
__ZNK4llvm19AArch64RegisterInfo18getCalleeSavedRegsEPKNS_15MachineFunctionE
__ZN4llvm9BitVectoraSERKS0_
__ZNSt3__16vectorIjNS_9allocatorIjEEE6assignEmRKj
__ZN12_GLOBAL__N_16RAFast13definePhysRegEPN4llvm12MachineInstrEjNS0_8RegStateE
__ZN12_GLOBAL__N_16RAFast18markRegUsedInInstrEj
__ZN12_GLOBAL__N_16RAFast13defineVirtRegEPN4llvm12MachineInstrEjjj
__ZN12_GLOBAL__N_16RAFast12allocVirtRegEPN4llvm12MachineInstrEPNS0_7LiveRegEj
__ZNK12_GLOBAL__N_16RAFast13calcSpillCostEj
__ZN12_GLOBAL__N_16RAFast10setPhysRegEPN4llvm12MachineInstrEjj
__ZN12_GLOBAL__N_16RAFast13reloadVirtRegEPN4llvm12MachineInstrEjjj
__ZNK4llvm17RegisterClassInfo7computeEPKNS_19TargetRegisterClassE
__ZN4llvmL26GPR64GetRawAllocationOrderERKNS_15MachineFunctionE
__ZNK4llvm18TargetRegisterInfo25getLargestLegalSuperClassEPKNS_19TargetRegisterClassERKNS_15MachineFunctionE
__ZN4llvmL32GPR64commonGetRawAllocationOrderERKNS_15MachineFunctionE
__ZN4llvmL28GPR64spGetRawAllocationOrderERKNS_15MachineFunctionE
__ZN4llvmL26GPR32GetRawAllocationOrderERKNS_15MachineFunctionE
__ZN4llvm9BitVector9applyMaskILb1ELb1EEEvPKjj
__ZN4llvmL32GPR32commonGetRawAllocationOrderERKNS_15MachineFunctionE
__ZN4llvmL28GPR32spGetRawAllocationOrderERKNS_15MachineFunctionE
__ZN12_GLOBAL__N_16RAFast12spillVirtRegEN4llvm17MachineBasicBlock15bundle_iteratorINS1_12MachineInstrENS1_14ilist_iteratorIS4_EEEEPNS0_7LiveRegE
__ZN4llvm16MachineFrameInfo22CreateSpillStackObjectEyj
__ZNK4llvm16AArch64InstrInfo19storeRegToStackSlotERNS_17MachineBasicBlockENS1_15bundle_iteratorINS_12MachineInstrENS_14ilist_iteratorIS4_EEEEjbiPKNS_19TargetRegisterClassEPKNS_18TargetRegisterInfoE
__ZN4llvm12DenseMapBaseINS_8DenseMapIjNS_11SmallVectorIPNS_12MachineInstrELj4EEENS_12DenseMapInfoIjEENS_6detail12DenseMapPairIjS5_EEEEjS5_S7_SA_E16FindAndConstructERKj
__ZN4llvm8DenseMapIjNS_11SmallVectorIPNS_12MachineInstrELj4EEENS_12DenseMapInfoIjEENS_6detail12DenseMapPairIjS4_EEE4growEj
__ZNK4llvm16AArch64InstrInfo20loadRegFromStackSlotERNS_17MachineBasicBlockENS1_15bundle_iteratorINS_12MachineInstrENS_14ilist_iteratorIS4_EEEEjiPKNS_19TargetRegisterClassEPKNS_18TargetRegisterInfoE
__ZN12_GLOBAL__N_13PEI20runOnMachineFunctionERN4llvm15MachineFunctionE
__ZNK4llvm19AArch64RegisterInfo26requiresRegisterScavengingERKNS_15MachineFunctionE
__ZNK4llvm19AArch64RegisterInfo28requiresFrameIndexScavengingERKNS_15MachineFunctionE
__ZNK4llvm19TargetFrameLowering27canSimplifyCallFramePseudosERKNS_15MachineFunctionE
__ZNK4llvm20AArch64FrameLowering20hasReservedCallFrameERKNS_15MachineFunctionE
__ZNK4llvm20AArch64FrameLowering29eliminateCallFramePseudoInstrERNS_15MachineFunctionERNS_17MachineBasicBlockENS3_15bundle_iteratorINS_12MachineInstrENS_14ilist_iteratorIS6_EEEE
__ZNK4llvm20AArch64FrameLowering20determineCalleeSavesERNS_15MachineFunctionERNS_9BitVectorEPNS_12RegScavengerE
__ZNK4llvm19TargetFrameLowering20determineCalleeSavesERNS_15MachineFunctionERNS_9BitVectorEPNS_12RegScavengerE
__ZNK4llvm19MachineRegisterInfo17isPhysRegModifiedEj
__ZNK4llvm16MachineFrameInfo17estimateStackSizeERKNS_15MachineFunctionE
__ZNK4llvm20AArch64FrameLowering27assignCalleeSavedSpillSlotsERNS_15MachineFunctionEPKNS_18TargetRegisterInfoERNSt3__16vectorINS_15CalleeSavedInfoENS6_9allocatorIS8_EEEERjSD_
__ZNK4llvm19TargetFrameLowering24getCalleeSavedSpillSlotsERj
__ZNK4llvm18TargetRegisterInfo20hasReservedSpillSlotERKNS_15MachineFunctionEjRi
__ZNK4llvm20AArch64FrameLowering25spillCalleeSavedRegistersERNS_17MachineBasicBlockENS1_15bundle_iteratorINS_12MachineInstrENS_14ilist_iteratorIS4_EEEERKNSt3__16vectorINS_15CalleeSavedInfoENS8_9allocatorISA_EEEEPKNS_18TargetRegisterInfoE
__ZL11getCSRPairsRKNSt3__16vectorIN4llvm15CalleeSavedInfoENS_9allocatorIS2_EEEEPKNS1_19AArch64RegisterInfoEPKNS1_15MachineFunctionERNS1_15SmallVectorImplINS_4pairIjjEEEE
__ZNK4llvm20AArch64FrameLowering27restoreCalleeSavedRegistersERNS_17MachineBasicBlockENS1_15bundle_iteratorINS_12MachineInstrENS_14ilist_iteratorIS4_EEEERKNSt3__16vectorINS_15CalleeSavedInfoENS8_9allocatorISA_EEEEPKNS_18TargetRegisterInfoE
__ZNK4llvm19TargetFrameLowering35processFunctionBeforeFrameFinalizedERNS_15MachineFunctionEPNS_12RegScavengerE
__ZNK4llvm19TargetFrameLowering21getStackAlignmentSkewERKNS_15MachineFunctionE
__ZNK4llvm19TargetFrameLowering21isFPCloseToIncomingSPEv
__ZNK4llvm19AArch64RegisterInfo23useFPForScavengingIndexERKNS_15MachineFunctionE
__ZNK4llvm19TargetFrameLowering31targetHandlesStackFrameRoundingEv
__ZNK4llvm20AArch64FrameLowering12emitPrologueERNS_15MachineFunctionERNS_17MachineBasicBlockE
__ZN4llvm15emitFrameOffsetERNS_17MachineBasicBlockENS0_15bundle_iteratorINS_12MachineInstrENS_14ilist_iteratorIS3_EEEENS_8DebugLocEjjiPKNS_15TargetInstrInfoENS3_6MIFlagEb
__ZNK4llvm20AArch64FrameLowering13canUseRedZoneERKNS_15MachineFunctionE
__ZNK4llvm19AArch64RegisterInfo16getFrameRegisterERKNS_15MachineFunctionE
__ZN4llvm17MachineModuleInfo12addFrameInstERKNS_16MCCFIInstructionE
__ZNK4llvm20AArch64FrameLowering12emitEpilogueERNS_15MachineFunctionERNS_17MachineBasicBlockE
__ZNK4llvm19TargetFrameLowering16inlineStackProbeERNS_15MachineFunctionERNS_17MachineBasicBlockE
__ZNK4llvm19TargetFrameLowering25needsFrameIndexResolutionERKNS_15MachineFunctionE
__ZN4llvm12df_ext_beginIPNS_15MachineFunctionENS_11SmallPtrSetIPNS_17MachineBasicBlockELj8EEEEENS_15df_ext_iteratorIT_T0_EERKS8_RS9_
__ZN4llvm11df_iteratorIPNS_15MachineFunctionENS_11SmallPtrSetIPNS_17MachineBasicBlockELj8EEELb1ENS_11GraphTraitsIS2_EEEC2ES5_RS6_
__ZNSt3__16vectorINS_4pairIN4llvm14PointerIntPairIPNS2_17MachineBasicBlockELj1EjNS2_21PointerLikeTypeTraitsIS5_EENS2_18PointerIntPairInfoIS5_Lj1ES7_EEEENS_11__wrap_iterIPS5_EEEENS_9allocatorISE_EEE21__push_back_slow_pathISE_EEvOT_
__ZN12_GLOBAL__N_13PEI19replaceFrameIndicesEPN4llvm17MachineBasicBlockERNS1_15MachineFunctionERi
__ZNK4llvm19AArch64RegisterInfo19eliminateFrameIndexENS_17MachineBasicBlock15bundle_iteratorINS_12MachineInstrENS_14ilist_iteratorIS3_EEEEijPNS_12RegScavengerE
__ZNK4llvm20AArch64FrameLowering26resolveFrameIndexReferenceERKNS_15MachineFunctionEiRjb
__ZN4llvm24rewriteAArch64FrameIndexERNS_12MachineInstrEjjRiPKNS_16AArch64InstrInfoE
__ZN4llvm14MachineOperand16ChangeToRegisterEjbbbbbb
__ZN4llvm11df_iteratorIPNS_15MachineFunctionENS_11SmallPtrSetIPNS_17MachineBasicBlockELj8EEELb1ENS_11GraphTraitsIS2_EEE6toNextEv
__ZN4llvm12RegScavenger15enterBasicBlockEPNS_17MachineBasicBlockE
__ZNK4llvm16MachineFrameInfo15getPristineRegsERKNS_15MachineFunctionE
__ZN4llvm12RegScavenger7forwardEv
__ZN4llvm12RegScavenger21determineKillsAndDefsEv
__ZN12_GLOBAL__N_112ExpandPostRA20runOnMachineFunctionERN4llvm15MachineFunctionE
__ZNK4llvm16AArch64InstrInfo18expandPostRAPseudoENS_17MachineBasicBlock15bundle_iteratorINS_12MachineInstrENS_14ilist_iteratorIS3_EEEE
__ZNK4llvm16AArch64InstrInfo11copyPhysRegERNS_17MachineBasicBlockENS1_15bundle_iteratorINS_12MachineInstrENS_14ilist_iteratorIS4_EEEENS_8DebugLocEjjb
__ZNK4llvm14MCRegisterInfo19getMatchingSuperRegEjjPKNS_15MCRegisterClassE
__ZN12_GLOBAL__N_119AArch64ExpandPseudo20runOnMachineFunctionERN4llvm15MachineFunctionE
__ZN12_GLOBAL__N_119AArch64ExpandPseudo12expandMOVImmERN4llvm17MachineBasicBlockENS2_15bundle_iteratorINS1_12MachineInstrENS1_14ilist_iteratorIS5_EEEEj
__ZN4llvm10AArch64_AML23processLogicalImmediateEyjRy
__ZN12_GLOBAL__N_121GCMachineCodeAnalysis20runOnMachineFunctionERN4llvm15MachineFunctionE
__ZN12_GLOBAL__N_123AArch64BranchRelaxation20runOnMachineFunctionERN4llvm15MachineFunctionE
__ZN4llvm15MachineFunction14RenumberBlocksEPNS_17MachineBasicBlockE
__ZN12_GLOBAL__N_113FuncletLayout20runOnMachineFunctionERN4llvm15MachineFunctionE
__ZN4llvm20getFuncletMembershipERKNS_15MachineFunctionE
__ZN12_GLOBAL__N_116StackMapLiveness20runOnMachineFunctionERN4llvm15MachineFunctionE
__ZN12_GLOBAL__N_115LiveDebugValues20runOnMachineFunctionERN4llvm15MachineFunctionE
__ZN12_GLOBAL__N_115LiveDebugValues8transferERN4llvm12MachineInstrERNS0_13OpenRangesSetERNS1_13SmallDenseMapIPKNS1_17MachineBasicBlockENS1_15SparseBitVectorILj128EEELj4ENS1_12DenseMapInfoIS9_EENS1_6detail12DenseMapPairIS9_SB_EEEERNS1_12UniqueVectorINS0_6VarLocEEE
__ZN4llvm15SparseBitVectorILj128EE23intersectWithComplementERKS1_
__ZN4llvm25ReversePostOrderTraversalIPNS_15MachineFunctionENS_11GraphTraitsIS2_EEE10InitializeEPNS_17MachineBasicBlockE
__ZN4llvm11po_iteratorIPNS_17MachineBasicBlockENS_11SmallPtrSetIS2_Lj8EEELb0ENS_11GraphTraitsIS2_EEE13traverseChildEv
__ZN4llvm12DenseMapBaseINS_8DenseMapIjPNS_17MachineBasicBlockENS_12DenseMapInfoIjEENS_6detail12DenseMapPairIjS3_EEEEjS3_S5_S8_E20InsertIntoBucketImplERKjPS8_
__ZN4llvm8DenseMapIjPNS_17MachineBasicBlockENS_12DenseMapInfoIjEENS_6detail12DenseMapPairIjS2_EEE4growEj
__ZN4llvm12DenseMapBaseINS_8DenseMapIPNS_17MachineBasicBlockEjNS_12DenseMapInfoIS3_EENS_6detail12DenseMapPairIS3_jEEEES3_jS5_S8_E20InsertIntoBucketImplERKS3_PS8_
__ZN4llvm8DenseMapIPNS_17MachineBasicBlockEjNS_12DenseMapInfoIS2_EENS_6detail12DenseMapPairIS2_jEEE4growEj
__ZNSt3__16__treeINS_12__value_typeIN12_GLOBAL__N_115LiveDebugValues6VarLocEjEENS_19__map_value_compareIS4_S5_NS_4lessIS4_EELb1EEENS_9allocatorIS5_EEE7destroyEPNS_11__tree_nodeIS5_PvEE
__ZN12_GLOBAL__N_117AArch64AsmPrinter20runOnMachineFunctionERN4llvm15MachineFunctionE
__ZN4llvm10AsmPrinter20SetupMachineFunctionERNS_15MachineFunctionE
__ZN4llvm10AsmPrinter16EmitFunctionBodyEv
__ZN4llvm10AsmPrinter18EmitFunctionHeaderEv
__ZN4llvm10AsmPrinter16EmitConstantPoolEv
__ZN4llvm24TargetLoweringObjectFile16getKindForGlobalEPKNS_11GlobalValueERKNS_13TargetMachineE
__ZNK4llvm29TargetLoweringObjectFileMachO22SelectSectionForGlobalEPKNS_11GlobalValueENS_11SectionKindERNS_7ManglerERKNS_13TargetMachineE
__ZL16checkMachOComdatPKN4llvm11GlobalValueE
__ZNK4llvm10AsmPrinter11EmitLinkageEPKNS_11GlobalValueEPNS_8MCSymbolE
__ZN12_GLOBAL__N_115MCMachOStreamer19EmitSymbolAttributeEPN4llvm8MCSymbolENS1_12MCSymbolAttrE
__ZNK4llvm10AsmPrinter13EmitAlignmentEjPKNS_12GlobalObjectE
__ZN4llvm16MCObjectStreamer17EmitCodeAlignmentEjj
__ZN4llvm16MCObjectStreamer20EmitValueToAlignmentEjxjj
__ZN4llvm10AsmPrinter22EmitFunctionEntryLabelEv
__ZN4llvm17MachineModuleInfo29takeDeletedSymbolsForFunctionEPKNS_8FunctionERNSt3__16vectorIPNS_8MCSymbolENS4_9allocatorIS7_EEEE
__ZN4llvm10DwarfDebug13beginFunctionEPKNS_15MachineFunctionE
__ZN4llvm13LexicalScopes10initializeERKNS_15MachineFunctionE
__ZN4llvm13LexicalScopes23getOrCreateRegularScopeEPKNS_12DILocalScopeE
__ZNSt3__112__hash_tableINS_17__hash_value_typeIPKN4llvm12DILocalScopeENS2_12LexicalScopeEEENS_22__unordered_map_hasherIS5_S7_NS_4hashIS5_EELb1EEENS_21__unordered_map_equalIS5_S7_NS_8equal_toIS5_EELb1EEENS_9allocatorIS7_EEE16__construct_nodeIJRKNS_21piecewise_construct_tENS_5tupleIJRS5_EEENSN_IJRPS6_SO_ODnObEEEEEENS_10unique_ptrINS_11__hash_nodeIS7_PvEENS_22__hash_node_destructorINSG_ISY_EEEEEEDpOT_
__ZN4llvm12DenseMapBaseINS_8DenseMapIPKNS_12MachineInstrEPNS_12LexicalScopeENS_12DenseMapInfoIS4_EENS_6detail12DenseMapPairIS4_S6_EEEES4_S6_S8_SB_E20InsertIntoBucketImplERKS4_PSB_
__ZN4llvm8DenseMapIPKNS_12MachineInstrEPNS_12LexicalScopeENS_12DenseMapInfoIS3_EENS_6detail12DenseMapPairIS3_S5_EEE4growEj
__ZN4llvm12DenseMapBaseINS_8DenseMapIPKNS_12MachineInstrEPNS_8MCSymbolENS_12DenseMapInfoIS4_EENS_6detail12DenseMapPairIS4_S6_EEEES4_S6_S8_SB_E20InsertIntoBucketImplERKS4_PSB_
__ZN4llvm8DenseMapIPKNS_12MachineInstrEPNS_8MCSymbolENS_12DenseMapInfoIS3_EENS_6detail12DenseMapPairIS3_S5_EEE4growEj
__ZNSt3__16__treeINS_12__value_typeIjN4llvm11SmallVectorINS_4pairIPKNS2_15DILocalVariableEPKNS2_10DILocationEEELj1EEEEENS_19__map_value_compareIjSD_NS_4lessIjEELb1EEENS_9allocatorISD_EEE7destroyEPNS_11__tree_nodeISD_PvEE
__ZN4llvm10DwarfDebug16recordSourceLineEjjPKNS_6MDNodeEj
__ZN4llvm16MCObjectStreamer21EmitDwarfLocDirectiveEjjjjjjNS_9StringRefE
__ZN4llvm11MCLineEntry4MakeEPNS_16MCObjectStreamerEPNS_9MCSectionE
__ZN4llvm17DwarfCFIException13beginFunctionEPKNS_15MachineFunctionE
__ZN4llvm10AsmPrinter13needsCFIMovesEv
__ZN4llvm10MCStreamer16EmitCFIStartProcEb
__ZN4llvm16MCObjectStreamer20EmitCFIStartProcImplERNS_16MCDwarfFrameInfoE
__ZNSt3__16vectorIN4llvm16MCCFIInstructionENS_9allocatorIS2_EEEC2ERKS5_
__ZN4llvm10AsmPrinter21EmitFunctionBodyStartEv
__ZNK4llvm10AsmPrinter19EmitBasicBlockStartERKNS_17MachineBasicBlockE
__ZN4llvm10DwarfDebug16beginInstructionEPKNS_12MachineInstrE
__ZN4llvm10EHStreamer16beginInstructionEPKNS_12MachineInstrE
__ZN12_GLOBAL__N_117AArch64AsmPrinter15EmitInstructionEPKN4llvm12MachineInstrE
__ZNK4llvm18AArch64MCInstLower12lowerOperandERKNS_14MachineOperandERNS_9MCOperandE
__ZN4llvm16MCObjectStreamer15EmitInstructionERKNS_6MCInstERKNS_15MCSubtargetInfoE
__ZN4llvm12DenseMapBaseINS_8DenseMapIPNS_9MCSectionEjNS_12DenseMapInfoIS3_EENS_6detail12DenseMapPairIS3_jEEEES3_jS5_S8_E20InsertIntoBucketImplERKS3_PS8_
__ZN4llvm8DenseMapIPNS_9MCSectionEjNS_12DenseMapInfoIS2_EENS_6detail12DenseMapPairIS2_jEEE4growEj
__ZNK12_GLOBAL__N_117AArch64AsmBackend17mayNeedRelaxationERKN4llvm6MCInstE
__ZN12_GLOBAL__N_115MCMachOStreamer14EmitInstToDataERKN4llvm6MCInstERKNS1_15MCSubtargetInfoE
__ZN4llvm16MCObjectStreamer23getOrCreateDataFragmentEv
__ZNK12_GLOBAL__N_120AArch64MCCodeEmitter17encodeInstructionERKN4llvm6MCInstERNS1_11raw_ostreamERNS1_15SmallVectorImplINS1_7MCFixupEEERKNS1_15MCSubtargetInfoE
__ZNK12_GLOBAL__N_120AArch64MCCodeEmitter21getBinaryCodeForInstrERKN4llvm6MCInstERNS1_15SmallVectorImplINS1_7MCFixupEEERKNS1_15MCSubtargetInfoE
__ZN4llvm10DwarfDebug14endInstructionEv
__ZN4llvm10EHStreamer14endInstructionEv
__ZNK4llvm10AsmPrinter18emitCFIInstructionERKNS_16MCCFIInstructionE
__ZN4llvm10MCStreamer13EmitCFIDefCfaExx
__ZN4llvm10MCStreamer13EmitCFIOffsetExx
__ZNK4llvm18AArch64MCInstLower24lowerSymbolOperandDarwinERKNS_14MachineOperandEPNS_8MCSymbolE
__ZN4llvm10MCStreamer13visitUsedExprERKNS_6MCExprE
__ZN4llvm16MCObjectStreamer15visitUsedSymbolERKNS_8MCSymbolE
__ZN4llvm10AsmPrinter17EmitBasicBlockEndERKNS_17MachineBasicBlockE
__ZNK4llvm10AsmPrinter33isBlockOnlyReachableByFallthroughEPKNS_17MachineBasicBlockE
__ZNK4llvm17MachineBasicBlock9getSymbolEv
__ZN12_GLOBAL__N_117AArch64AsmPrinter19EmitFunctionBodyEndEv
__ZN4llvm17AsmPrinterHandler15markFunctionEndEv
__ZN4llvm21DwarfCFIExceptionBase15markFunctionEndEv
__ZN4llvm16MCObjectStreamer18EmitCFIEndProcImplERNS_16MCDwarfFrameInfoE
__ZN4llvm10AsmPrinter17EmitJumpTableInfoEv
__ZN4llvm10DwarfDebug11endFunctionEPKNS_15MachineFunctionE
__ZNK4llvm12DenseMapBaseINS_8DenseMapINSt3__14pairIPKNS_15DILocalVariableEPKNS_10DILocationEEENS_6detail13DenseSetEmptyENS_12DenseMapInfoISA_EENSB_12DenseSetPairISA_EEEESA_SC_SE_SG_E15LookupBucketForISA_EEbRKT_RPKSG_
__ZN4llvm12DenseMapBaseINS_8DenseMapINSt3__14pairIPKNS_15DILocalVariableEPKNS_10DILocationEEENS_6detail13DenseSetEmptyENS_12DenseMapInfoISA_EENSB_12DenseSetPairISA_EEEESA_SC_SE_SG_E20InsertIntoBucketImplERKSA_PSG_
__ZN4llvm8DenseMapINSt3__14pairIPKNS_15DILocalVariableEPKNS_10DILocationEEENS_6detail13DenseSetEmptyENS_12DenseMapInfoIS9_EENSA_12DenseSetPairIS9_EEE4growEj
__ZN4llvm10DwarfDebug39ensureAbstractVariableIsCreatedIfScopedENSt3__14pairIPKNS_15DILocalVariableEPKNS_10DILocationEEEPKNS_6MDNodeE
__ZN4llvm9DwarfFile16addScopeVariableEPNS_12LexicalScopeEPNS_11DbgVariableE
__ZN4llvm8DenseMapIPNS_12LexicalScopeENS_11SmallVectorIPNS_11DbgVariableELj8EEENS_12DenseMapInfoIS2_EENS_6detail12DenseMapPairIS2_S6_EEE4growEj
__ZN4llvm16DwarfCompileUnit8addRangeENS_9RangeSpanE
__ZN4llvm16DwarfCompileUnit27constructSubprogramScopeDIEEPNS_12LexicalScopeE
__ZN4llvm9DwarfUnit24getOrCreateSubprogramDIEEPKNS_12DISubprogramEb
__ZN4llvm16DwarfCompileUnit15addLabelAddressERNS_3DIEENS_5dwarf9AttributeEPKNS_8MCSymbolE
__ZNK4llvm19TargetFrameLowering18noFramePointerElimERKNS_15MachineFunctionE
__ZN4llvm15DwarfExpression18AddMachineRegPieceEjjj
__ZN4llvm18DIEDwarfExpression6EmitOpEhPKc
__ZN4llvm10DwarfDebug18addSubprogramNamesEPKNS_12DISubprogramERNS_3DIEE
__ZN4llvm16DwarfCompileUnit22createScopeChildrenDIEEPNS_12LexicalScopeERNS_15SmallVectorImplIPNS_3DIEEEEPj
__ZNK4llvm20AArch64FrameLowering22getFrameIndexReferenceERKNS_15MachineFunctionEiRj
__ZN4llvm15DwarfExpression21AddMachineRegIndirectEji
__ZN4llvm18DIEDwarfExpression15isFrameRegisterEj
__ZN4llvm18DIEDwarfExpression10EmitSignedEx
__ZN4llvm15DwarfExpression13AddExpressionENS_12DIExpression16expr_op_iteratorES2_j
__ZNK4llvm11DbgVariable7getTypeEv
__ZN4llvm12DenseMapBaseINS_8DenseMapIPKNS_6MDNodeENS_11SmallVectorIS4_Lj8EEENS_12DenseMapInfoIS4_EENS_6detail12DenseMapPairIS4_S6_EEEES4_S6_S8_SB_E16FindAndConstructEOS4_
__ZN4llvm8DenseMapIPKNS_6MDNodeENS_11SmallVectorIS3_Lj8EEENS_12DenseMapInfoIS3_EENS_6detail12DenseMapPairIS3_S5_EEE4growEj
__ZN4llvm16DwarfCompileUnit23attachRangesOrLowHighPCERNS_3DIEERKNS_15SmallVectorImplINSt3__14pairIPKNS_12MachineInstrES8_EEEE
__ZN4llvm15SmallVectorImplINS_9RangeSpanEEaSEOS2_
__ZN4llvm16DwarfCompileUnit23attachRangesOrLowHighPCERNS_3DIEENS_11SmallVectorINS_9RangeSpanELj2EEE
__ZN4llvm17DwarfCFIException11endFunctionEPKNS_15MachineFunctionE
__ZN4llvm17MachineModuleInfo11EndFunctionEv
__ZN4llvm10MCStreamer12AddBlankLineEv
__ZN4llvm23MachineFunctionAnalysis13releaseMemoryEv
__ZN4llvm15MachineFunctionD1Ev
__ZN4llvm17MachineBasicBlockD1Ev
__ZN4llvm19AArch64FunctionInfoD1Ev
__ZN4llvm24PseudoSourceValueManagerD2Ev
__ZNSt3__16__treeINS_12__value_typeIiNS_10unique_ptrIN4llvm27FixedStackPseudoSourceValueENS_14default_deleteIS4_EEEEEENS_19__map_value_compareIiS8_NS_4lessIiEELb1EEENS_9allocatorIS8_EEE7destroyEPNS_11__tree_nodeIS8_PvEE
__ZN4llvm27FixedStackPseudoSourceValueD0Ev
__ZN4llvm8DenseMapIPNS_10BasicBlockES2_NS_12DenseMapInfoIS2_EENS_6detail12DenseMapPairIS2_S2_EEE16shrink_and_clearEv
__ZN4llvm8DenseMapIPNS_10BasicBlockENS_17DominatorTreeBaseIS1_E7InfoRecENS_12DenseMapInfoIS2_EENS_6detail12DenseMapPairIS2_S5_EEE16shrink_and_clearEv
__ZN4llvm8DenseMapIPNS_10BasicBlockENSt3__110unique_ptrINS_15DomTreeNodeBaseIS1_EENS3_14default_deleteIS6_EEEENS_12DenseMapInfoIS2_EENS_6detail12DenseMapPairIS2_S9_EEE16shrink_and_clearEv
__ZN4llvm9AAResults5ModelINS_17TypeBasedAAResultEED0Ev
__ZN4llvm9AAResults5ModelINS_21ScopedNoAliasAAResultEED0Ev
__ZN4llvm9AAResults5ModelINS_13BasicAAResultEED0Ev
__ZN4llvm12DenseMapBaseINS_8DenseMapIyjNS_12DenseMapInfoIyEENS_6detail12DenseMapPairIyjEEEEyjS3_S6_E20InsertIntoBucketImplERKyPS6_
__ZN4llvm8DenseMapIyjNS_12DenseMapInfoIyEENS_6detail12DenseMapPairIyjEEE4growEj
__ZN4llvm8DenseMapIPKNS_12MachineInstrEPNS_8MCSymbolENS_12DenseMapInfoIS3_EENS_6detail12DenseMapPairIS3_S5_EEE16shrink_and_clearEv
__ZN12_GLOBAL__N_115AArch64FastISel10emitLSR_riEN4llvm3MVTES2_jbyb
__ZN12_GLOBAL__N_115AArch64FastISel10fastEmit_iEN4llvm3MVTES2_jy
__ZN4llvm8FastISel10selectCastEPKNS_4UserEj
__ZN4llvm8FastISel14selectBinaryOpEPKNS_4UserEj
__ZN12_GLOBAL__N_115AArch64FastISel17foldXALUIntrinsicERN4llvm9AArch64CC8CondCodeEPKNS1_11InstructionEPKNS1_5ValueE
__ZN4llvm8FastISel16fastEmitInst_rriEjPKNS_19TargetRegisterClassEjbjby
__ZN4llvm8DenseMapIPKNS_10BasicBlockEPNS_4LoopENS_12DenseMapInfoIS3_EENS_6detail12DenseMapPairIS3_S5_EEE16shrink_and_clearEv
__ZN4llvm16SelectionDAGISel16SelectBasicBlockENS_14ilist_iteratorIKNS_11InstructionEEES4_Rb
__ZN4llvm19SelectionDAGBuilder5visitERKNS_11InstructionE
__ZN4llvm19SelectionDAGBuilder5visitEjRKNS_4UserE
__ZN4llvm19SelectionDAGBuilder8getValueEPKNS_5ValueE
__ZN4llvm12DenseMapBaseINS_8DenseMapIPKNS_5ValueENS_7SDValueENS_12DenseMapInfoIS4_EENS_6detail12DenseMapPairIS4_S5_EEEES4_S5_S7_SA_E20InsertIntoBucketImplERKS4_PSA_
__ZN4llvm8DenseMapIPKNS_5ValueENS_7SDValueENS_12DenseMapInfoIS3_EENS_6detail12DenseMapPairIS3_S4_EEE4growEj
__ZN4llvm19SelectionDAGBuilder15getCopyFromRegsEPKNS_5ValueEPNS_4TypeE
__ZN4llvm19SelectionDAGBuilder12getValueImplEPKNS_5ValueE
__ZN4llvm12SelectionDAG13getFrameIndexEiNS_3EVTEb
__ZN4llvm6SDNode16getValueTypeListENS_3EVTE
__ZN4llvm19SelectionDAGBuilder24resolveDanglingDebugInfoEPKNS_5ValueENS_7SDValueE
__ZN4llvm12DenseMapBaseINS_8DenseMapIPKNS_5ValueENS_19SelectionDAGBuilder17DanglingDebugInfoENS_12DenseMapInfoIS4_EENS_6detail12DenseMapPairIS4_S6_EEEES4_S6_S8_SB_E16FindAndConstructERKS4_
__ZN4llvm8DenseMapIPKNS_5ValueENS_19SelectionDAGBuilder17DanglingDebugInfoENS_12DenseMapInfoIS3_EENS_6detail12DenseMapPairIS3_S5_EEE4growEj
__ZN4llvm9AAResults5ModelINS_13BasicAAResultEE22pointsToConstantMemoryERKNS_14MemoryLocationEb
__ZN4llvm19GetUnderlyingObjectEPNS_5ValueERKNS_10DataLayoutEj
__ZN4llvm19SimplifyInstructionEPNS_11InstructionERKNS_10DataLayoutEPKNS_17TargetLibraryInfoEPKNS_13DominatorTreeEPNS_15AssumptionCacheE
__ZN4llvm23ConstantFoldInstructionEPNS_11InstructionERKNS_10DataLayoutEPKNS_17TargetLibraryInfoE
__ZN4llvm24ConstantFoldInstOperandsEjPNS_4TypeENS_8ArrayRefIPNS_8ConstantEEERKNS_10DataLayoutEPKNS_17TargetLibraryInfoE
__ZN4llvm9AAResults5ModelINS_21ScopedNoAliasAAResultEE22pointsToConstantMemoryERKNS_14MemoryLocationEb
__ZN4llvm9AAResults5ModelINS_17TypeBasedAAResultEE22pointsToConstantMemoryERKNS_14MemoryLocationEb
__ZN4llvm12SelectionDAG11getConstantEyNS_5SDLocENS_3EVTEbb
__ZN4llvm12SelectionDAG11getConstantERKNS_11ConstantIntENS_5SDLocENS_3EVTEbb
__ZN4llvm12SelectionDAG7getNodeEjNS_5SDLocENS_3EVTENS_7SDValueES3_PKNS_11SDNodeFlagsE
__ZN4llvm12SelectionDAG7getLoadENS_3EVTENS_5SDLocENS_7SDValueES3_NS_18MachinePointerInfoEbbbjRKNS_9AAMDNodesEPKNS_6MDNodeE
__ZN4llvm12SelectionDAG7getNodeEjNS_5SDLocENS_3EVTE
__ZN4llvm12SelectionDAG7getLoadENS_3ISD14MemIndexedModeENS1_11LoadExtTypeENS_3EVTENS_5SDLocENS_7SDValueES6_S6_NS_18MachinePointerInfoES4_bbbjRKNS_9AAMDNodesEPKNS_6MDNodeE
__ZN4llvm12SelectionDAG7getLoadENS_3ISD14MemIndexedModeENS1_11LoadExtTypeENS_3EVTENS_5SDLocENS_7SDValueES6_S6_S4_PNS_17MachineMemOperandE
__ZN4llvm12SelectionDAG9getVTListENS_3EVTES1_
__ZNK4llvm16FoldingSetNodeID6InternERNS_20BumpPtrAllocatorImplINS_15MallocAllocatorELm4096ELm4096EEE
__ZN4llvm12LSBaseSDNodeC2ENS_3ISD8NodeTypeEjNS_8DebugLocEPNS_7SDValueEjNS_8SDVTListENS1_14MemIndexedModeENS_3EVTEPNS_17MachineMemOperandE
__ZN4llvm12SelectionDAG7getNodeEjNS_5SDLocENS_3EVTENS_8ArrayRefINS_7SDValueEEEPKNS_11SDNodeFlagsE
__ZN4llvm12SelectionDAG7getNodeEjNS_5SDLocENS_3EVTENS_7SDValueE
__ZN4llvm12SelectionDAG9getVTListENS_8ArrayRefINS_3EVTEEE
__ZN4llvm12SelectionDAG7getNodeEjNS_5SDLocENS_8SDVTListENS_8ArrayRefINS_7SDValueEEE
__ZN4llvm12SelectionDAG9newSDNodeINS_11UnarySDNodeEJRjjNS_8DebugLocERNS_8SDVTListERNS_7SDValueEEEEPT_DpOT0_
__ZNK4llvm10FoldingSetINS_6SDNodeEE10NodeEqualsEPNS_14FoldingSetImpl4NodeERKNS_16FoldingSetNodeIDEjRS6_
__ZNK4llvm6SDNode7ProfileERNS_16FoldingSetNodeIDE
__ZL15AddNodeIDCustomRN4llvm16FoldingSetNodeIDEPKNS_6SDNodeE
__ZN4llvm12SelectionDAG14getSExtOrTruncENS_7SDValueENS_5SDLocENS_3EVTE
__ZN4llvm12SelectionDAG22FoldConstantArithmeticEjNS_5SDLocENS_3EVTEPNS_6SDNodeES4_
__ZN4llvm12SelectionDAG15GetBinarySDNodeEjNS_5SDLocENS_8SDVTListENS_7SDValueES3_PKNS_11SDNodeFlagsE
__ZN4llvm12BinarySDNodeC2EjjNS_8DebugLocENS_8SDVTListENS_7SDValueES3_
__ZN4llvm19SelectionDAGBuilder11visitSwitchERKNS_10SwitchInstE
__ZNSt3__16__sortIRZN4llvm19SelectionDAGBuilder15sortAndRangeifyERNS_6vectorINS2_11CaseClusterENS_9allocatorIS4_EEEEE3$_0PS4_EEvT0_SC_T_
__ZNSt3__17__sort3IRZN4llvm19SelectionDAGBuilder15sortAndRangeifyERNS_6vectorINS2_11CaseClusterENS_9allocatorIS4_EEEEE3$_0PS4_EEjT0_SC_SC_T_
__ZN4llvm19SelectionDAGBuilder26CopyValueToVirtualRegisterEPKNS_5ValueEj
__ZN4llvm12RegsForValueC2ERNS_11LLVMContextERKNS_14TargetLoweringERKNS_10DataLayoutEjPNS_4TypeE
__ZNK4llvm12RegsForValue13getCopyToRegsENS_7SDValueERNS_12SelectionDAGENS_5SDLocERS1_PS1_PKNS_5ValueENS_3ISD8NodeTypeE
__ZNK4llvm21AArch64TargetLowering10isZExtFreeENS_7SDValueENS_3EVTE
__ZNK4llvm21AArch64TargetLowering10isZExtFreeENS_3EVTES1_
__ZL14getCopyToPartsRN4llvm12SelectionDAGENS_5SDLocENS_7SDValueEPS3_jNS_3MVTEPKNS_5ValueENS_3ISD8NodeTypeE
__ZN4llvm12SelectionDAG12getCopyToRegENS_7SDValueENS_5SDLocEjS1_
__ZN4llvm12SelectionDAG11getRegisterEjNS_3EVTE
__ZN4llvm12SelectionDAG7getNodeEjNS_5SDLocENS_3EVTENS_7SDValueES3_S3_
__ZN4llvm12SelectionDAG9newSDNodeINS_13TernarySDNodeEJRjjNS_8DebugLocERNS_8SDVTListERNS_7SDValueES8_S8_EEEPT_DpOT0_
__ZN4llvm13TernarySDNodeC2EjjNS_8DebugLocENS_8SDVTListENS_7SDValueES3_S3_
__ZN4llvm19SelectionDAGBuilder15visitSwitchCaseERNS0_9CaseBlockEPNS_17MachineBasicBlockE
__ZN4llvm12SelectionDAG11getCondCodeENS_3ISD8CondCodeE
__ZN4llvm12SelectionDAG9FoldSetCCENS_3EVTENS_7SDValueES2_NS_3ISD8CondCodeENS_5SDLocE
__ZN4llvm12SelectionDAG28FoldConstantVectorArithmeticEjNS_5SDLocENS_3EVTENS_8ArrayRefINS_7SDValueEEEPKNS_11SDNodeFlagsE
__ZN4llvm17BranchProbability22normalizeProbabilitiesINSt3__111__wrap_iterIPS0_EEEEvT_S6_
__ZN4llvm19SelectionDAGBuilder14getControlRootEv
__ZN4llvm12SelectionDAG13getBasicBlockEPNS_17MachineBasicBlockE
__ZNSt3__16vectorIN4llvm19SelectionDAGBuilder9CaseBlockENS_9allocatorIS3_EEE21__push_back_slow_pathIRKS3_EEvOT_
__ZN4llvm19SelectionDAGBuilder5clearEv
__ZN4llvm16SelectionDAGISel17CodeGenAndEmitDAGEv
__ZN4llvm12SelectionDAG7CombineENS_12CombineLevelERNS_9AAResultsENS_10CodeGenOpt5LevelE
__ZN12_GLOBAL__N_111DAGCombiner13AddToWorklistEPN4llvm6SDNodeE
__ZN4llvm8DenseMapIPNS_6SDNodeEjNS_12DenseMapInfoIS2_EENS_6detail12DenseMapPairIS2_jEEE4growEj
__ZN12_GLOBAL__N_111DAGCombiner28recursivelyDeleteUnusedNodesEPN4llvm6SDNodeE
__ZN12_GLOBAL__N_111DAGCombiner7combineEPN4llvm6SDNodeE
__ZN12_GLOBAL__N_111DAGCombiner5visitEPN4llvm6SDNodeE
__ZN4llvm12SelectionDAG7getNodeEjNS_5SDLocENS_3EVTENS_7SDValueES3_S3_S3_S3_
__ZN4llvm12SelectionDAG9newSDNodeINS_6SDNodeEJRjjNS_8DebugLocERNS_8SDVTListERNS_8ArrayRefINS_7SDValueEEEEEEPT_DpOT0_
__ZN4llvm6SDNodeC2EjjNS_8DebugLocENS_8SDVTListENS_8ArrayRefINS_7SDValueEEE
__ZN4llvm12SelectionDAG17TransferDbgValuesENS_7SDValueES1_
__ZN4llvm12SelectionDAG18ReplaceAllUsesWithEPNS_6SDNodeES2_
__ZN4llvm12SelectionDAG21RemoveNodeFromCSEMapsEPNS_6SDNodeE
__ZN4llvm12SelectionDAG24AddModifiedNodeToCSEMapsEPNS_6SDNodeE
__ZNK4llvm10FoldingSetINS_6SDNodeEE14GetNodeProfileEPNS_14FoldingSetImpl4NodeERNS_16FoldingSetNodeIDE
__ZN4llvm12SelectionDAG17DAGUpdateListener11NodeUpdatedEPNS_6SDNodeE
__ZN4llvm9SetVectorIPNS_6SDNodeENS_11SmallVectorIS2_Lj16EEENS_8SmallSetIS2_Lj16ENSt3__14lessIS2_EEEEE6insertERKS2_
__ZN4llvm12SelectionDAG22DeleteNodeNotInCSEMapsEPNS_6SDNodeE
__ZN4llvm9SDDbgInfo5eraseEPKNS_6SDNodeE
__ZNK4llvm21AArch64TargetLowering18getSetCCResultTypeERKNS_10DataLayoutERNS_11LLVMContextENS_3EVTE
__ZNK4llvm14TargetLowering13SimplifySetCCENS_3EVTENS_7SDValueES2_NS_3ISD8CondCodeEbRNS0_15DAGCombinerInfoENS_5SDLocE
__ZNK4llvm21AArch64TargetLowering20isLegalICmpImmediateEx
__ZNK4llvm21AArch64TargetLowering19isLegalAddImmediateEx
__ZL25tryToFoldExtendOfConstantPN4llvm6SDNodeERKNS_14TargetLoweringERNS_12SelectionDAGEbb
__ZN4llvm12SelectionDAG10getExtLoadENS_3ISD11LoadExtTypeENS_5SDLocENS_3EVTENS_7SDValueES5_S4_PNS_17MachineMemOperandE
__ZNK4llvm10FoldingSetINS_12SDVTListNodeEE10NodeEqualsEPNS_14FoldingSetImpl4NodeERKNS_16FoldingSetNodeIDEjRS6_
__ZN12_GLOBAL__N_111DAGCombiner9CombineToEPN4llvm6SDNodeEPKNS1_7SDValueEjb
__ZN4llvm12SelectionDAG18ReplaceAllUsesWithEPNS_6SDNodeEPKNS_7SDValueE
__ZN4llvm12SelectionDAG18ReplaceAllUsesWithENS_7SDValueES1_
__ZN12_GLOBAL__N_111DAGCombiner18deleteAndRecombineEPN4llvm6SDNodeE
__ZN12_GLOBAL__N_111DAGCombiner15ExtendSetCCUsesERKN4llvm15SmallVectorImplIPNS1_6SDNodeEEENS1_7SDValueES8_NS1_5SDLocENS1_3ISD8NodeTypeE
__ZNK4llvm16AArch64Subtarget5useAAEv
__ZN12_GLOBAL__N_111DAGCombiner28CombineToPreIndexedLoadStoreEPN4llvm6SDNodeE
__ZN12_GLOBAL__N_111DAGCombiner29CombineToPostIndexedLoadStoreEPN4llvm6SDNodeE
__ZN12_GLOBAL__N_111DAGCombiner11SliceUpLoadEPN4llvm6SDNodeE
__ZN12_GLOBAL__N_111DAGCombiner14ReassociateOpsEjN4llvm5SDLocENS1_7SDValueES3_
__ZN12_GLOBAL__N_111DAGCombiner20SimplifyDemandedBitsEN4llvm7SDValueE
__ZN12_GLOBAL__N_111DAGCombiner20SimplifyDemandedBitsEN4llvm7SDValueERKNS1_5APIntE
__ZNK4llvm14TargetLowering20SimplifyDemandedBitsENS_7SDValueERKNS_5APIntERS2_S5_RNS0_17TargetLoweringOptEj
__ZNK4llvm12SelectionDAG16computeKnownBitsENS_7SDValueERNS_5APIntES3_j
__ZNK4llvm5APIntcoEv
__ZN4llvm5APIntoRERKS0_
__ZNK4llvm5APInt10intersectsERKS0_
__ZN4llvm14TargetLowering17TargetLoweringOpt16ShrinkDemandedOpENS_7SDValueEjRKNS_5APIntENS_5SDLocE
__ZN4llvm5APInt14getHighBitsSetEjj
__ZNK4llvm12SelectionDAG19haveNoCommonBitsSetENS_7SDValueES1_
__ZNK4llvm21AArch64TargetLowering17PerformDAGCombineEPNS_6SDNodeERNS_14TargetLowering15DAGCombinerInfoE
__ZN4llvm12SelectionDAG15getNodeIfExistsEjNS_8SDVTListENS_8ArrayRefINS_7SDValueEEEPKNS_11SDNodeFlagsE
__ZN4llvm12SelectionDAG15RemoveDeadNodesEv
__ZN4llvm12SelectionDAG15RemoveDeadNodesERNS_15SmallVectorImplIPNS_6SDNodeEEE
__ZN4llvm12SelectionDAG13LegalizeTypesEv
__ZN4llvm16DAGTypeLegalizer3runEv
__ZN4llvm12SelectionDAG15LegalizeVectorsEv
__ZN4llvm12SelectionDAG8LegalizeEv
__ZN4llvm12SelectionDAG22AssignTopologicalOrderEv
__ZN12_GLOBAL__N_120SelectionDAGLegalize10LegalizeOpEPN4llvm6SDNodeE
__ZNK4llvm21AArch64TargetLowering14LowerOperationENS_7SDValueERNS_12SelectionDAGE
__ZL13getAArch64CmpN4llvm7SDValueES0_NS_3ISD8CondCodeERS0_RNS_12SelectionDAGENS_5SDLocE
__ZL14emitComparisonN4llvm7SDValueES0_NS_3ISD8CondCodeENS_5SDLocERNS_12SelectionDAGE
__ZN4llvm12SelectionDAG7getNodeEjNS_5SDLocENS_8SDVTListENS_7SDValueES3_
__ZN4llvm12SelectionDAG9newSDNodeINS_12BinarySDNodeEJRjjNS_8DebugLocERNS_8SDVTListERKNS_7SDValueES9_EEEPT_DpOT0_
__ZN4llvm12SelectionDAG7getNodeEjNS_5SDLocENS_3EVTENS_7SDValueES3_S3_S3_
__ZN12_GLOBAL__N_120SelectionDAGLegalize11ReplaceNodeEN4llvm7SDValueES2_
__ZN12_GLOBAL__N_120SelectionDAGLegalize15LegalizeLoadOpsEPN4llvm6SDNodeE
__ZNK4llvm3EVT13getTypeForEVTERNS_11LLVMContextE
__ZL18performCONDCombinePN4llvm6SDNodeERNS_14TargetLowering15DAGCombinerInfoERNS_12SelectionDAGEjj
__ZNK4llvm14TargetLowering20isTypeDesirableForOpEjNS_3EVTE
__ZL7isSetCCN4llvm7SDValueER16SetCCInfoAndKind
__ZN4llvm16SelectionDAGISel17PreprocessISelDAGEv
__ZN12_GLOBAL__N_119AArch64DAGToDAGISel6SelectEPN4llvm6SDNodeE
__ZN4llvm16SelectionDAGISel16SelectCodeCommonEPNS_6SDNodeEPKhj
__ZNSt3__16vectorIjNS_9allocatorIjEEE8__appendEm
__ZL22HandleMergeInputChainsRN4llvm15SmallVectorImplIPNS_6SDNodeEEEPNS_12SelectionDAGE
__ZL14WalkChainUsersPKN4llvm6SDNodeERNS_15SmallVectorImplIPS0_EERNS_8DenseMapIS2_11ChainResultNS_12DenseMapInfoIS2_EENS_6detail12DenseMapPairIS2_S8_EEEES6_
__ZN4llvm12SelectionDAG11MorphNodeToEPNS_6SDNodeEjNS_8SDVTListENS_8ArrayRefINS_7SDValueEEE
__ZN4llvm16SelectionDAGISel19UpdateChainsAndGlueEPNS_6SDNodeENS_7SDValueERKNS_15SmallVectorImplIS2_EES3_S7_b
__ZN4llvm12SelectionDAG12getCopyToRegENS_7SDValueENS_5SDLocEjS1_S1_
__ZN4llvm12SelectionDAG9newSDNodeINS_13TernarySDNodeEJRjjNS_8DebugLocERNS_8SDVTListERKNS_7SDValueES9_S9_EEEPT_DpOT0_
__ZN12_GLOBAL__N_111ISelUpdater11NodeDeletedEPN4llvm6SDNodeES3_
__ZNK4llvm16SelectionDAGISel28ComplexPatternFuncMutatesDAGEv
__ZN12_GLOBAL__N_119AArch64DAGToDAGISel19CheckComplexPatternEPN4llvm6SDNodeES3_NS1_7SDValueEjRNS1_15SmallVectorImplINSt3__14pairIS4_S3_EEEE
__ZN12_GLOBAL__N_119AArch64DAGToDAGISel27SelectArithExtendedRegisterEN4llvm7SDValueERS2_S3_
__ZL20getExtendTypeForNodeN4llvm7SDValueEb
__ZN12_GLOBAL__N_119AArch64DAGToDAGISel19SelectNegArithImmedEN4llvm7SDValueERS2_S3_
__ZN12_GLOBAL__N_119AArch64DAGToDAGISel16SelectArithImmedEN4llvm7SDValueERS2_S3_
__ZNK12_GLOBAL__N_119AArch64DAGToDAGISel18CheckNodePredicateEPN4llvm6SDNodeEj
__ZN12_GLOBAL__N_119AArch64DAGToDAGISel17SelectAddrModeWROEN4llvm7SDValueEjRS2_S3_S3_S3_
__ZN12_GLOBAL__N_119AArch64DAGToDAGISel17SelectAddrModeXROEN4llvm7SDValueEjRS2_S3_S3_S3_
__ZN12_GLOBAL__N_119AArch64DAGToDAGISel21SelectAddrModeIndexedEN4llvm7SDValueEjRS2_S3_
__ZN4llvm16SelectionDAGISel18PostprocessISelDAGEv
__ZN4llvm22createDefaultSchedulerEPNS_16SelectionDAGISelENS_10CodeGenOpt5LevelE
__ZNK4llvm19TargetSubtargetInfo15getDAGSchedulerENS_10CodeGenOpt5LevelE
__ZN12_GLOBAL__N_117ScheduleDAGRRListC1ERN4llvm15MachineFunctionEbPNS1_23SchedulingPriorityQueueENS1_10CodeGenOpt5LevelE
__ZN4llvm11ScheduleDAG8clearDAGEv
__ZN4llvm15SmallVectorImplINS_4SDepEEaSEOS2_
__ZN12_GLOBAL__N_117ScheduleDAGRRList8ScheduleEv
__ZN4llvm18ScheduleDAGSDNodes15BuildSchedGraphEPNS_9AAResultsE
__ZNK4llvm15TargetInstrInfo23areLoadsFromSameBasePtrEPNS_6SDNodeES2_RxS3_
__ZNSt3__16vectorIN4llvm5SUnitENS_9allocatorIS2_EEE7reserveEm
__ZN4llvm18ScheduleDAGSDNodes8newSUnitEPNS_6SDNodeE
__ZNK4llvm18TargetLoweringBase23getSchedulingPreferenceEPNS_6SDNodeE
__ZN4llvm18ScheduleDAGSDNodes18InitNumRegDefsLeftEPNS_5SUnitE
__ZN4llvm18ScheduleDAGSDNodes10RegDefIter7AdvanceEv
__ZN4llvm18ScheduleDAGSDNodes14computeLatencyEPNS_5SUnitE
__ZNK12_GLOBAL__N_117ScheduleDAGRRList18forceUnitLatenciesEv
__ZN4llvm5SUnit7addPredERKNS_4SDepEb
__ZN4llvm5SUnit13setDepthDirtyEv
__ZN4llvm5SUnit14setHeightDirtyEv
__ZNK4llvm18TargetRegisterInfo22getMinimalPhysRegClassEjNS_3MVTE
__ZN4llvm26ScheduleDAGTopologicalSort25InitDAGTopologicalSortingEv
__ZNSt3__16vectorIiNS_9allocatorIiEEE8__appendEm
__ZN12_GLOBAL__N_118RegReductionPQBase9initNodesERNSt3__16vectorIN4llvm5SUnitENS1_9allocatorIS4_EEEE
__ZL25CalcNodeSethiUllmanNumberPKN4llvm5SUnitERNSt3__16vectorIjNS3_9allocatorIjEEEE
__ZN4llvm24ScheduleHazardRecognizer5ResetEv
__ZN12_GLOBAL__N_117ScheduleDAGRRList20ListScheduleBottomUpEv
__ZN12_GLOBAL__N_117ScheduleDAGRRList19ReleasePredecessorsEPN4llvm5SUnitE
__ZN12_GLOBAL__N_118RegReductionPQBase4pushEPN4llvm5SUnitE
__ZNSt3__16vectorIPN4llvm5SUnitENS_9allocatorIS3_EEE21__push_back_slow_pathIRKS3_EEvOT_
__ZNK12_GLOBAL__N_118RegReductionPQBase5emptyEv
__ZN12_GLOBAL__N_125RegReductionPriorityQueueINS_14src_ls_rr_sortEE3popEv
__ZN4llvm5SUnit13ComputeHeightEv
__ZN4llvm24ScheduleHazardRecognizer13getHazardTypeEPNS_5SUnitEi
__ZN12_GLOBAL__N_118RegReductionPQBase13scheduledNodeEPN4llvm5SUnitE
__ZN12_GLOBAL__N_117ScheduleDAGRRList14ReleasePendingEv
__ZL8BURRSortPN4llvm5SUnitES1_PN12_GLOBAL__N_118RegReductionPQBaseE
__ZL18CheckForLiveRegDefPN4llvm5SUnitEjPS1_RNS_8SmallSetIjLj4ENSt3__14lessIjEEEERNS_15SmallVectorImplIjEEPKNS_18TargetRegisterInfoE
__ZN12_GLOBAL__N_117ScheduleDAGRRList20releaseInterferencesEj
__ZN12_GLOBAL__N_118RegReductionPQBase12releaseStateEv
__ZN4llvm18ScheduleDAGSDNodes12EmitScheduleERNS_17MachineBasicBlock15bundle_iteratorINS_12MachineInstrENS_14ilist_iteratorIS3_EEEE
__ZN4llvm12InstrEmitter15EmitMachineNodeEPNS_6SDNodeEbbRNS_8DenseMapINS_7SDValueEjNS_12DenseMapInfoIS4_EENS_6detail12DenseMapPairIS4_jEEEE
__ZN4llvm12DenseMapBaseINS_8DenseMapINS_7SDValueEjNS_12DenseMapInfoIS2_EENS_6detail12DenseMapPairIS2_jEEEES2_jS4_S7_E6insertEONSt3__14pairIS2_jEE
__ZN4llvm12DenseMapBaseINS_8DenseMapINS_7SDValueEjNS_12DenseMapInfoIS2_EENS_6detail12DenseMapPairIS2_jEEEES2_jS4_S7_E20InsertIntoBucketImplERKS2_PS7_
__ZN4llvm8DenseMapINS_7SDValueEjNS_12DenseMapInfoIS1_EENS_6detail12DenseMapPairIS1_jEEE4growEj
__ZN4llvm12InstrEmitter10AddOperandERNS_19MachineInstrBuilderENS_7SDValueEjPKNS_11MCInstrDescERNS_8DenseMapIS3_jNS_12DenseMapInfoIS3_EENS_6detail12DenseMapPairIS3_jEEEEbbb
__ZN4llvm12InstrEmitter18AddRegisterOperandERNS_19MachineInstrBuilderENS_7SDValueEjPKNS_11MCInstrDescERNS_8DenseMapIS3_jNS_12DenseMapInfoIS3_EENS_6detail12DenseMapPairIS3_jEEEEbbb
__ZN4llvm12InstrEmitter5getVRENS_7SDValueERNS_8DenseMapIS1_jNS_12DenseMapInfoIS1_EENS_6detail12DenseMapPairIS1_jEEEE
__ZN4llvm12InstrEmitter15EmitSpecialNodeEPNS_6SDNodeEbbRNS_8DenseMapINS_7SDValueEjNS_12DenseMapInfoIS4_EENS_6detail12DenseMapPairIS4_jEEEE
__ZN4llvm12InstrEmitter15EmitCopyFromRegEPNS_6SDNodeEjbbjRNS_8DenseMapINS_7SDValueEjNS_12DenseMapInfoIS4_EENS_6detail12DenseMapPairIS4_jEEEE
__ZN12_GLOBAL__N_117ScheduleDAGRRListD0Ev
__ZN12_GLOBAL__N_117ScheduleDAGRRListD1Ev
__ZN4llvm24ScheduleHazardRecognizerD0Ev
__ZN12_GLOBAL__N_125RegReductionPriorityQueueINS_14src_ls_rr_sortEED0Ev
__ZN12_GLOBAL__N_125RegReductionPriorityQueueINS_14src_ls_rr_sortEED1Ev
__ZN4llvm11ScheduleDAGD2Ev
__ZN4llvm12SelectionDAG14allnodes_clearEv
__ZNSt3__16__treeINS_12__value_typeIN4llvm3EVTEPNS2_6SDNodeEEENS_19__map_value_compareIS3_S6_NS3_14compareRawBitsELb1EEENS_9allocatorIS6_EEE7destroyEPNS_11__tree_nodeIS6_PvEE
__ZNSt3__16__treeINS_12__value_typeINS_4pairINS_12basic_stringIcNS_11char_traitsIcEENS_9allocatorIcEEEEhEEPN4llvm6SDNodeEEENS_19__map_value_compareIS9_SD_NS_4lessIS9_EELb1EEENS6_ISD_EEE7destroyEPNS_11__tree_nodeISD_PvEE
__ZNK4llvm12RegsForValue15getCopyFromRegsERNS_12SelectionDAGERNS_20FunctionLoweringInfoENS_5SDLocERNS_7SDValueEPS6_PKNS_5ValueE
__ZN4llvm12SelectionDAG14getCopyFromRegENS_7SDValueENS_5SDLocEjNS_3EVTE
__ZL16getCopyFromPartsRN4llvm12SelectionDAGENS_5SDLocEPKNS_7SDValueEjNS_3MVTENS_3EVTEPKNS_5ValueENS_3ISD8NodeTypeE
__ZN4llvm19SelectionDAGBuilder7getRootEv
__ZN12_GLOBAL__N_111DAGCombiner8visitXOREPN4llvm6SDNodeE
__ZNK4llvm14TargetLowering14isConstTrueValEPKNS_6SDNodeE
__ZNK12_GLOBAL__N_111DAGCombiner17isSetCCEquivalentEN4llvm7SDValueERS2_S3_S3_
__ZN4llvm8DenseMapIPKNS_5ValueEjNS_12DenseMapInfoIS3_EENS_6detail12DenseMapPairIS3_jEEE16shrink_and_clearEv
__ZN4llvm8DenseMapIjjNS_12DenseMapInfoIjEENS_6detail12DenseMapPairIjjEEE16shrink_and_clearEv
__ZN4llvm12DenseMapBaseINS_8DenseMapIPKNS_10AllocaInstEiNS_12DenseMapInfoIS4_EENS_6detail12DenseMapPairIS4_iEEEES4_iS6_S9_E18moveFromOldBucketsEPS9_SC_
__ZN12_GLOBAL__N_115AArch64FastISel13emitAddSub_rsEbN4llvm3MVTEjbjbNS1_10AArch64_AM15ShiftExtendTypeEybb
__ZN4llvm8FastISel12fastEmit_ri_ENS_3MVTEjjbyS1_
__ZN4llvm8FastISel11fastEmit_riENS_3MVTES1_jjby
__ZN12_GLOBAL__N_115AArch64FastISel16emitLogicalOp_rsEjN4llvm3MVTEjbjby
__ZN12_GLOBAL__N_115AArch64FastISel10fastEmit_rEN4llvm3MVTES2_jjb
__ZN4llvm8FastISel26fastEmitInst_extractsubregENS_3MVTEjbj
__ZNK4llvm22AArch64GenRegisterInfo21getSubClassWithSubRegEPKNS_19TargetRegisterClassEj
__ZNSt3__16vectorINS_4pairIPN4llvm4TypeEPKS4_EENS_9allocatorIS7_EEE21__push_back_slow_pathIS7_EEvOT_
__ZN4llvm11po_iteratorIPNS_4TypeENS_11SmallPtrSetIS2_Lj8EEELb0ENS_11GraphTraitsIS2_EEE13traverseChildEv
__ZNK4llvm13TargetMachine16getIntrinsicInfoEv
__ZN4llvm12SelectionDAG16getGlobalAddressEPKNS_11GlobalValueENS_5SDLocENS_3EVTExbh
__ZN4llvm19SelectionDAGBuilder11LowerCallToENS_17ImmutableCallSiteENS_7SDValueEbPKNS_10BasicBlockE
__ZN4llvm14TargetLowering12ArgListEntry13setAttributesEPNS_17ImmutableCallSiteEj
__ZN4llvm19SelectionDAGBuilder14lowerInvokableERNS_14TargetLowering16CallLoweringInfoEPKNS_10BasicBlockE
__ZNK4llvm14TargetLowering11LowerCallToERNS0_16CallLoweringInfoE
__ZNK4llvm21AArch64TargetLowering9LowerCallERNS_14TargetLowering16CallLoweringInfoERNS_15SmallVectorImplINS_7SDValueEEE
__ZL20CC_AArch64_DarwinPCSjN4llvm3MVTES0_NS_11CCValAssign7LocInfoENS_3ISD10ArgFlagsTyERNS_7CCStateE.4612
__ZL27CC_AArch64_DarwinPCS_VarArgjN4llvm3MVTES0_NS_11CCValAssign7LocInfoENS_3ISD10ArgFlagsTyERNS_7CCStateE
__ZN4llvm12SelectionDAG17getIntPtrConstantEyNS_5SDLocEb
__ZN4llvm12SelectionDAG16getCALLSEQ_STARTENS_7SDValueES1_NS_5SDLocE
__ZN4llvm12SelectionDAG8getStoreENS_7SDValueENS_5SDLocES1_S1_NS_18MachinePointerInfoEbbjRKNS_9AAMDNodesE
__ZN4llvm12SelectionDAG8getStoreENS_7SDValueENS_5SDLocES1_S1_PNS_17MachineMemOperandE
__ZN4llvm12SelectionDAG9newSDNodeINS_11StoreSDNodeEJRA4_NS_7SDValueEjNS_8DebugLocERNS_8SDVTListENS_3ISD14MemIndexedModeEbRNS_3EVTERPNS_17MachineMemOperandEEEEPT_DpOT0_
__ZN4llvm12SelectionDAG15getRegisterMaskEPKj
__ZN4llvm12SelectionDAG14getCALLSEQ_ENDENS_7SDValueES1_S1_S1_NS_5SDLocE
__ZN4llvm12SelectionDAG14getCopyFromRegENS_7SDValueENS_5SDLocEjNS_3EVTES1_
__ZN4llvm12SelectionDAG9getVTListENS_3EVTES1_S1_
__ZN4llvm14TargetLowering16CallLoweringInfoD2Ev
__ZN12_GLOBAL__N_111DAGCombiner10visitSTOREEPN4llvm6SDNodeE
__ZN12_GLOBAL__N_120SelectionDAGLegalize16LegalizeStoreOpsEPN4llvm6SDNodeE
__ZNK4llvm21AArch64TargetLowering26getPostIndexedAddressPartsEPNS_6SDNodeES2_RNS_7SDValueES4_RNS_3ISD14MemIndexedModeERNS_12SelectionDAGE
__ZL23canFoldInAddressingModePN4llvm6SDNodeES1_RNS_12SelectionDAGERKNS_14TargetLoweringE
__ZNK4llvm21AArch64TargetLowering21isLegalAddressingModeERKNS_10DataLayoutERKNS_18TargetLoweringBase8AddrModeEPNS_4TypeEj
__ZN4llvm12SelectionDAG25ReplaceAllUsesOfValueWithENS_7SDValueES1_
__ZN4llvm8DenseMapIPKNS_6SDNodeE11ChainResultNS_12DenseMapInfoIS3_EENS_6detail12DenseMapPairIS3_S4_EEE4growEj
__ZN12_GLOBAL__N_119AArch64DAGToDAGISel22SelectAddrModeUnscaledEN4llvm7SDValueEjRS2_S3_
__ZL16FindCallSeqStartPN4llvm6SDNodeERjS2_PKNS_15TargetInstrInfoE
__ZN4llvm12DenseMapBaseINS_8DenseMapIPNS_5SUnitES3_NS_12DenseMapInfoIS3_EENS_6detail12DenseMapPairIS3_S3_EEEES3_S3_S5_S8_E20InsertIntoBucketImplERKS3_PS8_
__ZN4llvm8DenseMapIPNS_5SUnitES2_NS_12DenseMapInfoIS2_EENS_6detail12DenseMapPairIS2_S2_EEE4growEj
__ZL11closestSuccPKN4llvm5SUnitE
__ZL16BUCompareLatencyPN4llvm5SUnitES1_bPN12_GLOBAL__N_118RegReductionPQBaseE
__ZN4llvm5SUnit12ComputeDepthEv
__ZN4llvm7BuildMIERNS_15MachineFunctionENS_8DebugLocERKNS_11MCInstrDescEbjjPKNS_6MDNodeES8_
__ZNK4llvm12MachineInstr13isIdenticalToEPKS0_NS0_11MICheckTypeE
__ZNK4llvm14MachineOperand13isIdenticalToERKS0_
__ZN4llvm12MachineInstr17addRegisterKilledEjPKNS_18TargetRegisterInfoEb
__ZN4llvm15SmallVectorImplIPNS_12MachineInstrEEaSEOS3_
__ZNK4llvm12DenseMapBaseINS_13SmallDenseMapINSt3__14pairIPKNS_15DILocalVariableEPKNS_10DILocationEEEjLj8ENS_12DenseMapInfoISA_EENS_6detail12DenseMapPairISA_jEEEESA_jSC_SF_E15LookupBucketForISA_EEbRKT_RPKSF_
__ZN4llvm15SparseBitVectorILj128EE3setEj
__ZN4llvm15SparseBitVectorILj128EE23SparseBitVectorIterator20AdvanceToNextNonZeroEv
__ZNK4llvm12DenseMapBaseINS_8DenseMapINSt3__14pairIPKNS_15DILocalVariableEPKNS_10DILocationEEEjNS_12DenseMapInfoISA_EENS_6detail12DenseMapPairISA_jEEEESA_jSC_SF_E15LookupBucketForISA_EEbRKT_RPKSF_
__ZN4llvm9MapVectorINSt3__14pairIPKNS_15DILocalVariableEPKNS_10DILocationEEENS_11SmallVectorINS2_IPKNS_12MachineInstrESD_EELj4EEENS_8DenseMapIS9_jNS_12DenseMapInfoIS9_EENS_6detail12DenseMapPairIS9_jEEEENS1_6vectorINS2_IS9_SF_EENS1_9allocatorISO_EEEEEixERKS9_
__ZN4llvm8DenseMapINSt3__14pairIPKNS_15DILocalVariableEPKNS_10DILocationEEEjNS_12DenseMapInfoIS9_EENS_6detail12DenseMapPairIS9_jEEE4growEj
__ZL19clobberRegisterUsesRNSt3__13mapIjN4llvm11SmallVectorINS_4pairIPKNS1_15DILocalVariableEPKNS1_10DILocationEEELj1EEENS_4lessIjEENS_9allocatorINS3_IKjSB_EEEEEENS_14__map_iteratorINS_15__tree_iteratorINS_12__value_typeIjSB_EEPNS_11__tree_nodeISN_PvEElEEEERNS1_18DbgValueHistoryMapERKNS1_12MachineInstrE
__ZNK4llvm29TargetLoweringObjectFileMachO17getNameWithPrefixERNS_15SmallVectorImplIcEEPKNS_11GlobalValueERNS_7ManglerERKNS_13TargetMachineE
__ZNK4llvm8Constant15needsRelocationEv
__ZNK4llvm10DataLayout21getPreferredAlignmentEPKNS_14GlobalVariableE
__ZNK4llvm15MCAsmInfoDarwin28isSectionAtomizableBySymbolsERKNS_9MCSectionE
__ZN4llvm23SmallVectorTemplateBaseINSt3__110unique_ptrINS_11DbgVariableENS1_14default_deleteIS3_EEEELb0EE4growEm
__ZN4llvm8DenseMapIjNS_11SmallVectorIPNS_12MachineInstrELj4EEENS_12DenseMapInfoIjEENS_6detail12DenseMapPairIjS4_EEE16shrink_and_clearEv
__ZN4llvm19SelectionDAGBuilder11visitBinaryERKNS_4UserEj
__ZNSt3__17__sort4IRZN4llvm19SelectionDAGBuilder15sortAndRangeifyERNS_6vectorINS2_11CaseClusterENS_9allocatorIS4_EEEEE3$_0PS4_EEjT0_SC_SC_SC_T_
__ZN4llvm19SelectionDAGBuilder7isDenseERKNSt3__16vectorINS0_11CaseClusterENS1_9allocatorIS3_EEEEPjjjj
__ZN4llvm19SelectionDAGBuilder14buildJumpTableERNSt3__16vectorINS0_11CaseClusterENS1_9allocatorIS3_EEEEjjPKNS_10SwitchInstEPNS_17MachineBasicBlockERS3_
__ZN4llvm12DenseMapBaseINS_8DenseMapIPNS_17MachineBasicBlockENS_17BranchProbabilityENS_12DenseMapInfoIS3_EENS_6detail12DenseMapPairIS3_S4_EEEES3_S4_S6_S9_E20InsertIntoBucketImplERKS3_PS9_
__ZN4llvm8DenseMapIPNS_17MachineBasicBlockENS_17BranchProbabilityENS_12DenseMapInfoIS2_EENS_6detail12DenseMapPairIS2_S3_EEE4growEj
__ZN4llvm19SelectionDAGBuilder15rangeFitsInWordERKNS_5APIntES3_
__ZNK4llvm14TargetLowering20getJumpTableEncodingEv
__ZN4llvm20MachineJumpTableInfo20createJumpTableIndexERKNSt3__16vectorIPNS_17MachineBasicBlockENS1_9allocatorIS4_EEEE
__ZN4llvm19SelectionDAGBuilder20visitJumpTableHeaderERNS0_9JumpTableERNS0_15JumpTableHeaderEPNS_17MachineBasicBlockE
__ZN4llvm12SelectionDAG14getZExtOrTruncENS_7SDValueENS_5SDLocENS_3EVTE
__ZNK4llvm5APIntmiEy
__ZN12_GLOBAL__N_111DAGCombiner16visitZERO_EXTENDEPN4llvm6SDNodeE
__ZN12_GLOBAL__N_111DAGCombiner14CombineExtLoadEPN4llvm6SDNodeE
__ZN4llvm5APIntaNERKS0_
__ZNK4llvm12SelectionDAG17MaskedValueIsZeroENS_7SDValueERKNS_5APIntEj
__ZN12_GLOBAL__N_111DAGCombiner16isAndLoadExtLoadEPN4llvm14ConstantSDNodeEPNS1_10LoadSDNodeENS1_3EVTERS6_S7_Rb
__ZNK4llvm18TargetLoweringBase21shouldReduceLoadWidthEPNS_6SDNodeENS_3ISD11LoadExtTypeENS_3EVTE
__ZN4llvm12SelectionDAG10getExtLoadENS_3ISD11LoadExtTypeENS_5SDLocENS_3EVTENS_7SDValueES5_NS_18MachinePointerInfoES4_bbbjRKNS_9AAMDNodesE
__ZN4llvm7BuildMIERNS_15MachineFunctionENS_8DebugLocERKNS_11MCInstrDescEj
__ZN4llvm19SelectionDAGBuilder14visitJumpTableERNS0_9JumpTableE
__ZN4llvm12SelectionDAG12getJumpTableEiNS_3EVTEbh
__ZN12_GLOBAL__N_120SelectionDAGLegalize10ExpandNodeEPN4llvm6SDNodeE
__ZNK4llvm14TargetLowering24getPICJumpTableRelocBaseENS_7SDValueERNS_12SelectionDAGE
__ZN12_GLOBAL__N_120SelectionDAGLegalize11ReplaceNodeEPN4llvm6SDNodeEPKNS1_7SDValueE
__ZNK4llvm21AArch64TargetLowering29computeKnownBitsForTargetNodeENS_7SDValueERNS_5APIntES3_RKNS_12SelectionDAGEj
__ZN12_GLOBAL__N_111DAGCombiner16getShiftAmountTyEN4llvm3EVTE
__ZNK4llvm21AArch64TargetLowering22getScalarShiftAmountTyERKNS_10DataLayoutENS_3EVTE
__ZNK4llvm5APInt4lshrEj
__ZN4llvm5APIntlSEj
__ZN4llvm12SelectionDAG21getShiftAmountOperandENS_3EVTENS_7SDValueE
__ZN4llvm12SelectionDAG18UpdateNodeOperandsEPNS_6SDNodeENS_7SDValueES3_
__ZN12_GLOBAL__N_111DAGCombiner20visitShiftByConstantEPN4llvm6SDNodeEPNS1_14ConstantSDNodeE
__ZN12_GLOBAL__N_119AArch64DAGToDAGISel21SelectShiftedRegisterEN4llvm7SDValueEbRS2_S3_
__ZN12_GLOBAL__N_119AArch64DAGToDAGISel17SelectExtendedSHLEN4llvm7SDValueEjbRS2_S3_
__ZN12_GLOBAL__N_115AArch64FastISel9selectRemEPKN4llvm11InstructionEj
__ZN4llvm19SelectionDAGBuilder18visitIntrinsicCallERKNS_8CallInstEj
__ZN4llvm19SelectionDAGBuilder24EmitFuncArgumentDbgValueEPKNS_5ValueEPNS_15DILocalVariableEPNS_12DIExpressionEPNS_10DILocationExbRKNS_7SDValueE
__ZN4llvm12SelectionDAG21getFrameIndexDbgValueEPNS_6MDNodeES2_jyNS_8DebugLocEj
__ZN4llvm19SelectionDAGBuilder10visitShiftERKNS_4UserEj
__ZN12_GLOBAL__N_111DAGCombiner12visitANDLikeEN4llvm7SDValueES2_PNS1_6SDNodeE
__ZN4llvm14TargetLowering17TargetLoweringOpt22ShrinkDemandedConstantENS_7SDValueERKNS_5APIntE
__ZNK4llvm5APIntplEy
__ZN4llvm12SelectionDAG22FoldConstantArithmeticEjNS_5SDLocENS_3EVTEPKNS_14ConstantSDNodeES5_
__ZL9FoldValuejRKN4llvm5APIntES2_
__ZL19isBitfieldExtractOpPN4llvm12SelectionDAGEPNS_6SDNodeERjRNS_7SDValueES4_S4_jb
__ZL23isBitfieldPositioningOpPN4llvm12SelectionDAGENS_7SDValueEbRS2_RiS4_
__ZN12_GLOBAL__N_119AArch64DAGToDAGISel14RunSDNodeXFormEN4llvm7SDValueEj
__ZN4llvm12SelectionDAG14getMachineNodeEjNS_5SDLocENS_8SDVTListENS_8ArrayRefINS_7SDValueEEE
__ZL17ProcessSourceNodePN4llvm6SDNodeEPNS_12SelectionDAGERNS_12InstrEmitterERNS_8DenseMapINS_7SDValueEjNS_12DenseMapInfoIS7_EENS_6detail12DenseMapPairIS7_jEEEERNS_15SmallVectorImplINSt3__14pairIjPNS_12MachineInstrEEEEERNS_8SmallSetIjLj8ENSG_4lessIjEEEE
__ZN4llvm8SmallSetIjLj8ENSt3__14lessIjEEE6insertERKj
__ZL18ProcessSDDbgValuesPN4llvm6SDNodeEPNS_12SelectionDAGERNS_12InstrEmitterERNS_15SmallVectorImplINSt3__14pairIjPNS_12MachineInstrEEEEERNS_8DenseMapINS_7SDValueEjNS_12DenseMapInfoISF_EENS_6detail12DenseMapPairISF_jEEEEj
__ZNSt3__16__treeIjNS_4lessIjEENS_9allocatorIjEEE15__insert_uniqueERKj
__ZNSt3__16__sortIRN4llvm10less_firstEPNS_4pairIjPNS1_12MachineInstrEEEEEvT0_S9_T_
__ZNSt3__127__insertion_sort_incompleteIRN4llvm10less_firstEPNS_4pairIjPNS1_12MachineInstrEEEEEbT0_S9_T_
__ZN4llvm12InstrEmitter12EmitDbgValueEPNS_10SDDbgValueERNS_8DenseMapINS_7SDValueEjNS_12DenseMapInfoIS4_EENS_6detail12DenseMapPairIS4_jEEEE
__ZN12_GLOBAL__N_115AArch64FastISel10emitASR_riEN4llvm3MVTES2_jbyb
__ZN4llvm13SmallDenseMapINSt3__14pairIPKNS_15DILocalVariableEPKNS_10DILocationEEEjLj8ENS_12DenseMapInfoIS9_EENS_6detail12DenseMapPairIS9_jEEE4growEj
__ZN4llvm12DenseMapBaseINS_13SmallDenseMapINSt3__14pairIPKNS_15DILocalVariableEPKNS_10DILocationEEEjLj8ENS_12DenseMapInfoISA_EENS_6detail12DenseMapPairISA_jEEEESA_jSC_SF_E18moveFromOldBucketsEPSF_SI_
__ZN4llvm13SmallDenseMapIPKNS_17MachineBasicBlockENS_15SparseBitVectorILj128EEELj4ENS_12DenseMapInfoIS3_EENS_6detail12DenseMapPairIS3_S5_EEE4growEj
__ZN4llvm12DenseMapBaseINS_13SmallDenseMapIPKNS_17MachineBasicBlockENS_15SparseBitVectorILj128EEELj4ENS_12DenseMapInfoIS4_EENS_6detail12DenseMapPairIS4_S6_EEEES4_S6_S8_SB_E18moveFromOldBucketsEPSB_SE_
__ZNK4llvm15MachineFunction12getJTISymbolEjRNS_9MCContextEb
__ZNK4llvm24TargetLoweringObjectFile35shouldPutJumpTableInFunctionSectionEbRKNS_8FunctionE
__ZNK4llvm20MachineJumpTableInfo17getEntryAlignmentERKNS_10DataLayoutE
__ZN12_GLOBAL__N_115MCMachOStreamer14EmitDataRegionEN4llvm16MCDataRegionTypeE
__ZNK4llvm14TargetLowering28getPICJumpTableRelocBaseExprEPKNS_15MachineFunctionEjRNS_9MCContextE
__ZNK4llvm10AsmPrinter14GetJTSetSymbolEjj
__ZN4llvm16MCObjectStreamer14EmitAssignmentEPNS_8MCSymbolEPKNS_6MCExprE
__ZNK4llvm10AsmPrinter18EmitJumpTableEntryEPKNS_20MachineJumpTableInfoEPKNS_17MachineBasicBlockEj
__ZN4llvm16MCObjectStreamer13EmitValueImplEPKNS_6MCExprEjNS_5SMLocE
__ZNK4llvm6MCExpr25evaluateAsRelocatableImplERNS_7MCValueEPKNS_11MCAssemblerEPKNS_11MCAsmLayoutEPKNS_7MCFixupEPKNS_8DenseMapIPKNS_9MCSectionEyNS_12DenseMapInfoISF_EENS_6detail12DenseMapPairISF_yEEEEb
__ZNK4llvm6MCExpr22findAssociatedFragmentEv
__ZL19EvaluateSymbolicAddPKN4llvm11MCAssemblerEPKNS_11MCAsmLayoutEPKNS_8DenseMapIPKNS_9MCSectionEyNS_12DenseMapInfoIS9_EENS_6detail12DenseMapPairIS9_yEEEEbRKNS_7MCValueEPKNS_15MCSymbolRefExprESN_xRSI_
__ZL35AttemptToFoldSymbolOffsetDifferencePKN4llvm11MCAssemblerEPKNS_11MCAsmLayoutEPKNS_8DenseMapIPKNS_9MCSectionEyNS_12DenseMapInfoIS9_EENS_6detail12DenseMapPairIS9_yEEEEbRPKNS_15MCSymbolRefExprESL_Rx
__ZNK4llvm16MachObjectWriter38isSymbolRefDifferenceFullyResolvedImplERKNS_11MCAssemblerERKNS_8MCSymbolES6_b
__ZNK4llvm16MachObjectWriter38isSymbolRefDifferenceFullyResolvedImplERKNS_11MCAssemblerERKNS_8MCSymbolERKNS_10MCFragmentEbb
__ZN4llvm8DenseMapIPKNS_5ValueENS_7SDValueENS_12DenseMapInfoIS3_EENS_6detail12DenseMapPairIS3_S4_EEE16shrink_and_clearEv
__ZN4llvm12SelectionDAG25UpdadeSDLocOnMergedSDNodeEPNS_6SDNodeENS_5SDLocE
__ZNK4llvm12MachineInstr18findTiedOperandIdxEj
__ZN12_GLOBAL__N_125TwoAddressInstructionPass23tryInstructionTransformERN4llvm17MachineBasicBlock15bundle_iteratorINS1_12MachineInstrENS1_14ilist_iteratorIS4_EEEES8_jjjb
__ZN4llvm7BuildMIERNS_17MachineBasicBlockEPNS_12MachineInstrENS_8DebugLocERKNS_11MCInstrDescEj
__ZN4llvm12MachineInstr13RemoveOperandEj
__ZNSt3__17__sort4IRN4llvm10less_firstEPNS_4pairIjPNS1_12MachineInstrEEEEEjT0_S9_S9_S9_T_
__ZN4llvm10MCStreamer19EmitCFIDefCfaOffsetEx
__ZN4llvm12SelectionDAG11AddDbgValueEPNS_10SDDbgValueEPNS_6SDNodeEb
__ZN4llvm12DenseMapBaseINS_8DenseMapIPKNS_6SDNodeENS_11SmallVectorIPNS_10SDDbgValueELj2EEENS_12DenseMapInfoIS4_EENS_6detail12DenseMapPairIS4_S8_EEEES4_S8_SA_SD_E16FindAndConstructERKS4_
__ZN4llvm8DenseMapIPKNS_6SDNodeENS_11SmallVectorIPNS_10SDDbgValueELj2EEENS_12DenseMapInfoIS3_EENS_6detail12DenseMapPairIS3_S7_EEE4growEj
__ZNK4llvm12DISubprogram9describesEPKNS_8FunctionE
__ZNSt3__17__sort5IRZN4llvm19SelectionDAGBuilder15sortAndRangeifyERNS_6vectorINS2_11CaseClusterENS_9allocatorIS4_EEEEE3$_0PS4_EEjT0_SC_SC_SC_SC_T_
__ZNK4llvm21AArch64TargetLowering20isOffsetFoldingLegalEPKNS_19GlobalAddressSDNodeE
__ZN12_GLOBAL__N_111DAGCombiner23CommitTargetLoweringOptERKN4llvm14TargetLowering17TargetLoweringOptE
__ZN12_GLOBAL__N_111DAGCombiner15GetDemandedBitsEN4llvm7SDValueERKNS1_5APIntE
__ZN12_GLOBAL__N_111DAGCombiner15ReduceLoadWidthEPN4llvm6SDNodeE
__ZNK4llvm12SelectionDAG18ComputeNumSignBitsENS_7SDValueEj
__ZL19isConstOrConstSplatN4llvm7SDValueE
__ZN4llvm12SelectionDAG14getMachineNodeEjNS_5SDLocENS_3EVTENS_8ArrayRefINS_7SDValueEEE
__ZN4llvm12SelectionDAG14getMachineNodeEjNS_5SDLocENS_3EVTENS_7SDValueES3_
__ZNK4llvm16SelectionDAGISel12CheckAndMaskENS_7SDValueEPNS_14ConstantSDNodeEx
__ZN4llvm10AArch64_AML23processLogicalImmediateEyjRy.4450
__ZNK4llvm16AArch64InstrInfo21isCoalescableExtInstrERKNS_12MachineInstrERjS4_S4_
__ZN4llvm25array_pod_sort_comparatorIN12_GLOBAL__N_18FrameRefEEEiPKvS4_
__ZNK4llvm18TargetRegisterInfo24getFrameIndexInstrOffsetEPKNS_12MachineInstrEi
__ZNK4llvm19AArch64RegisterInfo18getPointerRegClassERKNS_15MachineFunctionEj
__ZNK4llvm19AArch64RegisterInfo28materializeFrameBaseRegisterEPNS_17MachineBasicBlockEjix
__ZNK4llvm19AArch64RegisterInfo17resolveFrameIndexERNS_12MachineInstrEjx
__ZN4llvm6SDNode18intersectFlagsWithEPKNS_11SDNodeFlagsE
__ZNK4llvm21AArch64TargetLowering25getPreIndexedAddressPartsEPNS_6SDNodeERNS_7SDValueES4_RNS_3ISD14MemIndexedModeERNS_12SelectionDAGE
__ZN4llvm6SDNode20hasPredecessorHelperEPKS0_RNS_15SmallPtrSetImplIS2_EERNS_15SmallVectorImplIS2_EE
__ZN4llvm12SelectionDAG14getIndexedLoadENS_7SDValueENS_5SDLocES1_S1_NS_3ISD14MemIndexedModeE
__ZN4llvm12SelectionDAG14getMachineNodeEjNS_5SDLocENS_3EVTES2_S2_NS_8ArrayRefINS_7SDValueEEE
__ZNSt3__17__sort5IRN4llvm10less_firstEPNS_4pairIjPNS1_12MachineInstrEEEEEjT0_S9_S9_S9_S9_T_
__ZN4llvm10AsmPrinter14doFinalizationERNS_6ModuleE
__ZN4llvm10AsmPrinter18EmitGlobalVariableEPKNS_14GlobalVariableE
__ZN4llvm10DwarfDebug13setSymbolSizeEPKNS_8MCSymbolEy
__ZN4llvm12DenseMapBaseINS_8DenseMapIPKNS_8MCSymbolEyNS_12DenseMapInfoIS4_EENS_6detail12DenseMapPairIS4_yEEEES4_yS6_S9_E20InsertIntoBucketImplERKS4_PS9_
__ZN4llvm8DenseMapIPKNS_8MCSymbolEyNS_12DenseMapInfoIS3_EENS_6detail12DenseMapPairIS3_yEEE4growEj
__ZN4llvm10EHStreamer13setSymbolSizeEPKNS_8MCSymbolEy
__ZN12_GLOBAL__N_115MCMachOStreamer12EmitZerofillEPN4llvm9MCSectionEPNS1_8MCSymbolEyj
__ZL22emitGlobalConstantImplRKN4llvm10DataLayoutEPKNS_8ConstantERNS_10AsmPrinterES5_y
__ZL22isRepeatedByteSequencePKN4llvm5ValueERKNS_10DataLayoutE
__ZN4llvm16MCObjectStreamer9EmitBytesENS_9StringRefE
__ZNK4llvm29TargetLoweringObjectFileMachO15emitModuleFlagsERNS_10MCStreamerENS_8ArrayRefINS_6Module15ModuleFlagEntryEEERNS_7ManglerERKNS_13TargetMachineE
__ZN4llvm10DwarfDebug9endModuleEv
__ZN4llvm16DwarfCompileUnit26finishSubprogramDefinitionEPKNS_12DISubprogramE
__ZN4llvm16DwarfCompileUnit37applySubprogramAttributesToDefinitionEPKNS_12DISubprogramERNS_3DIEE
__ZN4llvm9DwarfUnit25applySubprogramAttributesEPKNS_12DISubprogramERNS_3DIEEb
__ZN4llvm10AsmPrinter14getISAEncodingEv
__ZN4llvm16DwarfCompileUnit23applyVariableAttributesERKNS_11DbgVariableERNS_3DIEE
__ZN4llvm9DwarfUnit13addSourceLineERNS_3DIEEPKNS_15DILocalVariableE
__ZN4llvm23SmallVectorTemplateBaseINSt3__112basic_stringIcNS1_11char_traitsIcEENS1_9allocatorIcEEEELb0EE4growEm
__ZN4llvm9DwarfUnit28constructSubprogramArgumentsERNS_3DIEENS_14DITypeRefArrayE
__ZN4llvm9DwarfUnit27constructContainingTypeDIEsEv
__ZNK4llvm9DwarfUnit13getHeaderSizeEv
__ZN4llvm9DwarfFile20computeSizeAndOffsetERNS_3DIEEj
__ZNK4llvm9DIEAbbrev7ProfileERNS_16FoldingSetNodeIDE
__ZNK4llvm10FoldingSetINS_9DIEAbbrevEE10NodeEqualsEPNS_14FoldingSetImpl4NodeERKNS_16FoldingSetNodeIDEjRS6_
__ZN4llvm9DwarfFile11emitStringsEPNS_9MCSectionES2_
__ZN4llvm10MCStreamer10AddCommentERKNS_5TwineE
__ZNK4llvm10AsmPrinter15emitDwarfAbbrevERKNS_9DIEAbbrevE
__ZN4llvm10MCStreamer19EmitULEB128IntValueEyj
__ZN4llvm5dwarf9TagStringEj
__ZN4llvm5dwarf15AttributeStringEj
__ZN4llvm16DwarfCompileUnit10emitHeaderEb
__ZN4llvm9DwarfUnit10emitHeaderEb
__ZN4llvm10MCStreamer12EmitIntValueEyj
__ZNK4llvm10AsmPrinter24emitDwarfSymbolReferenceEPKNS_8MCSymbolEb
__ZN4llvm16MCObjectStreamer22emitAbsoluteSymbolDiffEPKNS_8MCSymbolES3_j
__ZNK4llvm10AsmPrinter12emitDwarfDIEERKNS_3DIEE
__ZNK4llvm8DIEValue9EmitValueEPKNS_10AsmPrinterE
__ZNK4llvm10DIEInteger9EmitValueEPKNS_10AsmPrinterENS_5dwarf4FormE
__ZN4llvm10MCStreamer22emitAbsoluteSymbolDiffEPKNS_8MCSymbolES3_j
__ZN4llvm10MCStreamer19EmitSLEB128IntValueEx
__ZN4llvm15DwarfAccelTable13FinalizeTableEPNS_10AsmPrinterENS_9StringRefE
__ZNSt3__113__stable_sortIRZN4llvm15DwarfAccelTable13FinalizeTableEPNS1_10AsmPrinterENS1_9StringRefEE3$_0NS_11__wrap_iterIPPNS2_16HashDataContentsEEEEEvT0_SD_T_NS_15iterator_traitsISD_E15difference_typeEPNSG_10value_typeEl
__ZN4llvm25array_pod_sort_comparatorIjEEiPKvS2_
__ZNSt3__16vectorIPN4llvm15DwarfAccelTable8HashDataENS_9allocatorIS4_EEE21__push_back_slow_pathIRKS4_EEvOT_
__ZNSt3__113__stable_sortIRZN4llvm15DwarfAccelTable13FinalizeTableEPNS1_10AsmPrinterENS1_9StringRefEE3$_1NS_11__wrap_iterIPPNS2_8HashDataEEEEEvT0_SD_T_NS_15iterator_traitsISD_E15difference_typeEPNSG_10value_typeEl
__ZN4llvm15DwarfAccelTable4emitEPNS_10AsmPrinterEPKNS_8MCSymbolEPNS_10DwarfDebugE
__ZNK19DIEHashDataContentsILb0EE4emitEPN4llvm10AsmPrinterEPNS1_10DwarfDebugE
__ZNK19DIEHashDataContentsILb1EE4emitEPN4llvm10AsmPrinterEPNS1_10DwarfDebugE
__ZN4llvm10DwarfDebugD0Ev
__ZN4llvm10DwarfDebugD2Ev
__ZN4llvm15DwarfAccelTableD2Ev
__ZN4llvm22MCDwarfLineTableHeaderD2Ev
__ZN4llvm9DwarfFileD1Ev
__ZN4llvm16DwarfCompileUnitD0Ev
__ZN4llvm16DwarfCompileUnitD2Ev
__ZN4llvm9DwarfUnitD2Ev
__ZN4llvm17DwarfCFIException9endModuleEv
__ZN4llvm16MCObjectStreamer15EmitCFISectionsEbb
__ZN4llvm17DwarfCFIExceptionD0Ev
__ZNK4llvm9MCAsmInfo28getNonexecutableStackSectionERNS_9MCContextE
__ZN12_GLOBAL__N_117AArch64AsmPrinter16EmitEndOfAsmFileERN4llvm6ModuleE
__ZN12_GLOBAL__N_115MCMachOStreamer17EmitAssemblerFlagEN4llvm15MCAssemblerFlagE
__ZN4llvm12MCAsmBackend19handleAssemblerFlagENS_15MCAssemblerFlagE
__ZN4llvm9StackMaps26serializeToStackMapSectionEv
__ZN12_GLOBAL__N_115MCMachOStreamer10FinishImplEv
__ZN4llvm19MCDwarfFrameEmitter4EmitERNS_16MCObjectStreamerEPNS_12MCAsmBackendEb
__ZNK12_GLOBAL__N_123DarwinAArch64AsmBackend29generateCompactUnwindEncodingEN4llvm8ArrayRefINS1_16MCCFIInstructionEEE
__ZN4llvm8DenseMapIPKNS_10MCFragmentEPKNS_8MCSymbolENS_12DenseMapInfoIS3_EENS_6detail12DenseMapPairIS3_S6_EEE4growEj
__ZN4llvm16MCDwarfLineTable4EmitEPNS_16MCObjectStreamerENS_22MCDwarfLineTableParamsE
__ZNK4llvm22MCDwarfLineTableHeader4EmitEPNS_10MCStreamerENS_22MCDwarfLineTableParamsENS_8ArrayRefIcEE
__ZN4llvm16MCObjectStreamer24EmitDwarfAdvanceLineAddrExPKNS_8MCSymbolES3_j
__ZN4llvm15MCDwarfLineAddr4EmitEPNS_10MCStreamerENS_22MCDwarfLineTableParamsExy
__ZN4llvm15MCDwarfLineAddr6EncodeERNS_9MCContextENS_22MCDwarfLineTableParamsExyRNS_11raw_ostreamE
__ZNK4llvm11MCAssembler11isThumbFuncEPKNS_8MCSymbolE
__ZN4llvm11MCAssembler6FinishEv
__ZNK4llvm14MCSectionMachO16isVirtualSectionEv
__ZL19getSymbolOffsetImplRKN4llvm11MCAsmLayoutERKNS_8MCSymbolEbRy
__ZL14getLabelOffsetRKN4llvm11MCAsmLayoutERKNS_8MCSymbolEbRy
__ZNK4llvm11MCAsmLayout11ensureValidEPKNS_10MCFragmentE
__ZN4llvm12DenseMapBaseINS_8DenseMapIPKNS_9MCSectionEPNS_10MCFragmentENS_12DenseMapInfoIS4_EENS_6detail12DenseMapPairIS4_S6_EEEES4_S6_S8_SB_E20InsertIntoBucketImplERKS4_PSB_
__ZN4llvm8DenseMapIPKNS_9MCSectionEPNS_10MCFragmentENS_12DenseMapInfoIS3_EENS_6detail12DenseMapPairIS3_S5_EEE4growEj
__ZNK4llvm11MCAssembler19computeFragmentSizeERKNS_11MCAsmLayoutERKNS_10MCFragmentE
__ZN4llvm16MachObjectWriter24executePostLayoutBindingERNS_11MCAssemblerERKNS_11MCAsmLayoutE
__ZN4llvm8DenseMapIPKNS_9MCSectionEyNS_12DenseMapInfoIS3_EENS_6detail12DenseMapPairIS3_yEEE4growEj
__ZNK4llvm16MachObjectWriter14getPaddingSizeEPKNS_9MCSectionERKNS_11MCAsmLayoutE
__ZNK12_GLOBAL__N_117AArch64AsmBackend16getFixupKindInfoEN4llvm11MCFixupKindE
__ZNK4llvm11MCAssembler13evaluateFixupERKNS_11MCAsmLayoutERKNS_7MCFixupEPKNS_10MCFragmentERNS_7MCValueERy
__ZN4llvm12MCAsmBackend17processFixupValueERKNS_11MCAssemblerERKNS_11MCAsmLayoutERKNS_7MCFixupEPKNS_10MCFragmentERKNS_7MCValueERyRb
__ZN4llvm16MachObjectWriter16recordRelocationERNS_11MCAssemblerERKNS_11MCAsmLayoutEPKNS_10MCFragmentERKNS_7MCFixupENS_7MCValueERbRy
__ZN12_GLOBAL__N_123AArch64MachObjectWriter16recordRelocationEPN4llvm16MachObjectWriterERNS1_11MCAssemblerERKNS1_11MCAsmLayoutEPKNS1_10MCFragmentERKNS1_7MCFixupENS1_7MCValueERy
__ZNK4llvm11MCAssembler7getAtomERKNS_8MCSymbolE
__ZN4llvm16MachObjectWriter13addRelocationEPKNS_8MCSymbolEPKNS_9MCSectionERNS_5MachO19any_relocation_infoE
__ZN4llvm12DenseMapBaseINS_8DenseMapIPKNS_9MCSectionENSt3__16vectorINS_16MachObjectWriter12RelAndSymbolENS5_9allocatorIS8_EEEENS_12DenseMapInfoIS4_EENS_6detail12DenseMapPairIS4_SB_EEEES4_SB_SD_SG_E20InsertIntoBucketImplERKS4_PSG_
__ZN4llvm8DenseMapIPKNS_9MCSectionENSt3__16vectorINS_16MachObjectWriter12RelAndSymbolENS4_9allocatorIS7_EEEENS_12DenseMapInfoIS3_EENS_6detail12DenseMapPairIS3_SA_EEE4growEj
__ZNK12_GLOBAL__N_117AArch64AsmBackend10applyFixupERKN4llvm7MCFixupEPcjyb
__ZL16adjustFixupValueRKN4llvm7MCFixupEyPNS_9MCContextE
__ZNK4llvm16MachObjectWriter16getSymbolAddressERKNS_8MCSymbolERKNS_11MCAsmLayoutE
__ZNK4llvm14raw_fd_ostream11current_posEv
__ZN4llvm16MachObjectWriter11writeObjectERNS_11MCAssemblerERKNS_11MCAsmLayoutE
__ZN4llvm8DenseMapIPKNS_9MCSectionEhNS_12DenseMapInfoIS3_EENS_6detail12DenseMapPairIS3_hEEE4growEj
__ZN4llvm18StringTableBuilder3addENS_9StringRefE
__ZNK4llvm12DenseMapBaseINS_8DenseMapINS_9StringRefEmNS_12DenseMapInfoIS2_EENS_6detail12DenseMapPairIS2_mEEEES2_mS4_S7_E15LookupBucketForIS2_EEbRKT_RPKS7_
__ZN4llvm8DenseMapINS_9StringRefEmNS_12DenseMapInfoIS1_EENS_6detail12DenseMapPairIS1_mEEE4growEj
__ZN4llvm10hash_valueENS_9StringRefE
__ZN4llvm18StringTableBuilder8finalizeEv
__ZL14multikey_qsortPPNSt3__14pairIN4llvm9StringRefEmEES5_i
__ZNSt3__16vectorIN4llvm16MachObjectWriter14MachSymbolDataENS_9allocatorIS3_EEE21__push_back_slow_pathIRKS3_EEvOT_
__ZNSt3__16__sortIRNS_6__lessIN4llvm16MachObjectWriter14MachSymbolDataES4_EEPS4_EEvT0_S8_T_
__ZNSt3__17__sort5IRNS_6__lessIN4llvm16MachObjectWriter14MachSymbolDataES4_EEPS4_EEjT0_S8_S8_S8_S8_T_
__ZNSt3__17__sort4IRNS_6__lessIN4llvm16MachObjectWriter14MachSymbolDataES4_EEPS4_EEjT0_S8_S8_S8_T_
__ZNSt3__17__sort3IRNS_6__lessIN4llvm16MachObjectWriter14MachSymbolDataES4_EEPS4_EEjT0_S8_S8_T_
__ZNK4llvm14raw_fd_ostream21preferred_buffer_sizeEv
__ZN4llvm14MCObjectWriter10writeBytesENS_9StringRefEj
__ZNK4llvm11MCAssembler16writeSectionDataEPKNS_9MCSectionERKNS_11MCAsmLayoutE
__ZNK4llvm11MCAssembler20writeFragmentPaddingERKNS_10MCFragmentEyPNS_14MCObjectWriterE
__ZNK12_GLOBAL__N_117AArch64AsmBackend12writeNopDataEyPN4llvm14MCObjectWriterE
__ZN4llvm14raw_fd_ostream10write_implEPKcm
__ZN4llvm16MachObjectWriter10writeNlistERNS0_14MachSymbolDataERKNS_11MCAsmLayoutE
__ZN12_GLOBAL__N_115MCMachOStreamer5resetEv
__ZN4llvm11MCAssembler5resetEv
__ZN4llvm12MCAsmBackend5resetEv
__ZN4llvm13MCCodeEmitter5resetEv
__ZN4llvm16MachObjectWriter5resetEv
__ZN4llvm18StringTableBuilder5clearEv
__ZN4llvm10MCStreamer5resetEv
__ZN12_GLOBAL__N_114DwarfEHPrepare14doFinalizationERN4llvm6ModuleE
__ZN4llvm22TypeBasedAAWrapperPass14doFinalizationERNS_6ModuleE
__ZN4llvm26ScopedNoAliasAAWrapperPass14doFinalizationERNS_6ModuleE
__ZN4llvm17MachineModuleInfo14doFinalizationERNS_6ModuleE
__ZN4llvm9MCContext5resetEv
__ZN4llvm24SpecificBumpPtrAllocatorINS_13MCSectionCOFFEE10DestroyAllEv
__ZN4llvm24SpecificBumpPtrAllocatorINS_12MCSectionELFEE10DestroyAllEv
__ZN4llvm24SpecificBumpPtrAllocatorINS_14MCSectionMachOEE10DestroyAllEv
__ZN4llvm9MCSectionD2Ev
__ZN4llvm24SpecificBumpPtrAllocatorINS_15MCSubtargetInfoEE10DestroyAllEv
__ZNSt3__16__treeINS_12__value_typeIjN4llvm16MCDwarfLineTableEEENS_19__map_value_compareIjS4_NS_4lessIjEELb1EEENS_9allocatorIS4_EEE7destroyEPNS_11__tree_nodeIS4_PvEE
__ZNSt3__16__treeINS_12__value_typeIN4llvm9MCContext13ELFSectionKeyEPNS2_12MCSectionELFEEENS_19__map_value_compareIS4_S7_NS_4lessIS4_EELb1EEENS_9allocatorIS7_EEE7destroyEPNS_11__tree_nodeIS7_PvEE
__ZNSt3__16__treeINS_12__value_typeIN4llvm9MCContext14COFFSectionKeyEPNS2_13MCSectionCOFFEEENS_19__map_value_compareIS4_S7_NS_4lessIS4_EELb1EEENS_9allocatorIS7_EEE7destroyEPNS_11__tree_nodeIS7_PvEE
__ZN4llvm6legacy11PassManagerD0Ev
__ZN4llvm6legacy15PassManagerImplD0Ev
__ZN4llvm17PMTopLevelManagerD2Ev
__ZThn32_N12_GLOBAL__N_113MPPassManagerD0Ev
__ZN12_GLOBAL__N_113MPPassManagerD1Ev
__ZNSt3__16__treeINS_12__value_typeIPN4llvm4PassEPNS2_6legacy23FunctionPassManagerImplEEENS_19__map_value_compareIS4_S8_NS_4lessIS4_EELb1EEENS_9allocatorIS8_EEE7destroyEPNS_11__tree_nodeIS8_PvEE
__ZN4llvm13FPPassManagerD0Ev
__ZN12_GLOBAL__N_112AtomicExpandD0Ev
__ZN4llvm18BasicAAWrapperPassD0Ev
__ZN12_GLOBAL__N_115LowerIntrinsicsD0Ev
__ZN12_GLOBAL__N_121ShadowStackGCLoweringD0Ev
__ZN12_GLOBAL__N_120UnreachableBlockElimD0Ev
__ZN12_GLOBAL__N_114RewriteSymbolsD0Ev
__ZN4llvm24DominatorTreeWrapperPassD0Ev
__ZN4llvm24DominatorTreeWrapperPassD2Ev
__ZN12_GLOBAL__N_114DwarfEHPrepareD0Ev
__ZN4llvm19LoopInfoWrapperPassD0Ev
__ZN4llvm12LoopInfoBaseINS_10BasicBlockENS_4LoopEED2Ev
__ZN4llvm26ScalarEvolutionWrapperPassD0Ev
__ZN12_GLOBAL__N_19SafeStackD0Ev
__ZN4llvm14StackProtectorD0Ev
__ZN4llvm23MachineFunctionAnalysisD0Ev
__ZN4llvm20AAResultsWrapperPassD0Ev
__ZN12_GLOBAL__N_119AArch64DAGToDAGISelD0Ev
__ZN4llvm16SelectionDAGISelD2Ev
__ZN12_GLOBAL__N_117ExpandISelPseudosD0Ev
__ZN12_GLOBAL__N_118LocalStackSlotPassD0Ev
__ZN12_GLOBAL__N_114PHIEliminationD0Ev
__ZN12_GLOBAL__N_125TwoAddressInstructionPassD0Ev
__ZN12_GLOBAL__N_16RAFastD0Ev
__ZN12_GLOBAL__N_16RAFastD1Ev
__ZN12_GLOBAL__N_13PEID0Ev
__ZN12_GLOBAL__N_112ExpandPostRAD0Ev
__ZN12_GLOBAL__N_119AArch64ExpandPseudoD0Ev
__ZN12_GLOBAL__N_121GCMachineCodeAnalysisD0Ev
__ZN12_GLOBAL__N_123AArch64BranchRelaxationD0Ev
__ZN12_GLOBAL__N_113FuncletLayoutD0Ev
__ZN12_GLOBAL__N_116StackMapLivenessD0Ev
__ZN12_GLOBAL__N_115LiveDebugValuesD0Ev
__ZN12_GLOBAL__N_117AArch64AsmPrinterD0Ev
__ZNSt3__16__treeINS_12__value_typeIPKN4llvm12MachineInstrEPNS2_8MCSymbolEEENS_19__map_value_compareIS5_S8_NS_4lessIS5_EELb1EEENS_9allocatorIS8_EEE7destroyEPNS_11__tree_nodeIS8_PvEE
__ZN4llvm9StackMapsD2Ev
__ZN4llvm10AsmPrinterD2Ev
__ZN12_GLOBAL__N_115MCMachOStreamerD0Ev
__ZN4llvm16MCObjectStreamerD2Ev
__ZN12_GLOBAL__N_123DarwinAArch64AsmBackendD0Ev
__ZN12_GLOBAL__N_120AArch64MCCodeEmitterD0Ev
__ZN4llvm16MachObjectWriterD0Ev
__ZN4llvm16MachObjectWriterD2Ev
__ZN12_GLOBAL__N_123AArch64MachObjectWriterD0Ev
__ZN4llvm11MCAssemblerD1Ev
__ZN4llvm10MCStreamerD2Ev
__ZN4llvm28TargetLibraryInfoWrapperPassD0Ev
__ZN4llvm28TargetLibraryInfoWrapperPassD2Ev
__ZN12_GLOBAL__N_117AArch64PassConfigD0Ev
__ZN4llvm22TypeBasedAAWrapperPassD0Ev
__ZN4llvm26ScopedNoAliasAAWrapperPassD0Ev
__ZN4llvm22AssumptionCacheTrackerD0Ev
__ZN4llvm12GCModuleInfoD0Ev
__ZN4llvm12GCModuleInfoD2Ev
__ZN4llvm17MachineModuleInfoD0Ev
__ZN4llvm17MachineModuleInfoD2Ev
__ZN4llvm9MCContextD1Ev
__ZN12_GLOBAL__N_128ForceFunctionAttrsLegacyPassD0Ev
__ZN4llvm20CallGraphWrapperPassD0Ev
__ZN12_GLOBAL__N_113CGPassManagerD0Ev
__ZN12_GLOBAL__N_113AlwaysInlinerD0Ev
__ZN12_GLOBAL__N_111BarrierNoopD0Ev
__ZN4llvm6legacy19FunctionPassManagerD0Ev
__ZN4llvm6legacy23FunctionPassManagerImplD0Ev
__ZThn32_N4llvm13FPPassManagerD0Ev
__ZN12_GLOBAL__N_117AddDiscriminatorsD0Ev
__ZN4llvm10TimerGroup11removeTimerERNS_5TimerE
__ZN5clang6ParserD0Ev
__ZN5clang6ParserD2Ev
__ZN5clang12Preprocessor19RemovePragmaHandlerEN4llvm9StringRefEPNS_13PragmaHandlerE
__ZN4llvm13StringMapImpl9RemoveKeyEPNS_18StringMapEntryBaseE
__ZN12_GLOBAL__N_118PragmaAlignHandlerD0Ev
__ZN12_GLOBAL__N_126PragmaGCCVisibilityHandlerD0Ev
__ZN12_GLOBAL__N_120PragmaOptionsHandlerD0Ev
__ZN12_GLOBAL__N_117PragmaPackHandlerD0Ev
__ZN12_GLOBAL__N_121PragmaMSStructHandlerD0Ev
__ZN12_GLOBAL__N_119PragmaUnusedHandlerD0Ev
__ZN12_GLOBAL__N_117PragmaWeakHandlerD0Ev
__ZN12_GLOBAL__N_128PragmaRedefineExtnameHandlerD0Ev
__ZN12_GLOBAL__N_121PragmaNoOpenMPHandlerD0Ev
__ZN12_GLOBAL__N_123PragmaFPContractHandlerD0Ev
__ZN12_GLOBAL__N_121PragmaOptimizeHandlerD0Ev
__ZN12_GLOBAL__N_121PragmaLoopHintHandlerD0Ev
__ZN12_GLOBAL__N_123PragmaUnrollHintHandlerD0Ev
__ZN12_GLOBAL__N_120ActionCommentHandlerD0Ev
__ZN5clang14FrontendAction13EndSourceFileEv
__ZN5clang21TextDiagnosticPrinter13EndSourceFileEv
__ZN5clang14TextDiagnosticD0Ev
__ZN5clang18DiagnosticRendererD2Ev
__ZN5clang13CodeGenAction19EndSourceFileActionEv
__ZN5clang15BackendConsumerD0Ev
__ZN5clang15BackendConsumerD2Ev
__ZN12_GLOBAL__N_117CodeGeneratorImplD0Ev
__ZN12_GLOBAL__N_117CodeGeneratorImplD1Ev
__ZN5clang7CodeGen13CodeGenModuleD1Ev
__ZN12_GLOBAL__N_124AArch64TargetCodeGenInfoD0Ev
__ZN12_GLOBAL__N_114AArch64ABIInfoD0Ev
__ZN5clang7CodeGen11CGDebugInfoD1Ev
__ZN4llvm9DIBuilderD2Ev
__ZN5clang7CodeGen12CodeGenTypesD1Ev
__ZN12_GLOBAL__N_111iOS64CXXABID0Ev
__ZN12_GLOBAL__N_124ItaniumMangleContextImplD0Ev
__ZN5clang14CodeGenOptionsD2Ev
__ZN5clang14FrontendAction22shouldEraseOutputFilesEv
__ZN5clang16CompilerInstance16clearOutputFilesEb
__ZN4llvm14raw_fd_ostreamD0Ev
__ZN4llvm14raw_fd_ostreamD2Ev
__ZN4llvm3sys7Process25SafelyCloseFileDescriptorEi
__ZNK5clang11FileManager17FixupRelativePathERN4llvm15SmallVectorImplIcEE
__ZN4llvm3sys2fs6renameERKNS_5TwineES4_
__ZN5clang18DiagnosticConsumer6finishEv
__ZN4llvm10TimerGroup8printAllERNS_11raw_ostreamE
__ZN5clang17DiagnosticsEngineD1Ev
__ZN5clang20TextDiagnosticBufferD0Ev
__ZN5clang20TextDiagnosticBufferD2Ev
__ZN4llvm14raw_fd_ostreamD1Ev
__ZN4llvm18IntrusiveRefCntPtrIN5clang3vfs10FileSystemEED1Ev
__ZN4llvm17RegisterSchedulerD1Ev
__ZN4llvm18RegisterPassParserINS_17RegisterSchedulerEE12NotifyRemoveEPKc
__ZNK4llvm2cl6parserIPFPNS_18ScheduleDAGSDNodesEPNS_16SelectionDAGISelENS_10CodeGenOpt5LevelEEE13getNumOptionsEv
__ZNK4llvm2cl6parserIPFPNS_18ScheduleDAGSDNodesEPNS_16SelectionDAGISelENS_10CodeGenOpt5LevelEEE9getOptionEj
__ZN4llvm2cl3optIN12_GLOBAL__N_112DefaultOnOffELb0ENS0_6parserIS3_EEED1Ev
__ZN4llvm8OptionalIN5clang15NullabilityKindEED1Ev
__ZN4llvm2cl4listINSt3__112basic_stringIcNS2_11char_traitsIcEENS2_9allocatorIcEEEEbNS0_6parserIS8_EEED1Ev
__ZN4llvm2cl3optINSt3__112basic_stringIcNS2_11char_traitsIcEENS2_9allocatorIcEEEELb1ENS0_6parserIS8_EEED1Ev
__ZN4llvm2cl3optI14ReplaceExitValLb0ENS0_6parserIS2_EEED1Ev
__ZN4llvm2cl3optI24UnsafeStackPtrStorageValLb0ENS0_6parserIS2_EEED1Ev
__ZN4llvm2cl3optINSt3__112basic_stringIcNS2_11char_traitsIcEENS2_9allocatorIcEEEELb0ENS0_6parserIS8_EEED1Ev
__ZN12_GLOBAL__N_121SampleCoverageTrackerD1Ev
__ZN4llvm2cl4listIPKNS_8PassInfoEbNS_14PassNameParserEED1Ev
__ZN4llvm2cl3optIN12_GLOBAL__N_114PassDebugLevelELb0ENS0_6parserIS3_EEED1Ev
__ZN12_GLOBAL__N_114PassRemarksOptD1Ev
__ZN4llvm16RegisterRegAllocD1Ev
__ZN4llvm18RegisterPassParserINS_16RegisterRegAllocEE12NotifyRemoveEPKc
__ZNK4llvm2cl6parserIPFPNS_12FunctionPassEvEE13getNumOptionsEv
__ZNK4llvm2cl6parserIPFPNS_12FunctionPassEvEE9getOptionEj
__ZN4llvm2cl3optINS_11SplitEditor19ComplementSpillModeELb0ENS0_6parserIS3_EEED1Ev
__ZN4llvm2cl3optIPFPNS_12FunctionPassEvELb0ENS_18RegisterPassParserINS_16RegisterRegAllocEEEED1Ev
__ZN4llvm20MachineSchedRegistryD1Ev
__ZN4llvm18RegisterPassParserINS_20MachineSchedRegistryEE12NotifyRemoveEPKc
__ZNK4llvm2cl6parserIPFPNS_17ScheduleDAGInstrsEPNS_19MachineSchedContextEEE13getNumOptionsEv
__ZNK4llvm2cl6parserIPFPNS_17ScheduleDAGInstrsEPNS_19MachineSchedContextEEE9getOptionEj
__ZN4llvm2cl3optINS_21TargetLibraryInfoImpl13VectorLibraryELb0ENS0_6parserIS3_EEED1Ev
__ZN4llvm2cl3optINS_10RegionBaseINS_12RegionTraitsINS_8FunctionEEEE10PrintStyleELb1ENS0_6parserIS7_EEED1Ev
__ZN4llvm2cl3optI18AsmWriterVariantTyLb0ENS0_6parserIS2_EEED1Ev
__ZN4llvm2cl3optI6ITModeLb0ENS0_6parserIS2_EEED1Ev
__ZN4llvm2cl3optI17AsmWriterFlavorTyLb0ENS0_6parserIS2_EEED1Ev
__ZN4llvm3sys10SmartMutexILb0EED1Ev
__ZNK4llvm3opt12InputArgList16MakeArgStringRefENS_9StringRefE
__ZNK4llvm3opt12InputArgList9MakeIndexENS_9StringRefE
__ZN5clang7CodeGen11CodeGenTBAA11getTBAAInfoENS_8QualTypeE
__ZL15TypeHasMayAliasN5clang8QualTypeE
__ZN4llvm12DenseMapBaseINS_8DenseMapIPKN5clang4TypeEPNS_6MDNodeENS_12DenseMapInfoIS5_EENS_6detail12DenseMapPairIS5_S7_EEEES5_S7_S9_SC_E20InsertIntoBucketImplERKS5_PSC_
__ZN4llvm8DenseMapIPKN5clang4TypeEPNS_6MDNodeENS_12DenseMapInfoIS4_EENS_6detail12DenseMapPairIS4_S6_EEE4growEj
__ZN4llvm9MDBuilder24createTBAAScalarTypeNodeENS_9StringRefEPNS_6MDNodeEy
__ZN5clang7CodeGen11CodeGenTBAA20getTBAAStructTagInfoENS_8QualTypeEPN4llvm6MDNodeEy
__ZNK4llvm12DenseMapBaseINS_8DenseMapIN5clang7CodeGen11TBAAPathTagEPNS_6MDNodeENS_12DenseMapInfoIS4_EENS_6detail12DenseMapPairIS4_S6_EEEES4_S6_S8_SB_E15LookupBucketForIS4_EEbRKT_RPKSB_
__ZN4llvm12DenseMapBaseINS_8DenseMapIN5clang7CodeGen11TBAAPathTagEPNS_6MDNodeENS_12DenseMapInfoIS4_EENS_6detail12DenseMapPairIS4_S6_EEEES4_S6_S8_SB_E20InsertIntoBucketImplERKS4_PSB_
__ZN4llvm8DenseMapIN5clang7CodeGen11TBAAPathTagEPNS_6MDNodeENS_12DenseMapInfoIS3_EENS_6detail12DenseMapPairIS3_S5_EEE4growEj
__ZN4llvm11Instruction11setMetadataEjPNS_6MDNodeE
__ZN4llvm12DenseMapBaseINS_8DenseMapIPKNS_11InstructionENS_15MDAttachmentMapENS_12DenseMapInfoIS4_EENS_6detail12DenseMapPairIS4_S5_EEEES4_S5_S7_SA_E16FindAndConstructEOS4_
__ZN4llvm8DenseMapIPKNS_11InstructionENS_15MDAttachmentMapENS_12DenseMapInfoIS3_EENS_6detail12DenseMapPairIS3_S4_EEE4growEj
__ZN4llvm8CallInst12addAttributeEjNS_9Attribute8AttrKindE
__ZN5clang7CodeGen12EHScopeStack11pushCleanupENS0_11CleanupKindEm
__ZN5clang7CodeGen12EHScopeStack8allocateEm
__ZL15getRangeForTypeRN5clang7CodeGen15CodeGenFunctionENS_8QualTypeERN4llvm5APIntES6_b
__ZN5clang7CodeGen11CodeGenTBAA21getTBAAStructTypeInfoENS_8QualTypeE
__ZN5clang7CodeGen15CodeGenFunction15PopCleanupBlockEb
__ZN4llvm8LoadInstC2EPNS_4TypeEPNS_5ValueERKNS_5TwineEbjNS_14AtomicOrderingENS_20SynchronizationScopeEPNS_11InstructionE
__ZN5clang7CodeGen12EHScopeStack10popCleanupEv
__ZL11EmitCleanupRN5clang7CodeGen15CodeGenFunctionEPNS0_12EHScopeStack7CleanupENS4_5FlagsENS0_7AddressE
__ZN12_GLOBAL__N_115CallLifetimeEnd4EmitERN5clang7CodeGen15CodeGenFunctionENS2_12EHScopeStack7Cleanup5FlagsE
__ZN5clang7CodeGen15CodeGenFunction15EmitLifetimeEndEPN4llvm5ValueES4_
__ZL20SimplifyCleanupEntryRN5clang7CodeGen15CodeGenFunctionEPN4llvm10BasicBlockE
__ZN4llvm10BasicBlock20getSinglePredecessorEv
__ZN5clang7CodeGen15CodeGenFunction12LexicalScope13rescopeLabelsEv
__ZL28destroyOptimisticNormalEntryRN5clang7CodeGen15CodeGenFunctionERNS0_14EHCleanupScopeE
__ZN4llvm21SymbolTableListTraitsINS_11InstructionEE21transferNodesFromListERS2_NS_14ilist_iteratorIS1_EES5_
__ZN5clang7CodeGen15CodeGenFunction19getUnreachableBlockEv
__ZN4llvm10SwitchInstC1EPNS_5ValueEPNS_10BasicBlockEjS4_
__ZNK5clang7CodeGen15CodeGenFunction32isObviouslyBranchWithoutCleanupsENS1_8JumpDestE
__ZN4llvm27initializeSimpleInlinerPassERNS_12PassRegistryE
__ZN4llvm27createCFGSimplificationPassEiNSt3__18functionIFbRKNS_8FunctionEEEE
__ZN4llvm29initializeCFGSimplifyPassPassERNS_12PassRegistryE
__ZNK12_GLOBAL__N_115CFGSimplifyPass16getAnalysisUsageERN4llvm13AnalysisUsageE
__ZN4llvm14createSROAPassEv
__ZN4llvm28initializeSROALegacyPassPassERNS_12PassRegistryE
__ZNK4llvm4sroa14SROALegacyPass16getAnalysisUsageERNS_13AnalysisUsageE
__ZN4llvm32initializeEarlyCSELegacyPassPassERNS_12PassRegistryE
__ZNK12_GLOBAL__N_118EarlyCSELegacyPass16getAnalysisUsageERN4llvm13AnalysisUsageE
__ZNK12_GLOBAL__N_128InferFunctionAttrsLegacyPass16getAnalysisUsageERN4llvm13AnalysisUsageE
__ZNK12_GLOBAL__N_16IPSCCP16getAnalysisUsageERN4llvm13AnalysisUsageE
__ZN4llvm23initializeGlobalOptPassERNS_12PassRegistryE
__ZNK12_GLOBAL__N_19GlobalOpt16getAnalysisUsageERN4llvm13AnalysisUsageE
__ZThn32_N12_GLOBAL__N_113MPPassManager25addLowerLevelRequiredPassEPN4llvm4PassES3_
__ZN12_GLOBAL__N_113MPPassManager25addLowerLevelRequiredPassEPN4llvm4PassES3_
__ZNSt3__13mapIPN4llvm4PassEPNS1_6legacy23FunctionPassManagerImplENS_4lessIS3_EENS_9allocatorINS_4pairIKS3_S6_EEEEEixERSB_
__ZN4llvm25initializePromotePassPassERNS_12PassRegistryE
__ZNK12_GLOBAL__N_111PromotePass16getAnalysisUsageERN4llvm13AnalysisUsageE
__ZN4llvm38initializeInstructionCombiningPassPassERNS_12PassRegistryE
__ZNK12_GLOBAL__N_124InstructionCombiningPass16getAnalysisUsageERN4llvm13AnalysisUsageE
__ZNK4llvm20GlobalsAAWrapperPass16getAnalysisUsageERNS_13AnalysisUsageE
__ZNK12_GLOBAL__N_113SimpleInliner16getAnalysisUsageERN4llvm13AnalysisUsageE
__ZN4llvm36initializePostOrderFunctionAttrsPassERNS_12PassRegistryE
__ZNK12_GLOBAL__N_122PostOrderFunctionAttrs16getAnalysisUsageERN4llvm13AnalysisUsageE
__ZN4llvm27initializeJumpThreadingPassERNS_12PassRegistryE
__ZN4llvm27initializeLazyValueInfoPassERNS_12PassRegistryE
__ZNK12_GLOBAL__N_113JumpThreading16getAnalysisUsageERN4llvm13AnalysisUsageE
__ZN4llvm15callDefaultCtorINS_13LazyValueInfoEEEPNS_4PassEv
__ZNK4llvm13LazyValueInfo16getAnalysisUsageERNS_13AnalysisUsageE
__ZNK12_GLOBAL__N_126CorrelatedValuePropagation16getAnalysisUsageERN4llvm13AnalysisUsageE
__ZNK12_GLOBAL__N_112TailCallElim16getAnalysisUsageERN4llvm13AnalysisUsageE
__ZNK12_GLOBAL__N_111Reassociate16getAnalysisUsageERN4llvm13AnalysisUsageE
__ZN4llvm24initializeLoopRotatePassERNS_12PassRegistryE
__ZN4llvm26initializeLoopSimplifyPassERNS_12PassRegistryE
__ZN4llvm19initializeLCSSAPassERNS_12PassRegistryE
__ZN4llvm8LoopPass18preparePassManagerERNS_7PMStackE
__ZNK12_GLOBAL__N_110LoopRotate16getAnalysisUsageERN4llvm13AnalysisUsageE
__ZNK4llvm8LoopPass27getPotentialPassManagerTypeEv
__ZN4llvm15callDefaultCtorIN12_GLOBAL__N_112LoopSimplifyEEEPNS_4PassEv
__ZNK12_GLOBAL__N_112LoopSimplify16getAnalysisUsageERN4llvm13AnalysisUsageE
__ZN4llvm15callDefaultCtorIN12_GLOBAL__N_15LCSSAEEEPNS_4PassEv
__ZNK12_GLOBAL__N_15LCSSA16getAnalysisUsageERN4llvm13AnalysisUsageE
__ZN4llvm8LoopPass17assignPassManagerERNS_7PMStackENS_15PassManagerTypeE
__ZN4llvm13LPPassManager9getAsPassEv
__ZNK4llvm13LPPassManager16getAnalysisUsageERNS_13AnalysisUsageE
__ZN4llvm13LPPassManager18getAsPMDataManagerEv
__ZThn32_N4llvm13LPPassManager9getAsPassEv
__ZN4llvm18initializeLICMPassERNS_12PassRegistryE
__ZThn32_NK4llvm13LPPassManager18getPassManagerTypeEv
__ZNK12_GLOBAL__N_14LICM16getAnalysisUsageERN4llvm13AnalysisUsageE
__ZN4llvm26initializeLoopUnswitchPassERNS_12PassRegistryE
__ZNK12_GLOBAL__N_112LoopUnswitch16getAnalysisUsageERN4llvm13AnalysisUsageE
__ZN4llvm7PMStack3popEv
__ZN4llvm28initializeIndVarSimplifyPassERNS_12PassRegistryE
__ZNK12_GLOBAL__N_114IndVarSimplify16getAnalysisUsageERN4llvm13AnalysisUsageE
__ZN4llvm32initializeLoopIdiomRecognizePassERNS_12PassRegistryE
__ZNK12_GLOBAL__N_118LoopIdiomRecognize16getAnalysisUsageERN4llvm13AnalysisUsageE
__ZN4llvm26initializeLoopDeletionPassERNS_12PassRegistryE
__ZNK12_GLOBAL__N_112LoopDeletion16getAnalysisUsageERN4llvm13AnalysisUsageE
__ZN4llvm24initializeLoopUnrollPassERNS_12PassRegistryE
__ZNK12_GLOBAL__N_110LoopUnroll16getAnalysisUsageERN4llvm13AnalysisUsageE
__ZN4llvm35initializeMergedLoadStoreMotionPassERNS_12PassRegistryE
__ZN4llvm38initializeMemoryDependenceAnalysisPassERNS_12PassRegistryE
__ZNK12_GLOBAL__N_121MergedLoadStoreMotion16getAnalysisUsageERN4llvm13AnalysisUsageE
__ZN4llvm13createGVNPassEb
__ZN4llvm17initializeGVNPassERNS_12PassRegistryE
__ZNK12_GLOBAL__N_13GVN16getAnalysisUsageERN4llvm13AnalysisUsageE
__ZN4llvm15callDefaultCtorINS_24MemoryDependenceAnalysisEEEPNS_4PassEv
__ZNK4llvm24MemoryDependenceAnalysis16getAnalysisUsageERNS_13AnalysisUsageE
__ZN4llvm23initializeMemCpyOptPassERNS_12PassRegistryE
__ZNK12_GLOBAL__N_19MemCpyOpt16getAnalysisUsageERN4llvm13AnalysisUsageE
__ZNK12_GLOBAL__N_14SCCP16getAnalysisUsageERN4llvm13AnalysisUsageE
__ZN4llvm26initializeDemandedBitsPassERNS_12PassRegistryE
__ZNK12_GLOBAL__N_14BDCE16getAnalysisUsageERN4llvm13AnalysisUsageE
__ZN4llvm15callDefaultCtorINS_12DemandedBitsEEEPNS_4PassEv
__ZNK4llvm12DemandedBits16getAnalysisUsageERNS_13AnalysisUsageE
__ZN4llvm17initializeDSEPassERNS_12PassRegistryE
__ZNK12_GLOBAL__N_13DSE16getAnalysisUsageERN4llvm13AnalysisUsageE
__ZNK12_GLOBAL__N_114ADCELegacyPass16getAnalysisUsageERN4llvm13AnalysisUsageE
__ZNK12_GLOBAL__N_129ReversePostOrderFunctionAttrs16getAnalysisUsageERN4llvm13AnalysisUsageE
__ZNK12_GLOBAL__N_19Float2Int16getAnalysisUsageERN4llvm13AnalysisUsageE
__ZN4llvm28initializeLoopDistributePassERNS_12PassRegistryE
__ZN4llvm32initializeLoopAccessAnalysisPassERNS_12PassRegistryE
__ZNK12_GLOBAL__N_114LoopDistribute16getAnalysisUsageERN4llvm13AnalysisUsageE
__ZN4llvm15callDefaultCtorINS_18LoopAccessAnalysisEEEPNS_4PassEv
__ZNK4llvm18LoopAccessAnalysis16getAnalysisUsageERNS_13AnalysisUsageE
__ZN4llvm27initializeLoopVectorizePassERNS_12PassRegistryE
__ZN4llvm43initializeBlockFrequencyInfoWrapperPassPassERNS_12PassRegistryE
__ZNK12_GLOBAL__N_113LoopVectorize16getAnalysisUsageERN4llvm13AnalysisUsageE
__ZN4llvm15callDefaultCtorINS_29BlockFrequencyInfoWrapperPassEEEPNS_4PassEv
__ZNK4llvm29BlockFrequencyInfoWrapperPass16getAnalysisUsageERNS_13AnalysisUsageE
__ZN4llvm15callDefaultCtorINS_32BranchProbabilityInfoWrapperPassEEEPNS_4PassEv
__ZNK4llvm32BranchProbabilityInfoWrapperPass16getAnalysisUsageERNS_13AnalysisUsageE
__ZN4llvm33initializeLoopLoadEliminationPassERNS_12PassRegistryE
__ZNK12_GLOBAL__N_119LoopLoadElimination16getAnalysisUsageERN4llvm13AnalysisUsageE
__ZN4llvm27initializeSLPVectorizerPassERNS_12PassRegistryE
__ZNK12_GLOBAL__N_113SLPVectorizer16getAnalysisUsageERN4llvm13AnalysisUsageE
__ZN4llvm38initializeAlignmentFromAssumptionsPassERNS_12PassRegistryE
__ZNK12_GLOBAL__N_124AlignmentFromAssumptions16getAnalysisUsageERN4llvm13AnalysisUsageE
__ZN4llvm19createGlobalDCEPassEv
__ZN4llvm29initializeObjCARCContractPassERNS_12PassRegistryE
__ZNK12_GLOBAL__N_115ObjCARCContract16getAnalysisUsageERN4llvm13AnalysisUsageE
__ZN4llvm30initializeLoopDataPrefetchPassERNS_12PassRegistryE
__ZNK12_GLOBAL__N_116LoopDataPrefetch16getAnalysisUsageERN4llvm13AnalysisUsageE
__ZN4llvm32initializeLoopStrengthReducePassERNS_12PassRegistryE
__ZN4llvm21initializeIVUsersPassERNS_12PassRegistryE
__ZNK12_GLOBAL__N_118LoopStrengthReduce16getAnalysisUsageERN4llvm13AnalysisUsageE
__ZN4llvm15callDefaultCtorINS_7IVUsersEEEPNS_4PassEv
__ZNK4llvm7IVUsers16getAnalysisUsageERNS_13AnalysisUsageE
__ZN4llvm30initializeConstantHoistingPassERNS_12PassRegistryE
__ZNK12_GLOBAL__N_116ConstantHoisting16getAnalysisUsageERN4llvm13AnalysisUsageE
__ZNK12_GLOBAL__N_123PartiallyInlineLibCalls16getAnalysisUsageERN4llvm13AnalysisUsageE
__ZN12_GLOBAL__N_117InterleavedAccessC1EPKN4llvm13TargetMachineE
__ZN4llvm24createCodeGenPreparePassEPKNS_13TargetMachineE
__ZNK12_GLOBAL__N_114CodeGenPrepare16getAnalysisUsageERN4llvm13AnalysisUsageE
__ZNK12_GLOBAL__N_122AArch64PromoteConstant16getAnalysisUsageERN4llvm13AnalysisUsageE
__ZNK12_GLOBAL__N_111GlobalMerge16getAnalysisUsageERN4llvm13AnalysisUsageE
__ZNK12_GLOBAL__N_127AArch64AddressTypePromotion16getAnalysisUsageERN4llvm13AnalysisUsageE
__ZN4llvm16TargetPassConfig25addMachineSSAOptimizationEv
__ZN4llvm15callDefaultCtorIN12_GLOBAL__N_117TailDuplicatePassEEEPNS_4PassEv
__ZNK12_GLOBAL__N_117TailDuplicatePass16getAnalysisUsageERN4llvm13AnalysisUsageE
__ZN4llvm15callDefaultCtorINS_28MachineBranchProbabilityInfoEEEPNS_4PassEv
__ZNK4llvm28MachineBranchProbabilityInfo16getAnalysisUsageERNS_13AnalysisUsageE
__ZN4llvm15callDefaultCtorIN12_GLOBAL__N_112OptimizePHIsEEEPNS_4PassEv
__ZNK12_GLOBAL__N_112OptimizePHIs16getAnalysisUsageERN4llvm13AnalysisUsageE
__ZN4llvm15callDefaultCtorIN12_GLOBAL__N_113StackColoringEEEPNS_4PassEv
__ZNK12_GLOBAL__N_113StackColoring16getAnalysisUsageERN4llvm13AnalysisUsageE
__ZN4llvm15callDefaultCtorINS_20MachineDominatorTreeEEEPNS_4PassEv
__ZNK4llvm20MachineDominatorTree16getAnalysisUsageERNS_13AnalysisUsageE
__ZN4llvm15callDefaultCtorINS_11SlotIndexesEEEPNS_4PassEv
__ZNK4llvm11SlotIndexes16getAnalysisUsageERNS_13AnalysisUsageE
__ZN4llvm15callDefaultCtorIN12_GLOBAL__N_126DeadMachineInstructionElimEEEPNS_4PassEv
__ZN12_GLOBAL__N_117AArch64PassConfig10addILPOptsEv
__ZNK12_GLOBAL__N_125AArch64ConditionOptimizer11getPassNameEv
__ZNK12_GLOBAL__N_125AArch64ConditionOptimizer16getAnalysisUsageERN4llvm13AnalysisUsageE
__ZNK12_GLOBAL__N_126AArch64ConditionalCompares11getPassNameEv
__ZNK12_GLOBAL__N_126AArch64ConditionalCompares16getAnalysisUsageERN4llvm13AnalysisUsageE
__ZN4llvm15callDefaultCtorINS_15MachineLoopInfoEEEPNS_4PassEv
__ZNK4llvm15MachineLoopInfo16getAnalysisUsageERNS_13AnalysisUsageE
__ZN4llvm15callDefaultCtorINS_19MachineTraceMetricsEEEPNS_4PassEv
__ZNK4llvm19MachineTraceMetrics16getAnalysisUsageERNS_13AnalysisUsageE
__ZN4llvm15callDefaultCtorIN12_GLOBAL__N_115MachineCombinerEEEPNS_4PassEv
__ZNK12_GLOBAL__N_115MachineCombiner11getPassNameEv
__ZNK12_GLOBAL__N_115MachineCombiner16getAnalysisUsageERN4llvm13AnalysisUsageE
__ZN4llvm15callDefaultCtorIN12_GLOBAL__N_116EarlyIfConverterEEEPNS_4PassEv
__ZNK12_GLOBAL__N_116EarlyIfConverter11getPassNameEv
__ZNK12_GLOBAL__N_116EarlyIfConverter16getAnalysisUsageERN4llvm13AnalysisUsageE
__ZNK12_GLOBAL__N_124AArch64StorePairSuppress11getPassNameEv
__ZNK12_GLOBAL__N_124AArch64StorePairSuppress16getAnalysisUsageERN4llvm13AnalysisUsageE
__ZN4llvm15callDefaultCtorIN12_GLOBAL__N_111MachineLICMEEEPNS_4PassEv
__ZNK12_GLOBAL__N_111MachineLICM16getAnalysisUsageERN4llvm13AnalysisUsageE
__ZN4llvm15callDefaultCtorIN12_GLOBAL__N_110MachineCSEEEEPNS_4PassEv
__ZNK12_GLOBAL__N_110MachineCSE16getAnalysisUsageERN4llvm13AnalysisUsageE
__ZN4llvm15callDefaultCtorIN12_GLOBAL__N_114MachineSinkingEEEPNS_4PassEv
__ZNK12_GLOBAL__N_114MachineSinking16getAnalysisUsageERN4llvm13AnalysisUsageE
__ZN4llvm15callDefaultCtorINS_24MachinePostDominatorTreeEEEPNS_4PassEv
__ZNK4llvm24MachinePostDominatorTree16getAnalysisUsageERNS_13AnalysisUsageE
__ZN4llvm15callDefaultCtorINS_25MachineBlockFrequencyInfoEEEPNS_4PassEv
__ZNK4llvm25MachineBlockFrequencyInfo16getAnalysisUsageERNS_13AnalysisUsageE
__ZN4llvm15callDefaultCtorIN12_GLOBAL__N_117PeepholeOptimizerEEEPNS_4PassEv
__ZNK12_GLOBAL__N_117PeepholeOptimizer16getAnalysisUsageERN4llvm13AnalysisUsageE
__ZN4llvm29createGreedyRegisterAllocatorEv
__ZN4llvm16TargetPassConfig20addOptimizedRegAllocEPNS_12FunctionPassE
__ZN4llvm15callDefaultCtorIN12_GLOBAL__N_119ProcessImplicitDefsEEEPNS_4PassEv
__ZNK12_GLOBAL__N_119ProcessImplicitDefs16getAnalysisUsageERN4llvm13AnalysisUsageE
__ZN4llvm15callDefaultCtorINS_13LiveVariablesEEEPNS_4PassEv
__ZNK4llvm13LiveVariables16getAnalysisUsageERNS_13AnalysisUsageE
__ZN4llvm15callDefaultCtorIN12_GLOBAL__N_127UnreachableMachineBlockElimEEEPNS_4PassEv
__ZNK12_GLOBAL__N_127UnreachableMachineBlockElim16getAnalysisUsageERN4llvm13AnalysisUsageE
__ZN4llvm15callDefaultCtorIN12_GLOBAL__N_117RegisterCoalescerEEEPNS_4PassEv
__ZNK12_GLOBAL__N_117RegisterCoalescer16getAnalysisUsageERN4llvm13AnalysisUsageE
__ZN4llvm15callDefaultCtorINS_13LiveIntervalsEEEPNS_4PassEv
__ZNK4llvm13LiveIntervals16getAnalysisUsageERNS_13AnalysisUsageE
__ZN4llvm15callDefaultCtorIN12_GLOBAL__N_116MachineSchedulerEEEPNS_4PassEv
__ZThn64_NK12_GLOBAL__N_116MachineScheduler16getAnalysisUsageERN4llvm13AnalysisUsageE
__ZNK12_GLOBAL__N_116MachineScheduler16getAnalysisUsageERN4llvm13AnalysisUsageE
__ZNK12_GLOBAL__N_18RAGreedy11getPassNameEv
__ZNK12_GLOBAL__N_18RAGreedy16getAnalysisUsageERN4llvm13AnalysisUsageE
__ZN4llvm15callDefaultCtorINS_18LiveDebugVariablesEEEPNS_4PassEv
__ZNK4llvm18LiveDebugVariables16getAnalysisUsageERNS_13AnalysisUsageE
__ZN4llvm15callDefaultCtorINS_10LiveStacksEEEPNS_4PassEv
__ZNK4llvm10LiveStacks16getAnalysisUsageERNS_13AnalysisUsageE
__ZN4llvm15callDefaultCtorINS_10VirtRegMapEEEPNS_4PassEv
__ZNK4llvm10VirtRegMap16getAnalysisUsageERNS_13AnalysisUsageE
__ZN4llvm15callDefaultCtorINS_13LiveRegMatrixEEEPNS_4PassEv
__ZNK4llvm13LiveRegMatrix16getAnalysisUsageERNS_13AnalysisUsageE
__ZN4llvm15callDefaultCtorINS_11EdgeBundlesEEEPNS_4PassEv
__ZNK4llvm11EdgeBundles16getAnalysisUsageERNS_13AnalysisUsageE
__ZN4llvm15callDefaultCtorINS_14SpillPlacementEEEPNS_4PassEv
__ZNK4llvm14SpillPlacement16getAnalysisUsageERNS_13AnalysisUsageE
__ZN4llvm16TargetPassConfig13addPreRewriteEv
__ZN4llvm15callDefaultCtorIN12_GLOBAL__N_115VirtRegRewriterEEEPNS_4PassEv
__ZNK12_GLOBAL__N_115VirtRegRewriter16getAnalysisUsageERN4llvm13AnalysisUsageE
__ZN4llvm15callDefaultCtorIN12_GLOBAL__N_117StackSlotColoringEEEPNS_4PassEv
__ZNK12_GLOBAL__N_117StackSlotColoring16getAnalysisUsageERN4llvm13AnalysisUsageE
__ZNK12_GLOBAL__N_130AArch64DeadRegisterDefinitions11getPassNameEv
__ZNK12_GLOBAL__N_130AArch64DeadRegisterDefinitions16getAnalysisUsageERN4llvm13AnalysisUsageE
__ZN12_GLOBAL__N_125AArch64A57FPLoadBalancingC1Ev
__ZNK12_GLOBAL__N_125AArch64A57FPLoadBalancing11getPassNameEv
__ZNK12_GLOBAL__N_125AArch64A57FPLoadBalancing16getAnalysisUsageERN4llvm13AnalysisUsageE
__ZN4llvm15callDefaultCtorIN12_GLOBAL__N_110ShrinkWrapEEEPNS_4PassEv
__ZNK12_GLOBAL__N_110ShrinkWrap11getPassNameEv
__ZNK12_GLOBAL__N_110ShrinkWrap16getAnalysisUsageERN4llvm13AnalysisUsageE
__ZN4llvm16TargetPassConfig26addMachineLateOptimizationEv
__ZN4llvm15callDefaultCtorIN12_GLOBAL__N_116BranchFolderPassEEEPNS_4PassEv
__ZNK12_GLOBAL__N_116BranchFolderPass16getAnalysisUsageERN4llvm13AnalysisUsageE
__ZN4llvm15callDefaultCtorIN12_GLOBAL__N_122MachineCopyPropagationEEEPNS_4PassEv
__ZNK12_GLOBAL__N_119AArch64LoadStoreOpt11getPassNameEv
__ZNK4llvm13TargetMachine31targetSchedulesPostRASchedulingEv
__ZN4llvm15callDefaultCtorIN12_GLOBAL__N_120PostMachineSchedulerEEEPNS_4PassEv
__ZThn64_NK12_GLOBAL__N_120PostMachineScheduler16getAnalysisUsageERN4llvm13AnalysisUsageE
__ZN4llvm16TargetPassConfig17addBlockPlacementEv
__ZN4llvm15callDefaultCtorIN12_GLOBAL__N_121MachineBlockPlacementEEEPNS_4PassEv
__ZNK12_GLOBAL__N_121MachineBlockPlacement16getAnalysisUsageERN4llvm13AnalysisUsageE
__ZNK12_GLOBAL__N_117AArch64CollectLOH11getPassNameEv
__ZNK12_GLOBAL__N_117AArch64CollectLOH16getAnalysisUsageERN4llvm13AnalysisUsageE
__ZN12_GLOBAL__N_115CFGSimplifyPass13runOnFunctionERN4llvm8FunctionE
__ZN4llvm23removeUnreachableBlocksERNS_8FunctionEPNS_13LazyValueInfoE
__ZN4llvm22ConstantFoldTerminatorEPNS_10BasicBlockEbPKNS_17TargetLibraryInfoE
__ZN4llvm13IRBuilderBase14SetInsertPointEPNS_11InstructionE
__ZN4llvm10BasicBlock19getFirstNonPHIOrDbgEv
__ZN12_GLOBAL__N_114SimplifyCFGOpt3runEPN4llvm10BasicBlockE
__ZN4llvm25MergeBlockIntoPredecessorEPNS_10BasicBlockEPNS_13DominatorTreeEPNS_8LoopInfoEPNS_24MemoryDependenceAnalysisE
__ZN4llvm10BasicBlock20getUniquePredecessorEv
__ZN4llvm22FoldBranchToCommonDestEPNS_10BranchInstEj
__ZN12_GLOBAL__N_114SimplifyCFGOpt18SimplifyCondBranchEPN4llvm10BranchInstERNS1_9IRBuilderINS1_14ConstantFolderENS1_24IRBuilderDefaultInserterEEE
__ZN12_GLOBAL__N_114SimplifyCFGOpt25isValueEqualityComparisonEPN4llvm14TerminatorInstE
__ZL14GetConstantIntPN4llvm5ValueERKNS_10DataLayoutE
__ZNK4llvm10DataLayout13getIntPtrTypeEPNS_4TypeE
__ZN4llvm28isSafeToSpeculativelyExecuteEPKNS_5ValueEPKNS_11InstructionEPKNS_13DominatorTreeEPKNS_17TargetLibraryInfoE
__ZN4llvm34isDereferenceableAndAlignedPointerEPKNS_5ValueEjRKNS_10DataLayoutEPKNS_11InstructionEPKNS_13DominatorTreeEPKNS_17TargetLibraryInfoE
__ZN4llvm5Value41stripAndAccumulateInBoundsConstantOffsetsERKNS_10DataLayoutERNS_5APIntE
__ZL30isDereferenceableFromAttributePKN4llvm5ValueENS_5APIntEPNS_4TypeERKNS_10DataLayoutEPKNS_11InstructionEPKNS_13DominatorTreeEPKNS_17TargetLibraryInfoE
__ZL34isDereferenceableAndAlignedPointerPKN4llvm5ValueEjRKNS_10DataLayoutEPKNS_11InstructionEPKNS_13DominatorTreeEPKNS_17TargetLibraryInfoERNS_15SmallPtrSetImplIS2_EE
__ZL9isAlignedPKN4llvm5ValueEjRKNS_10DataLayoutE
__ZL9isAlignedPKN4llvm5ValueENS_5APIntEjRKNS_10DataLayoutE
__ZL12getAlignmentPKN4llvm5ValueERKNS_10DataLayoutE
__ZNK4llvm11Instruction24isIdenticalToWhenDefinedEPKS0_
__ZL11canTrapImplPKN4llvm8ConstantERNS_15SmallPtrSetImplIPKNS_12ConstantExprEEE
__ZL22SpeculativelyExecuteBBPN4llvm10BranchInstEPNS_10BasicBlockERKNS_19TargetTransformInfoE
__ZN4llvm19TargetTransformInfo5ModelINS_14AArch64TTIImplEE11getUserCostEPKNS_4UserE
__ZN4llvm27TargetTransformInfoImplBase16getOperationCostEjPNS_4TypeES2_
__ZN4llvm18isImpliedConditionEPNS_5ValueES1_RKNS_10DataLayoutEjPNS_15AssumptionCacheEPKNS_11InstructionEPKNS_13DominatorTreeE
__ZL22mergeConditionalStoresPN4llvm10BranchInstES1_
__ZN4llvm39TryToSimplifyUncondBranchFromEmptyBlockEPNS_10BasicBlockE
__ZN4llvm5Value8takeNameEPS0_
__ZN12_GLOBAL__N_114SimplifyCFGOpt45SimplifyEqualityComparisonWithOnlyPredecessorEPN4llvm14TerminatorInstEPNS1_10BasicBlockERNS1_9IRBuilderINS1_14ConstantFolderENS1_24IRBuilderDefaultInserterEEE
__ZN4llvm13ConstantRange21makeAllowedICmpRegionENS_7CmpInst9PredicateERKS0_
__ZNK4llvm13ConstantRange7inverseEv
__ZNK4llvm13ConstantRange10getSetSizeEv
__ZL20haveSameSpecialStatePKN4llvm11InstructionES2_b
__ZN4llvm19TargetTransformInfo5ModelINS_14AArch64TTIImplEE19isProfitableToHoistEPNS_11InstructionE
__ZNK4llvm21AArch64TargetLowering19isProfitableToHoistEPNS_11InstructionE
__ZN4llvm15combineMetadataEPNS_11InstructionEPKS0_NS_8ArrayRefIjEE
__ZN4llvm11Instruction27dropUnknownNonDebugMetadataENS_8ArrayRefIjEE
__ZNK4llvm15MDAttachmentMap6getAllERNS_15SmallVectorImplINSt3__14pairIjPNS_6MDNodeEEEEE
__ZN4llvm6MDNode18getMostGenericTBAAEPS0_S1_
__ZN4llvm8LoadInstD0Ev
__ZN4llvm15SmallPtrSetImplIPNS_10BasicBlockEE6insertINS_12PredIteratorIS1_NS_5Value18user_iterator_implINS_4UserEEEEEEEvT_SB_
__ZN12_GLOBAL__N_114SimplifyCFGOpt14SimplifySwitchEPN4llvm10SwitchInstERNS1_9IRBuilderINS1_14ConstantFolderENS1_24IRBuilderDefaultInserterEEE
__ZL16computeKnownBitsPN4llvm5ValueERNS_5APIntES3_jRKN12_GLOBAL__N_15QueryE
__ZL28computeKnownBitsFromOperatorPN4llvm8OperatorERNS_5APIntES3_jRKN12_GLOBAL__N_15QueryE
__ZL26computeKnownBitsFromAssumePN4llvm5ValueERNS_5APIntES3_jRKN12_GLOBAL__N_15QueryE
__ZN4llvm15AssumptionCache12scanFunctionEv
__ZL16HasBranchWeightsPKN4llvm11InstructionE
__ZL14GetCaseResultsPN4llvm10SwitchInstEPNS_11ConstantIntEPNS_10BasicBlockEPS5_RNS_15SmallVectorImplINSt3__14pairIPNS_7PHINodeEPNS_8ConstantEEEEERKNS_10DataLayoutE
__ZN4llvm19TargetTransformInfo5ModelINS_14AArch64TTIImplEE23shouldBuildLookupTablesEv
__ZL22SafeToMergeTerminatorsPN4llvm14TerminatorInstES1_
__ZN4llvm15SmallPtrSetImplIPNS_10BasicBlockEE6insertINS_14TerminatorInst12SuccIteratorIPS5_S1_EEEEvT_S9_
__ZNK4llvm12DenseMapBaseINS_13SmallDenseMapINSt3__14pairIPNS_5ValueES5_EEPNS_7PHINodeELj4ENS_12DenseMapInfoIS6_EENS_6detail12DenseMapPairIS6_S8_EEEES6_S8_SA_SD_E15LookupBucketForIS6_EEbRKT_RPKSD_
__ZNK4llvm11Instruction9mayReturnEv
__ZN4llvm12DenseMapBaseINS_8DenseMapIPNS_7PHINodeENS_6detail13DenseSetEmptyEZNS_26EliminateDuplicatePHINodesEPNS_10BasicBlockEE15PHIDenseMapInfoNS4_12DenseSetPairIS3_EEEES3_S5_S8_SA_E15LookupBucketForIS3_EEbRKT_RPSA_
__ZN4llvm7hashing6detail23hash_combine_range_implINS_4User17value_op_iteratorEEENS_9hash_codeET_S6_
__ZL29passingValueIsAlwaysUndefinedPN4llvm5ValueEPNS_11InstructionE
__ZL19DominatesMergePointPN4llvm5ValueEPNS_10BasicBlockEPNS_15SmallPtrSetImplIPNS_11InstructionEEERjRKNS_19TargetTransformInfoEj
__ZNK4llvm11GEPOperator24accumulateConstantOffsetERKNS_10DataLayoutERNS_5APIntE
__ZN4llvm5APIntpLERKS0_
__ZN4llvm4sroa14SROALegacyPass13runOnFunctionERNS_8FunctionE
__ZN4llvm9SetVectorIPNS_10AllocaInstENS_11SmallVectorIS2_Lj16EEENS_8DenseSetIS2_NS_12DenseMapInfoIS2_EEEEE6insertERKS2_
__ZN4llvm8DenseMapIPNS_10AllocaInstENS_6detail13DenseSetEmptyENS_12DenseMapInfoIS2_EENS3_12DenseSetPairIS2_EEE4growEj
__ZN4llvm4SROA11runOnAllocaERNS_10AllocaInstE
__ZN12_GLOBAL__N_120AggLoadStoreRewriter12enqueueUsersERN4llvm11InstructionE
__ZN4llvm6detail17PtrUseVisitorBase12enqueueUsersERNS_11InstructionE
__ZN4llvm4sroa12AllocaSlices12SliceBuilder18visitIntrinsicInstERNS_13IntrinsicInstE
__ZN4llvm4sroa12AllocaSlices12SliceBuilder9insertUseERNS_11InstructionERKNS_5APIntEyb
__ZNSt3__16__sortIRNS_6__lessIN12_GLOBAL__N_15SliceES3_EEPS3_EEvT0_S7_T_
__ZNSt3__17__sort4IRNS_6__lessIN12_GLOBAL__N_15SliceES3_EEPS3_EEjT0_S7_S7_S7_T_
__ZNSt3__17__sort3IRNS_6__lessIN12_GLOBAL__N_15SliceES3_EEPS3_EEjT0_S7_S7_T_
__ZN4llvm4SROA22presplitLoadsAndStoresERNS_10AllocaInstERNS_4sroa12AllocaSlicesE
__ZN4llvm4sroa12AllocaSlices10partitionsEv
__ZN4llvm4sroa12AllocaSlices18partition_iterator7advanceEv
__ZL15canConvertValueRKN4llvm10DataLayoutEPNS_4TypeES4_
__ZL31isIntegerWideningViableForSliceRKN12_GLOBAL__N_15SliceEyPN4llvm4TypeERKNS3_10DataLayoutERb
__ZN4llvm4sroa19AllocaSliceRewriter5visitEPKN12_GLOBAL__N_15SliceE
__ZN4llvm5Value20stripInBoundsOffsetsEv
__ZL12convertValueRKN4llvm10DataLayoutERNS_9IRBuilderINS_14ConstantFolderEN12_GLOBAL__N_125IRBuilderPrefixedInserterEEEPNS_5ValueEPNS_4TypeE
__ZNK12_GLOBAL__N_125IRBuilderPrefixedInserter12InsertHelperEPN4llvm11InstructionERKNS1_5TwineEPNS1_10BasicBlockENS1_14ilist_iteratorIS2_EE
__ZN4llvm9SetVectorIPNS_11InstructionENS_11SmallVectorIS2_Lj8EEENS_8DenseSetIS2_NS_12DenseMapInfoIS2_EEEEE6insertERKS2_
__ZN4llvm8DenseMapIPNS_11InstructionENS_6detail13DenseSetEmptyENS_12DenseMapInfoIS2_EENS3_12DenseSetPairIS2_EEE4growEj
__ZN4llvm4sroa19AllocaSliceRewriter18visitIntrinsicInstERNS_13IntrinsicInstE
__ZN4llvm4sroa19AllocaSliceRewriter20getNewAllocaSlicePtrERNS_9IRBuilderINS_14ConstantFolderEN12_GLOBAL__N_125IRBuilderPrefixedInserterEEEPNS_4TypeE
__ZL14getAdjustedPtrRN4llvm9IRBuilderINS_14ConstantFolderEN12_GLOBAL__N_125IRBuilderPrefixedInserterEEERKNS_10DataLayoutEPNS_5ValueENS_5APIntEPNS_4TypeENS_5TwineE
__ZNK4llvm5APInt4sdivERKS0_
__ZN4llvm5APIntmIERKS0_
__ZL24getNaturalGEPRecursivelyRN4llvm9IRBuilderINS_14ConstantFolderEN12_GLOBAL__N_125IRBuilderPrefixedInserterEEERKNS_10DataLayoutEPNS_5ValueEPNS_4TypeERNS_5APIntESC_RNS_15SmallVectorImplISA_EENS_5TwineE
__ZL8buildGEPRN4llvm9IRBuilderINS_14ConstantFolderEN12_GLOBAL__N_125IRBuilderPrefixedInserterEEEPNS_5ValueERNS_15SmallVectorImplIS7_EENS_5TwineE
__ZN4llvm9IRBuilderINS_14ConstantFolderEN12_GLOBAL__N_125IRBuilderPrefixedInserterEE10CreateCastENS_11Instruction7CastOpsEPNS_5ValueEPNS_4TypeERKNS_5TwineE
__ZN4llvm13IRBuilderBase19CreateLifetimeStartEPNS_5ValueEPNS_11ConstantIntE
__ZN4llvm13IRBuilderBase21getCastedInt8PtrValueEPNS_5ValueE
__ZL16createCallHelperPN4llvm5ValueENS_8ArrayRefIS1_EEPNS_13IRBuilderBaseERKNS_5TwineE
__ZN4llvm13IRBuilderBase17CreateLifetimeEndEPNS_5ValueEPNS_11ConstantIntE
__ZN4llvm20FindAllocaDbgDeclareEPNS_5ValueE
__ZN4llvm8CallInstD0Ev
__ZNSt3__17__sort5IRNS_6__lessIN12_GLOBAL__N_15SliceES3_EEPS3_EEjT0_S7_S7_S7_S7_T_
__ZN4llvm9IRBuilderINS_14ConstantFolderEN12_GLOBAL__N_125IRBuilderPrefixedInserterEE17CreateAlignedLoadEPNS_5ValueEjPKc
__ZN4llvm12DenseMapBaseINS_8DenseMapIPNS_11InstructionENS_6detail13DenseSetEmptyENS_12DenseMapInfoIS3_EENS4_12DenseSetPairIS3_EEEES3_S5_S7_S9_E18moveFromOldBucketsEPS9_SC_
__ZN4llvm15PromoteMemToRegENS_8ArrayRefIPNS_10AllocaInstEEERNS_13DominatorTreeEPNS_15AliasSetTrackerEPNS_15AssumptionCacheE
__ZN12_GLOBAL__N_114PromoteMem2Reg3runEv
__ZN12_GLOBAL__N_114LargeBlockInfo19getInstructionIndexEPKN4llvm11InstructionE
__ZN4llvm12DenseMapBaseINS_8DenseMapIPKNS_11InstructionEjNS_12DenseMapInfoIS4_EENS_6detail12DenseMapPairIS4_jEEEES4_jS6_S9_E20InsertIntoBucketImplERKS4_PS9_
__ZN4llvm8DenseMapIPKNS_11InstructionEjNS_12DenseMapInfoIS3_EENS_6detail12DenseMapPairIS3_jEEE4growEj
__ZN4llvm12DenseMapBaseINS_8DenseMapIPNS_10BasicBlockEjNS_12DenseMapInfoIS3_EENS_6detail12DenseMapPairIS3_jEEEES3_jS5_S8_E20InsertIntoBucketImplERKS3_PS8_
__ZN4llvm8DenseMapIPNS_10BasicBlockEjNS_12DenseMapInfoIS2_EENS_6detail12DenseMapPairIS2_jEEE4growEj
__ZN4llvm12DenseMapBaseINS_8DenseMapIPNS_10BasicBlockEjNS_12DenseMapInfoIS3_EENS_6detail12DenseMapPairIS3_jEEEES3_jS5_S8_E18moveFromOldBucketsEPS8_SB_
__ZN4llvm8DenseMapIPNS_10AllocaInstEjNS_12DenseMapInfoIS2_EENS_6detail12DenseMapPairIS2_jEEE4growEj
__ZN4llvm8DenseMapIPNS_15DomTreeNodeBaseINS_10BasicBlockEEEjNS_12DenseMapInfoIS4_EENS_6detail12DenseMapPairIS4_jEEE4growEj
__ZN4llvm11df_iteratorIPNS_15DomTreeNodeBaseINS_10BasicBlockEEENS_11SmallPtrSetIS4_Lj8EEELb0ENS_11GraphTraitsIS4_EEE6toNextEv
__ZN4llvm12DenseMapBaseINS_8DenseMapIPNS_15DomTreeNodeBaseINS_10BasicBlockEEEjNS_12DenseMapInfoIS5_EENS_6detail12DenseMapPairIS5_jEEEES5_jS7_SA_E18moveFromOldBucketsEPSA_SD_
__ZNK4llvm12DenseMapBaseINS_8DenseMapINSt3__14pairIjjEEPNS_7PHINodeENS_12DenseMapInfoIS4_EENS_6detail12DenseMapPairIS4_S6_EEEES4_S6_S8_SB_E15LookupBucketForIS4_EEbRKT_RPKSB_
__ZN4llvm8DenseMapINSt3__14pairIjjEEPNS_7PHINodeENS_12DenseMapInfoIS3_EENS_6detail12DenseMapPairIS3_S5_EEE4growEj
__ZN12_GLOBAL__N_114PromoteMem2Reg11getNumPredsEPKN4llvm10BasicBlockE
__ZN4llvm12DenseMapBaseINS_8DenseMapIPKNS_10BasicBlockEjNS_12DenseMapInfoIS4_EENS_6detail12DenseMapPairIS4_jEEEES4_jS6_S9_E20InsertIntoBucketImplERKS4_PS9_
__ZN4llvm8DenseMapIPKNS_10BasicBlockEjNS_12DenseMapInfoIS3_EENS_6detail12DenseMapPairIS3_jEEE4growEj
__ZN4llvm12DenseMapBaseINS_8DenseMapIPNS_7PHINodeEjNS_12DenseMapInfoIS3_EENS_6detail12DenseMapPairIS3_jEEEES3_jS5_S8_E20InsertIntoBucketImplERKS3_PS8_
__ZN4llvm8DenseMapIPNS_7PHINodeEjNS_12DenseMapInfoIS2_EENS_6detail12DenseMapPairIS2_jEEE4growEj
__ZNSt3__16__sortIRZN12_GLOBAL__N_114PromoteMem2Reg3runEvE3$_0PPN4llvm10BasicBlockEEEvT0_S9_T_
__ZNSt3__17__sort3IRZN12_GLOBAL__N_114PromoteMem2Reg3runEvE3$_0PPN4llvm10BasicBlockEEEjT0_S9_S9_T_
__ZL17ValueDominatesPHIPN4llvm5ValueEPNS_7PHINodeEPKNS_13DominatorTreeE
__ZNK4llvm13DominatorTree9dominatesEPKNS_11InstructionES3_
__ZNK4llvm13DominatorTree9dominatesEPKNS_11InstructionEPKNS_10BasicBlockE
__ZL22computeKnownBitsAddSubbPN4llvm5ValueES1_bRNS_5APIntES3_S3_S3_jRKN12_GLOBAL__N_15QueryE
__ZN12_GLOBAL__N_118EarlyCSELegacyPass13runOnFunctionERN4llvm8FunctionE
__ZN4llvm19TargetTransformInfo5ModelINS_14AArch64TTIImplEED0Ev
__ZNSt3__15dequeIPN12_GLOBAL__N_18EarlyCSE9StackNodeENS_9allocatorIS4_EEE9push_backEOS4_
__ZN12_GLOBAL__N_18EarlyCSE15ParseMemoryInstC1EPN4llvm11InstructionERKNS2_19TargetTransformInfoE
__ZN4llvm12DenseMapBaseINS_8DenseMapIN12_GLOBAL__N_111SimpleValueEPNS_18ScopedHashTableValIS3_PNS_5ValueEEENS_12DenseMapInfoIS3_EENS_6detail12DenseMapPairIS3_S8_EEEES3_S8_SA_SD_E15LookupBucketForIS3_EEbRKT_RPSD_
__ZN4llvm12DenseMapInfoIN12_GLOBAL__N_111SimpleValueEE7isEqualES2_S2_
__ZN4llvm12SimplifyCallEPNS_5ValueEPNS_3UseES3_RKNS_10DataLayoutEPKNS_17TargetLibraryInfoEPKNS_13DominatorTreeEPNS_15AssumptionCacheEPKNS_11InstructionE
__ZN4llvm21canConstantFoldCallToEPKNS_8FunctionE
__ZN4llvm19TargetTransformInfo5ModelINS_14AArch64TTIImplEE18getTgtMemIntrinsicEPNS_13IntrinsicInstERNS_16MemIntrinsicInfoE
__ZN4llvm12DenseMapBaseINS_8DenseMapIPNS_5ValueEPNS_18ScopedHashTableValIS3_N12_GLOBAL__N_18EarlyCSE9LoadValueEEENS_12DenseMapInfoIS3_EENS_6detail12DenseMapPairIS3_S9_EEEES3_S9_SB_SE_E4growEj
__ZL15SimplifyMulInstPN4llvm5ValueES1_RKN12_GLOBAL__N_15QueryEj
__ZN4llvm12PatternMatch11cst_pred_tyINS0_6is_oneEE5matchINS_5ValueEEEbPT_
__ZN4llvm12PatternMatch11Exact_matchINS0_12BinOp2_matchINS0_7bind_tyINS_5ValueEEENS0_14specificval_tyELj18ELj17EEEE5matchIS4_EEbPT_
__ZL24SimplifyAssociativeBinOpjPN4llvm5ValueES1_RKN12_GLOBAL__N_15QueryEj
__ZL11ExpandBinOpjPN4llvm5ValueES1_jRKN12_GLOBAL__N_15QueryEj
__ZL19computeKnownBitsMulPN4llvm5ValueES1_bRNS_5APIntES3_S3_S3_jRKN12_GLOBAL__N_15QueryE
__ZN4llvm14BinaryOperatorD0Ev
__ZL16SimplifyICmpInstjPN4llvm5ValueES1_RKN12_GLOBAL__N_15QueryEj
__ZL14isKnownNonZeroPN4llvm5ValueEjRKN12_GLOBAL__N_15QueryE
__ZN4llvm14isKnownNonNullEPKNS_5ValueEPKNS_17TargetLibraryInfoE
__ZN4llvm15isKnownNonEqualEPNS_5ValueES1_RKNS_10DataLayoutEPNS_15AssumptionCacheEPKNS_11InstructionEPKNS_13DominatorTreeE
__ZN4llvm5Value17stripPointerCastsEv
__ZL30stripAndComputeConstantOffsetsRKN4llvm10DataLayoutERPNS_5ValueEb
__ZN4llvm20GetUnderlyingObjectsEPNS_5ValueERNS_15SmallVectorImplIS1_EERKNS_10DataLayoutEPNS_8LoopInfoEj
__ZL16ThreadCmpOverPHIN4llvm7CmpInst9PredicateEPNS_5ValueES3_RKN12_GLOBAL__N_15QueryEj
__ZNK4llvm8Argument22hasByValOrInAllocaAttrEv
__ZNK4llvm13DominatorTree9dominatesERKNS_14BasicBlockEdgeERKNS_3UseE
__ZNK4llvm13DominatorTree9dominatesERKNS_14BasicBlockEdgeEPKNS_10BasicBlockE
__ZN4llvm15SimplifyGEPInstEPNS_4TypeENS_8ArrayRefIPNS_5ValueEEERKNS_10DataLayoutEPKNS_17TargetLibraryInfoEPKNS_13DominatorTreeEPNS_15AssumptionCacheEPKNS_11InstructionE
__ZN4llvm17GetElementPtrInstD0Ev
__ZL15SimplifyAddInstPN4llvm5ValueES1_bbRKN12_GLOBAL__N_15QueryEj
__ZN4llvm28ConstantFoldLoadFromConstPtrEPNS_8ConstantERKNS_10DataLayoutE
__ZL15SimplifyAndInstPN4llvm5ValueES1_RKN12_GLOBAL__N_15QueryEj
__ZN4llvm12PatternMatch11cst_pred_tyINS0_11is_all_onesEE5matchINS_5ValueEEEbPT_
__ZN4llvm12PatternMatch9neg_matchINS0_14specificval_tyEE5matchINS_5ValueEEEbPT_
__ZN4llvm8ICmpInst17makeConstantRangeENS_7CmpInst9PredicateERKNS_5APIntE
__ZN4llvm13ConstantRangeC2Ejb
__ZNK4llvm13ConstantRange8containsERKS0_
__ZN4llvm31ConstantFoldCompareInstOperandsEjPNS_8ConstantES1_RKNS_10DataLayoutEPKNS_17TargetLibraryInfoE
__ZL20evaluateICmpRelationPN4llvm8ConstantES1_b
__ZL34ConstantFoldConstantExpressionImplPKN4llvm12ConstantExprERKNS_10DataLayoutEPKNS_17TargetLibraryInfoERNS_15SmallPtrSetImplIPS0_EE
__ZN4llvm8CastInst13getCastOpcodeEPKNS_5ValueEbPNS_4TypeEb
__ZN4llvm17GetElementPtrInst14getIndexedTypeEPNS_4TypeENS_8ArrayRefIPNS_8ConstantEEE
__ZNK4llvm10DataLayout16getIndexedOffsetEPNS_4TypeENS_8ArrayRefIPNS_5ValueEEE
__ZN4llvm21getConstantStringInfoEPKNS_5ValueERNS_9StringRefEyb
__ZL31FoldReinterpretLoadFromConstPtrPN4llvm8ConstantERKNS_10DataLayoutE
__ZN12_GLOBAL__N_120LowerExpectIntrinsic13runOnFunctionERN4llvm8FunctionE
__ZN4llvm7PHINodeD0Ev
__ZN4llvm9IRBuilderINS_14ConstantFolderENS_24IRBuilderDefaultInserterEE8CreateBrEPNS_10BasicBlockE
__ZN4llvm10BasicBlock17removePredecessorEPS0_b
__ZN4llvm10SwitchInstD0Ev
__ZN4llvm42RecursivelyDeleteTriviallyDeadInstructionsEPNS_5ValueEPKNS_17TargetLibraryInfoE
__ZN4llvm15UnreachableInstD0Ev
__ZNK4llvm13ConstantRange14getUnsignedMinEv
__ZNK4llvm13ConstantRange12getSignedMaxEv
__ZL18SimplifyRightShiftjPN4llvm5ValueES1_bRKN12_GLOBAL__N_15QueryEj
__ZL13SimplifyShiftjPN4llvm5ValueES1_RKN12_GLOBAL__N_15QueryEj
__ZL12isUndefShiftPN4llvm5ValueE
__ZN4llvm12PatternMatch25OverflowingBinaryOp_matchINS0_7bind_tyINS_5ValueEEENS0_14specificval_tyELj23ELj1EE5matchIS3_EEbPT_
__ZZL28computeKnownBitsFromOperatorPN4llvm8OperatorERNS_5APIntES3_jRKN12_GLOBAL__N_15QueryEENK3$_3clERKS2_j
__ZL14SimplifyOrInstPN4llvm5ValueES1_RKN12_GLOBAL__N_15QueryEj
__ZN4llvm12PatternMatch9not_matchINS0_14BinaryOp_matchINS0_7bind_tyINS_5ValueEEES5_Lj26EEEE5matchIS4_EEbPT_
__ZNK4llvm13ConstantRange14getUnsignedMaxEv
__ZNK4llvm11Instruction5cloneEv
__ZN12_GLOBAL__N_16Mapper16remapInstructionEPN4llvm11InstructionE
__ZN12_GLOBAL__N_16Mapper8mapValueEPKN4llvm5ValueE
__ZNK4llvm11Instruction18getAllMetadataImplERNS_15SmallVectorImplINSt3__14pairIjPNS_6MDNodeEEEEE
__ZN12_GLOBAL__N_16Mapper11mapMetadataEPKN4llvm8MetadataE
__ZN12_GLOBAL__N_16Mapper17mapSimpleMetadataEPKN4llvm8MetadataE
__ZN12_GLOBAL__N_114FlushingMapperD1Ev
__ZN4llvm11ValueMapperD1Ev
__ZN4llvm12DenseMapBaseINS_8DenseMapINS_18ValueMapCallbackVHIPKNS_5ValueENS_6WeakVHENS_14ValueMapConfigIS5_NS_3sys10SmartMutexILb0EEEEEEES6_NS_12DenseMapInfoISC_EENS_6detail12DenseMapPairISC_S6_EEEESC_S6_SE_SH_E16InsertIntoBucketEOSC_OS6_PSH_
__ZN4llvm8ValueMapIPKNS_5ValueENS_6WeakVHENS_14ValueMapConfigIS3_NS_3sys10SmartMutexILb0EEEEEEixERKS3_
__ZN4llvm9IRBuilderINS_14ConstantFolderENS_24IRBuilderDefaultInserterEE11CreateBinOpENS_11Instruction9BinaryOpsEPNS_5ValueES7_RKNS_5TwineEPNS_6MDNodeE
__ZL21ExtractBranchMetadataPN4llvm10BranchInstERyS2_
__ZN4llvm15DeleteDeadBlockEPNS_10BasicBlockE
__ZN4llvm8ICmpInstD0Ev
__ZNK4llvm11Instruction17isSameOperationAsEPKS0_j
__ZN4llvm15SmallVectorImplIPNS_10BasicBlockEE6appendINS_12PredIteratorIS1_NS_5Value18user_iterator_implINS_4UserEEEEEEEvT_SB_
__ZN4llvm7PHINode19removeIncomingValueEjb
__ZN4llvm8DenseMapIPNS_10BasicBlockEPNS_5ValueENS_12DenseMapInfoIS2_EENS_6detail12DenseMapPairIS2_S4_EEE4growEj
__ZL27selectIncomingValueForBlockPN4llvm5ValueEPNS_10BasicBlockERNS_8DenseMapIS3_S1_NS_12DenseMapInfoIS3_EENS_6detail12DenseMapPairIS3_S1_EEEE
__ZL18SimplifyAndOfICmpsPN4llvm8ICmpInstES1_
__ZL26simplifyUnsignedRangeCheckPN4llvm8ICmpInstES1_b
__ZN4llvm12PatternMatch5matchINS_8ICmpInstENS0_14CmpClass_matchINS0_14BinaryOp_matchINS0_7bind_tyINS_5ValueEEENS5_INS_11ConstantIntEEELj11EEES9_S2_NS_7CmpInst9PredicateEEEEEbPT_RKT0_
__ZN4llvm18SimplifySelectInstEPNS_5ValueES1_S1_RKNS_10DataLayoutEPKNS_17TargetLibraryInfoEPKNS_13DominatorTreeEPNS_15AssumptionCacheEPKNS_11InstructionE
__ZN4llvm8SExtInstD0Ev
__ZN4llvm12PatternMatch14BinaryOp_matchINS0_7bind_tyINS_5ValueEEENS0_11apint_matchELj26EE5matchIS3_EEbPT_
__ZL22SimplifyWithOpReplacedPN4llvm5ValueES1_S1_RKN12_GLOBAL__N_15QueryEj
__ZL15SimplifySubInstPN4llvm5ValueES1_bbRKN12_GLOBAL__N_15QueryEj
__ZN4llvm10SelectInstD0Ev
__ZL11SimplifyDivN4llvm11Instruction9BinaryOpsEPNS_5ValueES3_RKN12_GLOBAL__N_15QueryEj
__ZL21ThreadBinOpOverSelectjPN4llvm5ValueES1_RKN12_GLOBAL__N_15QueryEj
__ZL13SimplifyBinOpjPN4llvm5ValueES1_RKN12_GLOBAL__N_15QueryEj
__ZN4llvm12PatternMatch11Exact_matchINS0_12BinOp2_matchINS0_7bind_tyINS_5ValueEEENS0_14specificval_tyELj24ELj25EEEE5matchIS4_EEbPT_
__ZN4llvm9IRBuilderINS_14ConstantFolderENS_24IRBuilderDefaultInserterEE10CreateICmpENS_7CmpInst9PredicateEPNS_5ValueES7_RKNS_5TwineE
__ZN4llvm9IRBuilderINS_14ConstantFolderENS_24IRBuilderDefaultInserterEE12CreateCondBrEPNS_5ValueEPNS_10BasicBlockES7_PNS_6MDNodeES9_
__ZNK4llvm13ConstantRange12getSignedMinEv
__ZN12_GLOBAL__N_114SimplifyCFGOpt35FoldValueComparisonIntoPredecessorsEPN4llvm14TerminatorInstERNS1_9IRBuilderINS1_14ConstantFolderENS1_24IRBuilderDefaultInserterEEE
__ZN4llvm10BranchInst14swapSuccessorsEv
__ZN4llvm3Use4swapERS0_
__ZN4llvm9IRBuilderINS_8NoFolderENS_24IRBuilderDefaultInserterEE12CreateSelectEPNS_5ValueES5_S5_RKNS_5TwineE
__ZL19FoldCondBranchOnPHIPN4llvm10BranchInstERKNS_10DataLayoutE
__ZL34BlockIsSimpleEnoughToThreadThroughPN4llvm10BasicBlockE
__ZN4llvm10BasicBlock10insertIntoEPNS_8FunctionEPS0_
__ZN4llvm10BranchInstC1EPNS_10BasicBlockES2_
__ZN4llvm12DenseMapBaseINS_8DenseMapIPNS_5ValueES3_NS_12DenseMapInfoIS3_EENS_6detail12DenseMapPairIS3_S3_EEEES3_S3_S5_S8_E20InsertIntoBucketImplERKS3_PS8_
__ZN4llvm8DenseMapIPNS_5ValueES2_NS_12DenseMapInfoIS2_EENS_6detail12DenseMapPairIS2_S2_EEE4growEj
__ZN4llvm10BranchInst13setSuccessorVEjPNS_10BasicBlockE
__ZN4llvm12PatternMatch25OverflowingBinaryOp_matchINS0_14specificval_tyENS0_11apint_matchELj11ELj2EE5matchINS_5ValueEEEbPT_
__ZN4llvm12DenseMapBaseINS_8DenseMapIPNS_7PHINodeEjNS_12DenseMapInfoIS3_EENS_6detail12DenseMapPairIS3_jEEEES3_jS5_S8_E18moveFromOldBucketsEPS8_SB_
__ZNSt3__17__sort4IRZN12_GLOBAL__N_114PromoteMem2Reg3runEvE3$_0PPN4llvm10BasicBlockEEEjT0_S9_S9_S9_T_
__ZN4llvm12DenseMapBaseINS_8DenseMapIPKNS_10BasicBlockEjNS_12DenseMapInfoIS4_EENS_6detail12DenseMapPairIS4_jEEEES4_jS6_S9_E18moveFromOldBucketsEPS9_SC_
__ZL19ThreadCmpOverSelectN4llvm7CmpInst9PredicateEPNS_5ValueES3_RKN12_GLOBAL__N_15QueryEj
__ZL14ComputeSignBitPN4llvm5ValueERbS2_jRKN12_GLOBAL__N_15QueryE
__ZZL28computeKnownBitsFromOperatorPN4llvm8OperatorERNS_5APIntES3_jRKN12_GLOBAL__N_15QueryEENK3$_1clERKS2_j
__ZL15SimplifyXorInstPN4llvm5ValueES1_RKN12_GLOBAL__N_15QueryEj
__ZL18ThreadBinOpOverPHIjPN4llvm5ValueES1_RKN12_GLOBAL__N_15QueryEj
__ZL17SimplifyOrOfICmpsPN4llvm8ICmpInstES1_
__ZNK4llvm21AArch64TargetLowering10isZExtFreeEPNS_4TypeES2_
__ZN4llvm10SwitchInst10removeCaseENS0_6CaseItE
__ZL22isKnownToBeAPowerOfTwoPN4llvm5ValueEbjRKN12_GLOBAL__N_15QueryE
__ZL11SimplifyRemN4llvm11Instruction9BinaryOpsEPNS_5ValueES3_RKN12_GLOBAL__N_15QueryEj
__ZL18CasesAreContiguousRN4llvm15SmallVectorImplIPNS_11ConstantIntEEE
__ZN4llvm12ConstantExpr6getNegEPNS_8ConstantEbb
__ZNK4llvm13ConstantRange8subtractERKNS_5APIntE
__ZNSt3__17__sort5IRZN12_GLOBAL__N_114PromoteMem2Reg3runEvE3$_0PPN4llvm10BasicBlockEEEjT0_S9_S9_S9_S9_T_
__ZNK4llvm8Constant11isZeroValueEv
__ZL15isTruePredicateN4llvm7CmpInst9PredicateEPNS_5ValueES3_RKNS_10DataLayoutEjPNS_15AssumptionCacheEPKNS_11InstructionEPKNS_13DominatorTreeE
__ZN4llvm12PatternMatch25OverflowingBinaryOp_matchINS0_14specificval_tyENS0_11apint_matchELj11ELj1EE5matchINS_5ValueEEEbPT_
__ZN4llvm12PatternMatch14BinaryOp_matchINS0_7bind_tyINS_5ValueEEENS0_11apint_matchELj27EE5matchIS3_EEbPT_
__ZNSt3__16__sortIRN4llvm10less_firstEPNS_4pairIjPNS1_9StoreInstEEEEEvT0_S9_T_
__ZN4llvm12DenseMapBaseINS_8DenseMapIPKNS_11InstructionEjNS_12DenseMapInfoIS4_EENS_6detail12DenseMapPairIS4_jEEEES4_jS6_S9_E18moveFromOldBucketsEPS9_SC_
__ZL16SimplifyAShrInstPN4llvm5ValueES1_bRKN12_GLOBAL__N_15QueryEj
__ZL18ComputeNumSignBitsPN4llvm5ValueEjRKN12_GLOBAL__N_15QueryE
__ZN4llvm9IRBuilderINS_14ConstantFolderENS_24IRBuilderDefaultInserterEE9CreateNotEPNS_5ValueERKNS_5TwineE
__ZN4llvm31TargetTransformInfoImplCRTPBaseINS_14AArch64TTIImplEE10getGEPCostEPNS_4TypeEPKNS_5ValueENS_8ArrayRefIS7_EE
__ZN12_GLOBAL__N_128InferFunctionAttrsLegacyPass11runOnModuleERN4llvm6ModuleE
__ZN4llvm22inferLibFuncAttributesERNS_8FunctionERKNS_17TargetLibraryInfoE
__ZNK4llvm21TargetLibraryInfoImpl10getLibFuncERKNS_8FunctionERNS_7LibFunc4FuncE
__ZN4llvm8Function12addAttributeEjNS_9Attribute8AttrKindE
__ZN12_GLOBAL__N_16IPSCCP11runOnModuleERN4llvm6ModuleE
__ZN4llvm12DenseMapBaseINS_8DenseMapIPNS_8FunctionEN12_GLOBAL__N_110LatticeValENS_12DenseMapInfoIS3_EENS_6detail12DenseMapPairIS3_S5_EEEES3_S5_S7_SA_E4growEj
__ZN12_GLOBAL__N_110SCCPSolver15markOverdefinedEPN4llvm5ValueE
__ZN4llvm12DenseMapBaseINS_8DenseMapIPNS_5ValueEN12_GLOBAL__N_110LatticeValENS_12DenseMapInfoIS3_EENS_6detail12DenseMapPairIS3_S5_EEEES3_S5_S7_SA_E20InsertIntoBucketImplERKS3_PSA_
__ZL14AddressIsTakenPKN4llvm11GlobalValueE
__ZNK4llvm8Constant23removeDeadConstantUsersEv
__ZL25removeDeadUsersOfConstantPKN4llvm8ConstantE
__ZN4llvm8Constant15destroyConstantEv
__ZN4llvm17UnaryConstantExprD0Ev
__ZN4llvm12DenseMapBaseINS_8DenseMapIPNS_14GlobalVariableEN12_GLOBAL__N_110LatticeValENS_12DenseMapInfoIS3_EENS_6detail12DenseMapPairIS3_S5_EEEES3_S5_S7_SA_E4growEj
__ZN4llvm25GetElementPtrConstantExprD0Ev
__ZN12_GLOBAL__N_110SCCPSolver5SolveEv
__ZN4llvm11InstVisitorIN12_GLOBAL__N_110SCCPSolverEvE5visitERNS_11InstructionE
__ZN12_GLOBAL__N_110SCCPSolver13visitCastInstERN4llvm8CastInstE
__ZN12_GLOBAL__N_110SCCPSolver13getValueStateEPN4llvm5ValueE
__ZN12_GLOBAL__N_110SCCPSolver19visitBinaryOperatorERN4llvm11InstructionE
__ZN12_GLOBAL__N_110SCCPSolver12visitCmpInstERN4llvm7CmpInstE
__ZN12_GLOBAL__N_110SCCPSolver19visitTerminatorInstERN4llvm14TerminatorInstE
__ZN12_GLOBAL__N_110SCCPSolver18markEdgeExecutableEPN4llvm10BasicBlockES3_
__ZNK4llvm12DenseMapBaseINS_8DenseMapINSt3__14pairIPNS_10BasicBlockES5_EENS_6detail13DenseSetEmptyENS_12DenseMapInfoIS6_EENS7_12DenseSetPairIS6_EEEES6_S8_SA_SC_E15LookupBucketForIS6_EEbRKT_RPKSC_
__ZN4llvm8DenseMapINSt3__14pairIPNS_10BasicBlockES4_EENS_6detail13DenseSetEmptyENS_12DenseMapInfoIS5_EENS6_12DenseSetPairIS5_EEE4growEj
__ZN12_GLOBAL__N_110SCCPSolver13visitCallSiteEN4llvm8CallSiteE
__ZN12_GLOBAL__N_110SCCPSolver12mergeInValueERNS_10LatticeValEPN4llvm5ValueES1_
__ZN12_GLOBAL__N_110SCCPSolver12mergeInValueEPN4llvm5ValueENS_10LatticeValE
__ZN12_GLOBAL__N_110SCCPSolver12visitPHINodeERN4llvm7PHINodeE
__ZN12_GLOBAL__N_110SCCPSolver12markConstantEPN4llvm5ValueEPNS1_8ConstantE
__ZL26IsConstantOffsetFromGlobalPN4llvm8ConstantERPNS_11GlobalValueERNS_5APIntERKNS_10DataLayoutE
__ZN12_GLOBAL__N_110SCCPSolver16ResolvedUndefsInERN4llvm8FunctionE
__ZL24DeleteInstructionInBlockPN4llvm10BasicBlockE
__ZN12_GLOBAL__N_110SCCPSolverD1Ev
__ZN12_GLOBAL__N_19GlobalOpt11runOnModuleERN4llvm6ModuleE
__ZN12_GLOBAL__N_19GlobalOpt12deleteIfDeadERN4llvm11GlobalValueE
__ZN12_GLOBAL__N_19GlobalOpt13processGlobalERN4llvm11GlobalValueE
__ZL16analyzeGlobalAuxPKN4llvm5ValueERNS_12GlobalStatusERNS_15SmallPtrSetImplIPKNS_7PHINodeEEE
__ZN4llvm23optimizeGlobalCtorsListERNS_6ModuleENS_12function_refIFbPNS_8FunctionEEEE
__ZNK4llvm8Constant17isThreadDependentEv
__ZN12_GLOBAL__N_19GlobalOpt21processInternalGlobalEPN4llvm14GlobalVariableERKNS1_12GlobalStatusE
__ZN4llvm14GlobalVariableC1EPNS_4TypeEbNS_11GlobalValue12LinkageTypesEPNS_8ConstantERKNS_5TwineENS3_15ThreadLocalModeEjb
__ZN4llvm14GlobalVariable18copyAttributesFromEPKNS_11GlobalValueE
__ZN4llvm12GlobalObject18copyAttributesFromEPKNS_11GlobalValueE
__ZN4llvm14GlobalVariable15eraseFromParentEv
__ZN4llvm21SymbolTableListTraitsINS_14GlobalVariableEE18removeNodeFromListEPS1_
__ZN4llvm14GlobalVariableD0Ev
__ZL17isLeakCheckerRootPN4llvm14GlobalVariableE
__ZL23CleanupPointerRootUsersPN4llvm14GlobalVariableEPKNS_17TargetLibraryInfoE
__ZN4llvm26collectUsedGlobalVariablesERKNS_6ModuleERNS_15SmallPtrSetImplIPNS_11GlobalValueEEEb
__ZNK4llvm17TargetLibraryInfo7getNameENS_7LibFunc4FuncE
__ZN12_GLOBAL__N_111PromotePass13runOnFunctionERN4llvm8FunctionE
__ZN4llvm18isAllocaPromotableEPKNS_10AllocaInstE
__ZN12_GLOBAL__N_13DAE11runOnModuleERN4llvm6ModuleE
__ZNK12_GLOBAL__N_13DAE19ShouldHackArgumentsEv
__ZN12_GLOBAL__N_13DAE8MarkLiveERKN4llvm8FunctionE
__ZN12_GLOBAL__N_13DAE17PropagateLivenessERKNS0_8RetOrArgE
__ZN12_GLOBAL__N_13DAE9SurveyUseEPKN4llvm3UseERNS1_11SmallVectorINS0_8RetOrArgELj5EEEj
__ZN12_GLOBAL__N_13DAE9MarkValueERKNS0_8RetOrArgENS0_8LivenessERKN4llvm11SmallVectorIS1_Lj5EEE
__ZN12_GLOBAL__N_13DAE8MarkLiveERKNS0_8RetOrArgE
__ZN12_GLOBAL__N_13DAE13MarkIfNotLiveENS0_8RetOrArgERN4llvm11SmallVectorIS1_Lj5EEE
__ZNK4llvm12AttributeSet16removeAttributesERNS_11LLVMContextEjRKNS_11AttrBuilderE
__ZN4llvm8Function18copyAttributesFromEPKNS_11GlobalValueE
__ZN4llvm21SymbolTableListTraitsINS_10BasicBlockEE21transferNodesFromListERS2_NS_14ilist_iteratorIS1_EES5_
__ZN4llvm10ReturnInstD0Ev
__ZN4llvm8Function15eraseFromParentEv
__ZN4llvm8FunctionD0Ev
__ZN4llvm8FunctionD2Ev
__ZN4llvm8Function17dropAllReferencesEv
__ZN4llvm8ArgumentD0Ev
__ZN4llvm15ValueHandleBase14ValueIsDeletedEPNS_5ValueE
__ZN4llvm22AssumptionCacheTracker18FunctionCallbackVH7deletedEv
__ZN12_GLOBAL__N_124InstructionCombiningPass13runOnFunctionERN4llvm8FunctionE
__ZN4llvm15LowerDbgDeclareERNS_8FunctionE
__ZN4llvm8DenseMapIPNS_12ConstantExprEPNS_8ConstantENS_12DenseMapInfoIS2_EENS_6detail12DenseMapPairIS2_S4_EEE4growEj
__ZN4llvm8DenseMapIPNS_11InstructionEjNS_12DenseMapInfoIS2_EENS_6detail12DenseMapPairIS2_jEEE4growEj
__ZN4llvm12DenseMapBaseINS_8DenseMapIPNS_11InstructionEjNS_12DenseMapInfoIS3_EENS_6detail12DenseMapPairIS3_jEEEES3_jS5_S8_E20InsertIntoBucketImplERKS3_PS8_
__ZN4llvm11InstVisitorINS_12InstCombinerEPNS_11InstructionEE5visitERS2_
__ZN4llvm12InstCombiner14visitAllocSiteERNS_11InstructionE
__ZN4llvm12InstCombiner12visitBitCastERNS_11BitCastInstE
__ZN4llvm12InstCombiner27commonPointerCastTransformsERNS_8CastInstE
__ZN4llvm12InstCombiner20commonCastTransformsERNS_8CastInstE
__ZN4llvm12InstCombiner13visitCallInstERNS_8CallInstE
__ZN4llvm12InstCombiner13visitCallSiteENS_8CallSiteE
__ZN4llvm16isKnownNonNullAtEPKNS_5ValueEPKNS_11InstructionEPKNS_13DominatorTreeEPKNS_17TargetLibraryInfoE
__ZN4llvm17LibCallSimplifier12optimizeCallEPNS_8CallInstE
__ZNK4llvm17OperandBundleUserINS_8CallInstEPNS_3UseEE23getOperandBundlesAsDefsERNS_15SmallVectorImplINS_17OperandBundleDefTIPNS_5ValueEEEEE
__ZN4llvm26getOrEnforceKnownAlignmentEPNS_5ValueEjRKNS_10DataLayoutEPKNS_11InstructionEPNS_15AssumptionCacheEPKNS_13DominatorTreeE
__ZN4llvm12InstCombiner9visitZExtERNS_8ZExtInstE
__ZN4llvm12InstCombiner31SimplifyDemandedInstructionBitsERNS_11InstructionE
__ZN4llvm12InstCombiner23SimplifyDemandedUseBitsEPNS_5ValueENS_5APIntERS3_S4_jPNS_11InstructionE
__ZN4llvm12InstCombiner20SimplifyDemandedBitsERNS_3UseENS_5APIntERS3_S4_j
__ZNK4llvm12InstCombiner16ShouldChangeTypeEPNS_4TypeES2_
__ZL16canEvaluateZExtdPN4llvm5ValueEPNS_4TypeERjRNS_12InstCombinerEPNS_11InstructionE
__ZN4llvm19InstCombineWorklist3AddEPNS_11InstructionE
__ZN4llvm26FortifiedLibCallSimplifier12optimizeCallEPNS_8CallInstE
__ZL22combineStoreToNewValueRN4llvm12InstCombinerERNS_9StoreInstEPNS_5ValueE
__ZN4llvm9IRBuilderINS_12TargetFolderENS_21InstCombineIRInserterEE10CreateCastENS_11Instruction7CastOpsEPNS_5ValueEPNS_4TypeERKNS_5TwineE
__ZL11FoldBitCastPN4llvm8ConstantEPNS_4TypeERKNS_10DataLayoutE
__ZNK4llvm21InstCombineIRInserter12InsertHelperEPNS_11InstructionERKNS_5TwineEPNS_10BasicBlockENS_14ilist_iteratorIS1_EE
__ZN4llvm12InstCombiner21EraseInstFromFunctionERNS_11InstructionE
__ZN4llvm12InstCombiner8visitMulERNS_14BinaryOperatorE
__ZN4llvm12InstCombiner32SimplifyAssociativeOrCommutativeERNS_14BinaryOperatorE
__ZN4llvm12InstCombiner16SimplifyVectorOpERNS_14BinaryOperatorE
__ZN4llvm12InstCombiner29SimplifyUsingDistributiveLawsERNS_14BinaryOperatorE
__ZL16tryFactorizationPN4llvm9IRBuilderINS_12TargetFolderENS_21InstCombineIRInserterEEERKNS_10DataLayoutERNS_14BinaryOperatorENS_11Instruction9BinaryOpsEPNS_5ValueESD_SD_SD_
__ZN4llvm12InstCombiner21commonShiftTransformsERNS_14BinaryOperatorE
__ZL18CanEvaluateShiftedPN4llvm5ValueEjbRNS_12InstCombinerEPNS_11InstructionE
__ZN4llvm17MaskedValueIsZeroEPNS_5ValueERKNS_5APIntERKNS_10DataLayoutEjPNS_15AssumptionCacheEPKNS_11InstructionEPKNS_13DominatorTreeE
__ZN4llvm12InstCombiner12visitPHINodeERNS_7PHINodeE
__ZL14PHIsEqualValuePN4llvm7PHINodeEPNS_5ValueERNS_15SmallPtrSetImplIS1_EE
__ZN4llvm12InstCombiner13visitICmpInstERNS_8ICmpInstE
__ZL40ComputeUnsignedMinMaxValuesFromKnownBitsRKN4llvm5APIntES2_RS0_S3_
__ZN4llvm12InstCombiner13FoldOpIntoPhiERNS_11InstructionE
__ZN4llvm12PatternMatch14BinaryOp_matchINS0_7bind_tyINS_5ValueEEENS0_9not_matchIS4_EELj26EE5matchIS3_EEbPT_
__ZN4llvm12PatternMatch14BinaryOp_matchINS0_15CastClass_matchINS0_7bind_tyINS_5ValueEEELj37EEES6_Lj15EE5matchIS4_EEbPT_
__ZNK4llvm12InstCombiner14dyn_castNegValEPNS_5ValueE
__ZN4llvm19haveNoCommonBitsSetEPNS_5ValueES1_RKNS_10DataLayoutEPNS_15AssumptionCacheEPKNS_11InstructionEPKNS_13DominatorTreeE
__ZN4llvm29computeOverflowForUnsignedAddEPNS_5ValueES1_RKNS_10DataLayoutEPNS_15AssumptionCacheEPKNS_11InstructionEPKNS_13DominatorTreeE
__ZN4llvm12InstCombiner9visitSExtERNS_8SExtInstE
__ZL16canEvaluateSExtdPN4llvm5ValueEPNS_4TypeE
__ZN4llvm24FindAvailableLoadedValueEPNS_5ValueEPNS_10BasicBlockERNS_14ilist_iteratorINS_11InstructionEEEjPNS_9AAResultsEPNS_9AAMDNodesE
__ZN4llvm9AAResults13getModRefInfoEPKNS_11InstructionERKNS_14MemoryLocationE
__ZN4llvm9AAResults13getModRefInfoENS_17ImmutableCallSiteERKNS_14MemoryLocationE
__ZN4llvm9AAResults5ModelINS_13BasicAAResultEE13getModRefInfoENS_17ImmutableCallSiteERKNS_14MemoryLocationE
__ZN4llvm9AAResults5ModelINS_21ScopedNoAliasAAResultEE13getModRefInfoENS_17ImmutableCallSiteERKNS_14MemoryLocationE
__ZNK4llvm21ScopedNoAliasAAResult16mayAliasInScopesEPKNS_6MDNodeES3_
__ZN4llvm9AAResults5ModelINS_17TypeBasedAAResultEE13getModRefInfoENS_17ImmutableCallSiteERKNS_14MemoryLocationE
__ZN4llvm9AAResults5ModelINS_13BasicAAResultEE17getModRefBehaviorENS_17ImmutableCallSiteE
__ZNK4llvm8CallInst21onlyAccessesArgMemoryEv
__ZN4llvm9AAResults5ModelINS_13BasicAAResultEE17getModRefBehaviorEPKNS_8FunctionE
__ZN4llvm9AAResults5ModelINS_21ScopedNoAliasAAResultEE17getModRefBehaviorEPKNS_8FunctionE
__ZN4llvm9AAResults5ModelINS_17TypeBasedAAResultEE17getModRefBehaviorEPKNS_8FunctionE
__ZN4llvm9AAResults5ModelINS_21ScopedNoAliasAAResultEE17getModRefBehaviorENS_17ImmutableCallSiteE
__ZN4llvm9AAResults5ModelINS_17TypeBasedAAResultEE17getModRefBehaviorENS_17ImmutableCallSiteE
__ZNK4llvm8CastInst10isNoopCastERKNS_10DataLayoutE
__ZN4llvm12InstCombiner19ReplaceInstUsesWithERNS_11InstructionEPNS_5ValueE
__ZL20combineLoadToNewTypeRN4llvm12InstCombinerERNS_8LoadInstEPNS_4TypeERKNS_5TwineE
__ZN4llvm12InstCombiner9visitFreeERNS_8CallInstE
__ZN4llvm12InstCombiner19FoldPHIArgOpIntoPHIERNS_7PHINodeE
__ZL29isSafeAndProfitableToSinkLoadPN4llvm8LoadInstE
__ZN4llvm9AAResults13getModRefInfoEPKNS_9StoreInstERKNS_14MemoryLocationE
__ZN4llvm9AAResults5ModelINS_13BasicAAResultEE5aliasERKNS_14MemoryLocationES6_
__ZN4llvm13BasicAAResult5aliasERKNS_14MemoryLocationES3_
__ZNK4llvm12DenseMapBaseINS_13SmallDenseMapINSt3__14pairINS_14MemoryLocationES4_EENS_11AliasResultELj8ENS_12DenseMapInfoIS5_EENS_6detail12DenseMapPairIS5_S6_EEEES5_S6_S8_SB_E15LookupBucketForIS5_EEbRKT_RPKSB_
__ZN4llvm13BasicAAResult10aliasCheckEPKNS_5ValueEyNS_9AAMDNodesES3_yS4_
__ZN4llvm13BasicAAResult29isValueEqualInPotentialCyclesEPKNS_5ValueES3_
__ZN4llvm18isIdentifiedObjectEPKNS_5ValueE
__ZN4llvm12PatternMatch14BinaryOp_matchINS0_7bind_tyINS_5ValueEEENS0_11apint_matchELj28EE5matchIS3_EEbPT_
__ZL24isNonEscapingLocalObjectPKN4llvm5ValueE
__ZN4llvm20PointerMayBeCapturedEPKNS_5ValueEPNS_14CaptureTrackerE
__ZN4llvm14CaptureTracker13shouldExploreEPKNS_3UseE
__ZNK4llvm8CallInst25dataOperandHasImpliedAttrEjNS_9Attribute8AttrKindE
__ZN12_GLOBAL__N_120SimpleCaptureTracker8capturedEPKN4llvm3UseE
__ZN4llvm12InstCombiner22visitGetElementPtrInstERNS_17GetElementPtrInstE
__ZN4llvm9IRBuilderINS_12TargetFolderENS_21InstCombineIRInserterEE13CreateIntCastEPNS_5ValueEPNS_4TypeEbRKNS_5TwineE
__ZL24canReplaceGEPIdxWithZeroRN4llvm12InstCombinerEPNS_17GetElementPtrInstEPNS_11InstructionERj
__ZL38ComputeSignedMinMaxValuesFromKnownBitsRKN4llvm5APIntES2_RS0_S3_
__ZN4llvm12InstCombiner8visitAndERNS_14BinaryOperatorE
__ZL22ShrinkDemandedConstantPN4llvm11InstructionEjNS_5APIntE
__ZN4llvm12InstCombiner13SimplifyBSwapERNS_14BinaryOperatorE
__ZL18matchDeMorgansLawsRN4llvm14BinaryOperatorEPNS_9IRBuilderINS_12TargetFolderENS_21InstCombineIRInserterEEE
__ZL14dyn_castNotValPN4llvm5ValueE
__ZN4llvm12PatternMatch14BinaryOp_matchINS0_9not_matchINS0_14specificval_tyEEENS0_7bind_tyINS_5ValueEEELj27EE5matchIS6_EEbPT_
__ZN4llvm12PatternMatch14BinaryOp_matchINS0_7bind_tyINS_5ValueEEENS0_9not_matchINS0_14specificval_tyEEELj27EE5matchIS3_EEbPT_
__ZN4llvm12PatternMatch14BinaryOp_matchINS1_INS0_7bind_tyINS_5ValueEEES4_Lj28EEES4_Lj28EE5matchIS3_EEbPT_
__ZN4llvm12PatternMatch14BinaryOp_matchINS0_9not_matchINS0_7bind_tyINS_5ValueEEEEES5_Lj28EE5matchIS4_EEbPT_
__ZL14isSignBitCheckN4llvm7CmpInst9PredicateEPNS_11ConstantIntERb
__ZN4llvm12InstCombiner30visitICmpInstWithInstAndIntCstERNS_8ICmpInstEPNS_11InstructionEPNS_11ConstantIntE
__ZN4llvm12InstCombiner17InsertNewInstWithEPNS_11InstructionERS1_
__ZNK4llvm12AttributeSet12addAttributeERNS_11LLVMContextENS_8ArrayRefIjEENS_9AttributeE
__ZN4llvm15MDAttachmentMap5eraseEj
__ZN4llvm30isPotentiallyReachableFromManyERNS_15SmallVectorImplIPNS_10BasicBlockEEES2_PKNS_13DominatorTreeEPKNS_8LoopInfoE
__ZN4llvm13getObjectSizeEPKNS_5ValueERyRKNS_10DataLayoutEPKNS_17TargetLibraryInfoEb
__ZN4llvm23ObjectSizeOffsetVisitor7computeEPNS_5ValueE
__ZN4llvm25isIdentifiedFunctionLocalEPKNS_5ValueE
__ZN4llvm9AAResults5ModelINS_21ScopedNoAliasAAResultEE5aliasERKNS_14MemoryLocationES6_
__ZN4llvm9AAResults5ModelINS_17TypeBasedAAResultEE5aliasERKNS_14MemoryLocationES6_
__ZN4llvm8DenseMapIPNS_11InstructionEjNS_12DenseMapInfoIS2_EENS_6detail12DenseMapPairIS2_jEEE16shrink_and_clearEv
__ZN4llvm23FoldSingleEntryPHINodesEPNS_10BasicBlockEPNS_24MemoryDependenceAnalysisE
__ZN4llvm17LibCallSimplifier27optimizeStringMemoryLibCallEPNS_8CallInstERNS_9IRBuilderINS_14ConstantFolderENS_24IRBuilderDefaultInserterEEE
__ZN4llvm12DenseMapBaseINS_8DenseMapIPNS_11InstructionEjNS_12DenseMapInfoIS3_EENS_6detail12DenseMapPairIS3_jEEEES3_jS5_S8_E18moveFromOldBucketsEPS8_SB_
__ZN4llvm12InstCombiner10visitTruncERNS_9TruncInstE
__ZN4llvm12InstCombiner7visitOrERNS_14BinaryOperatorE
__ZNK4llvm8Argument23getDereferenceableBytesEv
__ZNK4llvm21AArch64TargetLowering14isTruncateFreeEPNS_4TypeES2_
__ZN4llvm12InstCombiner24WillNotOverflowSignedAddEPNS_5ValueES2_RNS_11InstructionE
__ZL17checkRippleForAddRKN4llvm5APIntES2_
__ZN4llvm12InstCombiner14FoldAndOfICmpsEPNS_8ICmpInstES2_
__ZL22foldLogOpOfMaskedICmpsPN4llvm8ICmpInstES1_bPNS_9IRBuilderINS_12TargetFolderENS_21InstCombineIRInserterEEE
__ZL20decomposeBitTestICmpPKN4llvm8ICmpInstERNS_7CmpInst9PredicateERPNS_5ValueES8_S8_
__ZL19getTypeOfMaskedICmpPN4llvm5ValueES1_S1_NS_7CmpInst9PredicateE
__ZN4llvm12InstCombiner18simplifyRangeCheckEPNS_8ICmpInstES2_b
__ZNK4llvm13ConstantRange13intersectWithERKS0_
__ZN4llvm12InstCombiner15InsertRangeTestEPNS_5ValueEPNS_8ConstantES4_bb
__ZN4llvm9IRBuilderINS_12TargetFolderENS_21InstCombineIRInserterEE9CreateAddEPNS_5ValueES5_RKNS_5TwineEbb
__ZN4llvm9IRBuilderINS_12TargetFolderENS_21InstCombineIRInserterEE23CreateInsertNUWNSWBinOpENS_11Instruction9BinaryOpsEPNS_5ValueES7_RKNS_5TwineEbb
__ZN4llvm9IRBuilderINS_12TargetFolderENS_21InstCombineIRInserterEE10CreateICmpENS_7CmpInst9PredicateEPNS_5ValueES7_RKNS_5TwineE
__ZN4llvm9IRBuilderINS_12TargetFolderENS_21InstCombineIRInserterEE9CreateAndEPNS_5ValueES5_RKNS_5TwineE
__ZN4llvm12InstCombiner15visitSelectInstERNS_10SelectInstE
__ZN4llvm9IRBuilderINS_12TargetFolderENS_21InstCombineIRInserterEE10CreateLShrEPNS_5ValueES5_RKNS_5TwineEb
__ZN4llvm9IRBuilderINS_12TargetFolderENS_21InstCombineIRInserterEE11CreateBinOpENS_11Instruction9BinaryOpsEPNS_5ValueES7_RKNS_5TwineEPNS_6MDNodeE
__ZNK4llvm8Constant19isNotMinSignedValueEv
__ZN4llvm12InstCombiner9visitSDivERNS_14BinaryOperatorE
__ZN4llvm12InstCombiner20commonIDivTransformsERNS_14BinaryOperatorE
__ZL25simplifyValueKnownNonZeroPN4llvm5ValueERNS_12InstCombinerERNS_11InstructionE
__ZN4llvm9IRBuilderINS_12TargetFolderENS_21InstCombineIRInserterEE9CreateXorEPNS_5ValueES5_RKNS_5TwineE
__ZN4llvm9IRBuilderINS_12TargetFolderENS_21InstCombineIRInserterEE8CreateOrEPNS_5ValueES5_RKNS_5TwineE
__ZN4llvm12InstCombiner8visitXorERNS_14BinaryOperatorE
__ZL20isEliminableCastPairPKN4llvm8CastInstEjPNS_4TypeERKNS_10DataLayoutE
__ZN4llvm18matchSelectPatternEPNS_5ValueERS1_S2_PNS_11Instruction7CastOpsE
__ZN12_GLOBAL__N_114SimplifyCFGOpt31GetValueEqualityComparisonCasesEPN4llvm14TerminatorInstERNSt3__16vectorINS_27ValueEqualityComparisonCaseENS4_9allocatorIS6_EEEE
__ZNSt3__16__treeIPN4llvm11ConstantIntEN12_GLOBAL__N_119ConstantIntOrderingENS_9allocatorIS3_EEE7destroyEPNS_11__tree_nodeIS3_PvEE
__ZN4llvm9IRBuilderINS_14ConstantFolderENS_24IRBuilderDefaultInserterEE12CreateSwitchEPNS_5ValueEPNS_10BasicBlockEjPNS_6MDNodeES9_
__ZL29EraseTerminatorInstAndDCECondPN4llvm14TerminatorInstE
__ZN4llvm12PatternMatch11api_pred_tyINS0_9is_power2EE5matchINS_5ValueEEEbPT_
__ZN4llvm7CmpInst6CreateENS_11Instruction8OtherOpsENS0_9PredicateEPNS_5ValueES5_RKNS_5TwineEPS1_
__ZN4llvm12InstCombiner17transformZExtICmpEPNS_8ICmpInstERNS_11InstructionEb
__ZN4llvm9IRBuilderINS_12TargetFolderENS_21InstCombineIRInserterEE9CreateNotEPNS_5ValueERKNS_5TwineE
__ZN12_GLOBAL__N_120SimpleCaptureTracker11tooManyUsesEv
__ZN4llvm14MemoryLocation14getForArgumentENS_17ImmutableCallSiteEjRKNS_17TargetLibraryInfoE
__ZN4llvm12InstCombiner13FoldOrOfICmpsEPNS_8ICmpInstES2_PNS_11InstructionE
__ZN4llvm13BasicAAResult22DecomposeGEPExpressionEPKNS_5ValueERxRNS_15SmallVectorImplINS0_16VariableGEPIndexEEERbRKNS_10DataLayoutEPNS_15AssumptionCacheEPNS_13DominatorTreeE
__ZN4llvm12PatternMatch14BinaryOp_matchINS0_9not_matchINS0_14specificval_tyEEES3_Lj28EE5matchINS_5ValueEEEbPT_
__ZN4llvm31recognizeBitReverseOrBSwapIdiomEPNS_11InstructionEbbRNS_15SmallVectorImplIS1_EE
__ZL15collectBitPartsPN4llvm5ValueEbbRNSt3__13mapIS1_NS_8OptionalI7BitPartEENS2_4lessIS1_EENS2_9allocatorINS2_4pairIKS1_S6_EEEEEE
__ZN4llvm8OptionalI7BitPartEaSEOS2_
__ZN4llvm15SmallVectorImplIaEaSEOS1_
__ZNSt3__16__treeINS_12__value_typeIPN4llvm5ValueENS2_8OptionalI7BitPartEEEENS_19__map_value_compareIS4_S8_NS_4lessIS4_EELb1EEENS_9allocatorIS8_EEE7destroyEPNS_11__tree_nodeIS8_PvEE
__ZN4llvm9AAResults5ModelINS_13BasicAAResultEE16getArgModRefInfoENS_17ImmutableCallSiteEj
__ZN4llvm9AAResults5ModelINS_21ScopedNoAliasAAResultEE16getArgModRefInfoENS_17ImmutableCallSiteEj
__ZN4llvm9AAResults5ModelINS_17TypeBasedAAResultEE16getArgModRefInfoENS_17ImmutableCallSiteEj
__ZN4llvm12PatternMatch25OverflowingBinaryOp_matchINS0_7bind_tyINS_5ValueEEES4_Lj13ELj2EE5matchIS3_EEbPT_
__ZN4llvm23ObjectSizeOffsetVisitor16visitGEPOperatorERNS_11GEPOperatorE
__ZL20canEvaluateTruncatedPN4llvm5ValueEPNS_4TypeERNS_12InstCombinerEPNS_11InstructionE
__ZN4llvm12PatternMatch15CastClass_matchINS1_INS0_7bind_tyINS_5ValueEEELj45EEELj36EE5matchIS3_EEbPT_
__ZL15GetShiftedValuePN4llvm5ValueEjbRNS_12InstCombinerERKNS_10DataLayoutE
__ZN4llvm12InstCombiner23EvaluateInDifferentTypeEPNS_5ValueEPNS_4TypeEb
__ZN4llvm9TruncInstD0Ev
__ZNK4llvm5APInt4ashrEj
__ZN4llvm9IRBuilderINS_12TargetFolderENS_21InstCombineIRInserterEE10CreateAShrEPNS_5ValueES5_RKNS_5TwineEb
__ZNK4llvm5APInt7sadd_ovERKS0_Rb
__ZN4llvm12InstCombiner24WillNotOverflowSignedSubEPNS_5ValueES2_RNS_11InstructionE
__ZNK4llvm8Constant19isNegativeZeroValueEv
__ZL20MatchSelectFromAndOrPN4llvm5ValueES1_S1_S1_
__ZN4llvm22SplitBlockPredecessorsEPNS_10BasicBlockENS_8ArrayRefIS1_EEPKcPNS_13DominatorTreeEPNS_8LoopInfoEb
__ZN4llvm4User17replaceUsesOfWithEPNS_5ValueES2_
__ZL25UpdateAnalysisInformationPN4llvm10BasicBlockES1_NS_8ArrayRefIS1_EEPNS_13DominatorTreeEPNS_8LoopInfoEbRb
__ZL14UpdatePHINodesPN4llvm10BasicBlockES1_NS_8ArrayRefIS1_EEPNS_10BranchInstEb
__ZN4llvm10SplitBlockEPNS_10BasicBlockEPNS_11InstructionEPNS_13DominatorTreeEPNS_8LoopInfoE
__ZN4llvm10BasicBlock15splitBasicBlockENS_14ilist_iteratorINS_11InstructionEEERKNS_5TwineE
__ZN4llvm15UnreachableInstC1ERNS_11LLVMContextEPNS_11InstructionE
__ZN4llvm25array_pod_sort_comparatorIN12_GLOBAL__N_127ValueEqualityComparisonCaseEEEiPKvS4_
__ZN4llvm8CallInstC2ERKS0_
__ZN4llvm13SmallDenseMapINSt3__14pairIPNS_5ValueES4_EEPNS_7PHINodeELj4ENS_12DenseMapInfoIS5_EENS_6detail12DenseMapPairIS5_S7_EEE4growEj
__ZN4llvm12DenseMapBaseINS_13SmallDenseMapINSt3__14pairIPNS_5ValueES5_EEPNS_7PHINodeELj4ENS_12DenseMapInfoIS6_EENS_6detail12DenseMapPairIS6_S8_EEEES6_S8_SA_SD_E18moveFromOldBucketsEPSD_SG_
__ZL24ConstantIntSortPredicatePKPN4llvm11ConstantIntES3_
__ZNK4llvm8Constant20isDLLImportDependentEv
__ZN4llvm15SmallVectorImplIPNS_11ConstantIntEEaSEOS3_
__ZN4llvm12InstCombiner9visitURemERNS_14BinaryOperatorE
__ZN4llvm12InstCombiner20commonIRemTransformsERNS_14BinaryOperatorE
__ZL18matchSelectPatternN4llvm7CmpInst9PredicateENS_13FastMathFlagsEPNS_5ValueES4_S4_S4_RS4_S5_
__ZN4llvm12InstCombiner16FoldOpIntoSelectERNS_11InstructionEPNS_10SelectInstE
__ZN4llvm12InstCombiner18FoldLogicalPlusAndEPNS_5ValueES2_PNS_11ConstantIntEbRNS_11InstructionE
__ZNK4llvm8Constant16isMinSignedValueEv
__ZN4llvm12InstCombiner9visitUDivERNS_14BinaryOperatorE
__ZN4llvm9IRBuilderINS_12TargetFolderENS_21InstCombineIRInserterEE10CreateUDivEPNS_5ValueES5_RKNS_5TwineEb
__ZL16visitUDivOperandPN4llvm5ValueES1_RKNS_14BinaryOperatorERNS_15SmallVectorImplIN12_GLOBAL__N_114UDivFoldActionEEEj
__ZN4llvm12PatternMatch11cst_pred_tyINS0_9is_power2EE5matchINS_5ValueEEEbPT_
__ZL15foldUDivPow2CstPN4llvm5ValueES1_RKNS_14BinaryOperatorERNS_12InstCombinerE
__ZL30FoldOperationIntoSelectOperandRN4llvm11InstructionEPNS_5ValueEPNS_12InstCombinerE
__ZNK4llvm12ConstantExpr15getWithOperandsENS_8ArrayRefIPNS_8ConstantEEEPNS_4TypeEbS6_
__ZNSt3__16__treeINS_12__value_typeINS_4pairIPN4llvm5ValueES5_EEPNS3_10SelectInstEEENS_19__map_value_compareIS6_S9_NS_4lessIS6_EELb1EEENS_9allocatorIS9_EEE7destroyEPNS_11__tree_nodeIS9_PvEE
__ZN4llvm13getSplatValueEPKNS_5ValueE
__ZN4llvm9IRBuilderINS_14ConstantFolderENS_24IRBuilderDefaultInserterEE9CreateRetEPNS_5ValueE
__ZN4llvm9IRBuilderINS_12TargetFolderENS_21InstCombineIRInserterEE9CreateSubEPNS_5ValueES5_RKNS_5TwineEbb
__ZNSt3__16__treeINS_12__value_typeIPN4llvm11ConstantIntEyEENS_19__map_value_compareIS4_S5_NS_4lessIS4_EELb1EEENS_9allocatorIS5_EEE7destroyEPNS_11__tree_nodeIS5_PvEE
__ZN4llvm12DenseMapBaseINS_8DenseMapIPNS_10BasicBlockEPNS_5ValueENS_12DenseMapInfoIS3_EENS_6detail12DenseMapPairIS3_S5_EEEES3_S5_S7_SA_E18moveFromOldBucketsEPSA_SD_
__ZN4llvm12DenseMapBaseINS_13SmallDenseMapIPNS_7PHINodeENS_11SmallVectorINSt3__14pairIPNS_11ConstantIntEPNS_8ConstantEEELj4EEELj4ENS_12DenseMapInfoIS3_EENS_6detail12DenseMapPairIS3_SC_EEEES3_SC_SE_SH_E16FindAndConstructERKS3_
__ZN4llvm9IRBuilderINS_12TargetFolderENS_21InstCombineIRInserterEE9CreateShlEPNS_5ValueES5_RKNS_5TwineEbb
__ZN4llvm12ConstantExpr14getPointerCastEPNS_8ConstantEPNS_4TypeE
__ZN4llvm10SwitchInst13setSuccessorVEjPNS_10BasicBlockE
__ZN4llvm13SmallDenseMapIPNS_5ValueEPNS_8ConstantELj4ENS_12DenseMapInfoIS2_EENS_6detail12DenseMapPairIS2_S4_EEE4growEj
__ZN4llvm12DenseMapBaseINS_13SmallDenseMapIPNS_5ValueEPNS_8ConstantELj4ENS_12DenseMapInfoIS3_EENS_6detail12DenseMapPairIS3_S5_EEEES3_S5_S7_SA_E18moveFromOldBucketsEPSA_SD_
__ZN4llvm12PatternMatch14BinaryOp_matchINS1_INS0_14specificval_tyENS0_7bind_tyINS_5ValueEEELj28EEES2_Lj28EE5matchIS4_EEbPT_
__ZNK4llvm12ConstantExpr31isGEPWithNoNotionalOverIndexingEv
__ZN4llvm9IRBuilderINS_12TargetFolderENS_21InstCombineIRInserterEE12CreateSelectEPNS_5ValueES5_S5_RKNS_5TwineE
__ZN4llvm8CastInst26isBitOrNoopPointerCastableEPNS_4TypeES2_RKNS_10DataLayoutE
__ZN4llvm8CastInst13isBitCastableEPNS_4TypeES2_
__ZN4llvm9IRBuilderINS_12TargetFolderENS_21InstCombineIRInserterEE22CreateBitOrPointerCastEPNS_5ValueEPNS_4TypeERKNS_5TwineE
__ZN4llvm9IRBuilderINS_14ConstantFolderENS_24IRBuilderDefaultInserterEE10CreateCastENS_11Instruction7CastOpsEPNS_5ValueEPNS_4TypeERKNS_5TwineE
__ZN4llvm9IRBuilderINS_8NoFolderENS_24IRBuilderDefaultInserterEE9CreateNotEPNS_5ValueERKNS_5TwineE
__ZN4llvm6MDNode24getMostGenericAliasScopeEPS0_S1_
__ZN4llvm6MDNode9intersectEPS0_S1_
__ZN4llvm29computeOverflowForUnsignedMulEPNS_5ValueES1_RKNS_10DataLayoutEPNS_15AssumptionCacheEPKNS_11InstructionEPKNS_13DominatorTreeE
__ZNK4llvm5APInt7umul_ovERKS0_Rb
__ZN4llvm8OptionalI7BitPartEaSERKS2_
__ZN4llvm12InstCombiner9visitSRemERNS_14BinaryOperatorE
__ZN4llvm9IRBuilderINS_12TargetFolderENS_21InstCombineIRInserterEE10CreateURemEPNS_5ValueES5_RKNS_5TwineE
__ZN4llvm9IRBuilderINS_12TargetFolderENS_21InstCombineIRInserterEE17CreateInBoundsGEPEPNS_4TypeEPNS_5ValueENS_8ArrayRefIS7_EERKNS_5TwineE
__ZN12_GLOBAL__N_124PGOIndirectCallPromotion11runOnModuleERN4llvm6ModuleE
__ZN4llvm14getPGOFuncNameERKNS_8FunctionEby
__ZN4llvm11GlobalValue19getGlobalIdentifierENS_9StringRefENS0_12LinkageTypesES1_
__ZN4llvm15InstrProfSymtab11addFuncNameENS_9StringRefE
__ZN4llvm3MD55finalERA16_h
__ZN4llvm3MD54bodyENS_8ArrayRefIhEE
__ZNSt3__16vectorIN5clang5TokenENS_9allocatorIS2_EEE21__push_back_slow_pathIRKS2_EEvOT_
__ZN4llvm15InstrProfSymtab14finalizeSymtabEv
__ZNSt3__16__sortIRN4llvm10less_firstEPNS_4pairIyNS1_9StringRefEEEEEvT0_S8_T_
__ZNSt3__17__sort4IRN4llvm10less_firstEPNS_4pairIyNS1_9StringRefEEEEEjT0_S8_S8_S8_T_
__ZNSt3__118__insertion_sort_3IRN4llvm10less_firstEPNS_4pairIyNS1_9StringRefEEEEEvT0_S8_T_
__ZNSt3__17__sort5IRN4llvm10less_firstEPNS_4pairIyNS1_9StringRefEEEEEjT0_S8_S8_S8_S8_T_
__ZNSt3__16__sortIRN4llvm10less_firstEPNS_4pairIyPNS1_8FunctionEEEEEvT0_S9_T_
__ZNSt3__17__sort4IRN4llvm10less_firstEPNS_4pairIyPNS1_8FunctionEEEEEjT0_S9_S9_S9_T_
__ZNSt3__118__insertion_sort_3IRN4llvm10less_firstEPNS_4pairIyPNS1_8FunctionEEEEEvT0_S9_T_
__ZNSt3__17__sort5IRN4llvm10less_firstEPNS_4pairIyPNS1_8FunctionEEEEEjT0_S9_S9_S9_S9_T_
__ZNSt3__16__sortIRN4llvm10less_firstEPNS_4pairIyyEEEEvT0_S7_T_
__ZN4llvm11InstVisitorINS_26PGOIndirectCallSiteVisitorEvE5visitERNS_11InstructionE
__ZN4llvm11InstVisitorINS_26PGOIndirectCallSiteVisitorEvE16delegateCallInstERNS_8CallInstE
__ZN4llvm15InstrProfSymtabD2Ev
__ZN4llvm20GlobalsAAWrapperPass11runOnModuleERNS_6ModuleE
__ZN4llvm8DenseMapIPKNS_8FunctionEjNS_12DenseMapInfoIS3_EENS_6detail12DenseMapPairIS3_jEEE4growEj
__ZN4llvm15GlobalsAAResult20AnalyzeUsesOfPointerEPNS_5ValueEPNS_15SmallPtrSetImplIPNS_8FunctionEEES7_PNS_11GlobalValueE
__ZN4llvm12DenseMapBaseINS_8DenseMapIPKNS_8FunctionENS_15GlobalsAAResult12FunctionInfoENS_12DenseMapInfoIS4_EENS_6detail12DenseMapPairIS4_S6_EEEES4_S6_S8_SB_E20InsertIntoBucketImplERKS4_PSB_
__ZN4llvm8DenseMapIPKNS_8FunctionENS_15GlobalsAAResult12FunctionInfoENS_12DenseMapInfoIS3_EENS_6detail12DenseMapPairIS3_S5_EEE4growEj
__ZN4llvm15GlobalsAAResult12FunctionInfo22addModRefInfoForGlobalERKNS_11GlobalValueENS_10ModRefInfoE
__ZN4llvm13SmallDenseMapIPKNS_11GlobalValueENS_10ModRefInfoELj16ENS_12DenseMapInfoIS3_EENS_6detail12DenseMapPairIS3_S4_EEE4growEj
__ZN4llvm12DenseMapBaseINS_13SmallDenseMapIPKNS_11GlobalValueENS_10ModRefInfoELj16ENS_12DenseMapInfoIS4_EENS_6detail12DenseMapPairIS4_S5_EEEES4_S5_S7_SA_E18moveFromOldBucketsEPSA_SD_
__ZN4llvm13SmallDenseMapIPKNS_11GlobalValueENS_10ModRefInfoELj16ENS_12DenseMapInfoIS3_EENS_6detail12DenseMapPairIS3_S4_EEE8copyFromERKSA_
__ZN12_GLOBAL__N_17PruneEH8runOnSCCERN4llvm12CallGraphSCCE
__ZN12_GLOBAL__N_113SimpleInliner8runOnSCCERN4llvm12CallGraphSCCE
__ZN12_GLOBAL__N_122PostOrderFunctionAttrs8runOnSCCERN4llvm12CallGraphSCCE
__ZN4llvm12scc_iteratorIPN12_GLOBAL__N_113ArgumentGraphENS_11GraphTraitsIS3_EEE11DFSVisitOneEPNS1_17ArgumentGraphNodeE
__ZN4llvm12DenseMapBaseINS_8DenseMapIPN12_GLOBAL__N_117ArgumentGraphNodeEjNS_12DenseMapInfoIS4_EENS_6detail12DenseMapPairIS4_jEEEES4_jS6_S9_E4growEj
__ZN4llvm12scc_iteratorIPN12_GLOBAL__N_113ArgumentGraphENS_11GraphTraitsIS3_EEE10GetNextSCCEv
__ZNSt3__16__treeINS_12__value_typeIPN4llvm8ArgumentEN12_GLOBAL__N_117ArgumentGraphNodeEEENS_19__map_value_compareIS4_S7_NS_4lessIS4_EELb1EEENS_9allocatorIS7_EEE7destroyEPNS_11__tree_nodeIS7_PvEE
__ZN12_GLOBAL__N_17PruneEH16SimplifyFunctionEPN4llvm8FunctionE
__ZN4llvm27createLegacyPMBasicAAResultERNS_4PassERNS_8FunctionE
__ZN4llvm23createLegacyPMAAResultsERNS_4PassERNS_8FunctionERNS_13BasicAAResultE
__ZN4llvm9AAResults5ModelINS_13BasicAAResultEE12setAAResultsEPS0_
__ZN4llvm9AAResults5ModelINS_21ScopedNoAliasAAResultEE12setAAResultsEPS0_
__ZN4llvm9AAResults5ModelINS_17TypeBasedAAResultEE12setAAResultsEPS0_
__ZN4llvm9AAResults5ModelINS_15GlobalsAAResultEE12setAAResultsEPS0_
__ZN4llvm9AAResults5ModelINS_15GlobalsAAResultEE17getModRefBehaviorEPKNS_8FunctionE
__ZN4llvm9AAResults5ModelINS_15GlobalsAAResultEED0Ev
__ZN4llvm9AAResults5ModelINS_15GlobalsAAResultEE17getModRefBehaviorENS_17ImmutableCallSiteE
__ZN12_GLOBAL__N_119ArgumentUsesTracker8capturedEPKN4llvm3UseE
__ZL25determinePointerReadAttrsPN4llvm8ArgumentERKNS_11SmallPtrSetIS1_Lj8EEE
__ZN4llvm13LazyValueInfo13runOnFunctionERNS_8FunctionE
__ZN12_GLOBAL__N_113JumpThreading13runOnFunctionERN4llvm8FunctionE
__ZNK4llvm8Function13getEntryCountEv
__ZN12_GLOBAL__N_113JumpThreading13releaseMemoryEv
__ZN12_GLOBAL__N_126CorrelatedValuePropagation13runOnFunctionERN4llvm8FunctionE
__ZN4llvm13LazyValueInfo14getPredicateAtEjPNS_5ValueEPNS_8ConstantEPNS_11InstructionE
__ZN12_GLOBAL__N_118LazyValueInfoCache34mergeAssumeBlockValueConstantRangeEPN4llvm5ValueERNS_13LVILatticeValEPNS1_11InstructionE
__ZL18getPredicateResultjPN4llvm8ConstantERN12_GLOBAL__N_113LVILatticeValERKNS_10DataLayoutEPNS_17TargetLibraryInfoE
__ZN4llvm13LazyValueInfo13releaseMemoryEv
__ZNSt3__16__treeINS_12__value_typeIN12_GLOBAL__N_114LVIValueHandleEN4llvm13SmallDenseMapINS4_11AssertingVHINS4_10BasicBlockEEENS2_13LVILatticeValELj4ENS4_12DenseMapInfoIS8_EENS4_6detail12DenseMapPairIS8_S9_EEEEEENS_19__map_value_compareIS3_SG_NS_4lessIS3_EELb1EEENS_9allocatorISG_EEE7destroyEPNS_11__tree_nodeISG_PvEE
__ZN12_GLOBAL__N_112TailCallElim13runOnFunctionERN4llvm8FunctionE
__ZN4llvm12DenseMapBaseINS_8DenseMapIPNS_10BasicBlockEZN12_GLOBAL__N_112TailCallElim9markTailsERNS_8FunctionERbE9VisitTypeNS_12DenseMapInfoIS3_EENS_6detail12DenseMapPairIS3_S9_EEEES3_S9_SB_SE_E20InsertIntoBucketImplERKS3_PSE_
__ZN12_GLOBAL__N_112TailCallElim16FindTRECandidateEPN4llvm11InstructionEb
__ZN12_GLOBAL__N_111Reassociate13runOnFunctionERN4llvm8FunctionE
__ZN4llvm25ReversePostOrderTraversalIPNS_8FunctionENS_11GraphTraitsIS2_EEE10InitializeEPNS_10BasicBlockE
__ZN4llvm12DenseMapBaseINS_8DenseMapINS_11AssertingVHINS_5ValueEEEjNS_12DenseMapInfoIS4_EENS_6detail12DenseMapPairIS4_jEEEES4_jS6_S9_E20InsertIntoBucketImplERKS4_PS9_
__ZN4llvm8DenseMapINS_11AssertingVHINS_5ValueEEEjNS_12DenseMapInfoIS3_EENS_6detail12DenseMapPairIS3_jEEE4growEj
__ZN12_GLOBAL__N_111Reassociate12OptimizeInstEPN4llvm11InstructionE
__ZN12_GLOBAL__N_112LoopSimplify13runOnFunctionERN4llvm8FunctionE
__ZN12_GLOBAL__N_15LCSSA13runOnFunctionERN4llvm8FunctionE
__ZN4llvm13LPPassManager13runOnFunctionERNS_8FunctionE
__ZN12_GLOBAL__N_121MergedLoadStoreMotion13runOnFunctionERN4llvm8FunctionE
__ZN4llvm24MemoryDependenceAnalysis13runOnFunctionERNS_8FunctionE
__ZN12_GLOBAL__N_13GVN13runOnFunctionERN4llvm8FunctionE
__ZN12_GLOBAL__N_13GVN17cleanupGlobalSetsEv
__ZN12_GLOBAL__N_13GVN18processInstructionEPN4llvm11InstructionE
__ZN12_GLOBAL__N_110ValueTable13lookup_or_addEPN4llvm5ValueE
__ZN12_GLOBAL__N_110ValueTable17create_expressionEPN4llvm11InstructionE
__ZN4llvm12DenseMapBaseINS_8DenseMapIPNS_5ValueEjNS_12DenseMapInfoIS3_EENS_6detail12DenseMapPairIS3_jEEEES3_jS5_S8_E20InsertIntoBucketImplERKS3_PS8_
__ZN4llvm8DenseMapIPNS_5ValueEjNS_12DenseMapInfoIS2_EENS_6detail12DenseMapPairIS2_jEEE4growEj
__ZN4llvm15SmallVectorImplIjEaSERKS1_
__ZN4llvm12DenseMapBaseINS_8DenseMapIjN12_GLOBAL__N_13GVN16LeaderTableEntryENS_12DenseMapInfoIjEENS_6detail12DenseMapPairIjS4_EEEEjS4_S6_S9_E4growEj
__ZN4llvm11depth_firstIPNS_10BasicBlockEEENS_14iterator_rangeINS_11df_iteratorIT_NS_11SmallPtrSetIPNS_11GraphTraitsIS5_E8NodeTypeELj8EEELb0ES8_EEEERKS5_
__ZN4llvm10make_rangeINS_11df_iteratorIPNS_10BasicBlockENS_11SmallPtrSetIS3_Lj8EEELb0ENS_11GraphTraitsIS3_EEEEEENS_14iterator_rangeIT_EESA_SA_
__ZN4llvm11df_iteratorIPNS_10BasicBlockENS_11SmallPtrSetIS2_Lj8EEELb0ENS_11GraphTraitsIS2_EEE6toNextEv
__ZN4llvm24MemoryDependenceAnalysis13releaseMemoryEv
__ZN4llvm17PredIteratorCache5clearEv
__ZN12_GLOBAL__N_19MemCpyOpt13runOnFunctionERN4llvm8FunctionE
__ZN12_GLOBAL__N_14SCCP13runOnFunctionERN4llvm8FunctionE
__ZN4llvm12DemandedBits13runOnFunctionERNS_8FunctionE
__ZN12_GLOBAL__N_14BDCE13runOnFunctionERN4llvm8FunctionE
__ZN4llvm12DemandedBits15getDemandedBitsEPNS_11InstructionE
__ZN4llvm12DemandedBits15performAnalysisEv
__ZN4llvm12DenseMapBaseINS_8DenseMapIPNS_11InstructionENS_5APIntENS_12DenseMapInfoIS3_EENS_6detail12DenseMapPairIS3_S4_EEEES3_S4_S6_S9_E20InsertIntoBucketImplERKS3_PS9_
__ZN4llvm8DenseMapIPNS_11InstructionENS_5APIntENS_12DenseMapInfoIS2_EENS_6detail12DenseMapPairIS2_S3_EEE4growEj
__ZN12_GLOBAL__N_13DSE13runOnFunctionERN4llvm8FunctionE
__ZL14hasMemoryWritePN4llvm11InstructionERKNS_17TargetLibraryInfoE
__ZN12_GLOBAL__N_114ADCELegacyPass13runOnFunctionERN4llvm8FunctionE
__ZN12_GLOBAL__N_113CGPassManager16RefreshCallGraphERN4llvm12CallGraphSCCERNS1_9CallGraphEb
__ZN4llvm8DenseMapIPNS_5ValueEPNS_13CallGraphNodeENS_12DenseMapInfoIS2_EENS_6detail12DenseMapPairIS2_S4_EEE4growEj
__ZN12_GLOBAL__N_113SimpleInliner13getInlineCostEN4llvm8CallSiteE
__ZNK4llvm19TargetTransformInfo5ModelINS_14AArch64TTIImplEE19areInlineCompatibleEPKNS_8FunctionES6_
__ZN12_GLOBAL__N_112CallAnalyzer11analyzeCallEN4llvm8CallSiteE
__ZN4llvm12DenseMapBaseINS_8DenseMapIPNS_5ValueENSt3__14pairIS3_NS_5APIntEEENS_12DenseMapInfoIS3_EENS_6detail12DenseMapPairIS3_S7_EEEES3_S7_S9_SC_E20InsertIntoBucketImplERKS3_PSC_
__ZN4llvm8DenseMapIPNS_5ValueENSt3__14pairIS2_NS_5APIntEEENS_12DenseMapInfoIS2_EENS_6detail12DenseMapPairIS2_S6_EEE4growEj
__ZN4llvm11CodeMetrics22collectEphemeralValuesEPKNS_8FunctionEPNS_15AssumptionCacheERNS_15SmallPtrSetImplIPKNS_5ValueEEE
__ZL23completeEphemeralValuesRN4llvm11SmallVectorIPKNS_5ValueELj16EEERNS_15SmallPtrSetImplIS3_EE
__ZN4llvm9SetVectorIPNS_10BasicBlockENS_11SmallVectorIS2_Lj16EEENS_11SmallPtrSetIS2_Lj16EEEE6insertERKS2_
__ZN4llvm11InstVisitorIN12_GLOBAL__N_112CallAnalyzerEbE5visitERNS_11InstructionE
__ZN12_GLOBAL__N_112CallAnalyzer13visitCallSiteEN4llvm8CallSiteE
__ZN4llvm31TargetTransformInfoImplCRTPBaseINS_14AArch64TTIImplEE11getCallCostEPKNS_8FunctionEi
__ZN4llvm19TargetTransformInfo5ModelINS_14AArch64TTIImplEE15isLoweredToCallEPKNS_8FunctionE
__ZN4llvm27TargetTransformInfoImplBase15isLoweredToCallEPKNS_8FunctionE
__ZN12_GLOBAL__N_112CallAnalyzer20lookupSROAArgAndCostEPN4llvm5ValueERS3_RNS1_16DenseMapIteratorIS3_iNS1_12DenseMapInfoIS3_EENS1_6detail12DenseMapPairIS3_iEELb0EEE
__ZN12_GLOBAL__N_112CallAnalyzer12visitCmpInstERN4llvm7CmpInstE
__ZN12_GLOBAL__N_112CallAnalyzer13visitCastInstERN4llvm8CastInstE
__ZN12_GLOBAL__N_112CallAnalyzer19visitBinaryOperatorERN4llvm14BinaryOperatorE
__ZN4llvm14InlineFunctionENS_8CallSiteERNS_18InlineFunctionInfoEPNS_9AAResultsEb
__ZNK4llvm12CallSiteBaseINS_8FunctionENS_10BasicBlockENS_5ValueENS_4UserENS_3UseENS_11InstructionENS_8CallInstENS_10InvokeInstEPS5_E12doesNotThrowEv
__ZN12_GLOBAL__N_121PruningFunctionCloner10CloneBlockEPKN4llvm10BasicBlockENS1_14ilist_iteratorIKNS1_11InstructionEEERNSt3__16vectorIS4_NS9_9allocatorIS4_EEEE
__ZNK4llvm17OperandBundleUserINS_8CallInstEPNS_3UseEE16getOperandBundleEj
__ZN4llvm13CallGraphNode17removeCallEdgeForENS_8CallSiteE
__ZN4llvm9CallGraph24removeFunctionFromModuleEPNS_13CallGraphNodeE
__ZN4llvm21SymbolTableListTraitsINS_8FunctionEE18removeNodeFromListEPS1_
__ZN4llvm15GlobalsAAResult22DeletionCallbackHandle7deletedEv
__ZN4llvm9AAResults5ModelINS_15GlobalsAAResultEE22pointsToConstantMemoryERKNS_14MemoryLocationEb
__ZL20getFromRangeMetadataPN4llvm11InstructionE
__ZN12_GLOBAL__N_113JumpThreading22ProcessThreadableEdgesEPN4llvm5ValueEPNS1_10BasicBlockENS_18ConstantPreferenceEPNS1_11InstructionE
__ZN12_GLOBAL__N_113JumpThreading31ComputeValueKnownInPredecessorsEPN4llvm5ValueEPNS1_10BasicBlockERNS1_15SmallVectorImplINSt3__14pairIPNS1_8ConstantES5_EEEENS_18ConstantPreferenceEPNS1_11InstructionE
__ZNK4llvm12DenseMapBaseINS_8DenseMapINSt3__14pairIPNS_5ValueEPNS_10BasicBlockEEENS_6detail13DenseSetEmptyENS_12DenseMapInfoIS8_EENS9_12DenseSetPairIS8_EEEES8_SA_SC_SE_E15LookupBucketForIS8_EEbRKT_RPKSE_
__ZN4llvm8DenseMapINSt3__14pairIPNS_5ValueEPNS_10BasicBlockEEENS_6detail13DenseSetEmptyENS_12DenseMapInfoIS7_EENS8_12DenseSetPairIS7_EEE4growEj
__ZN4llvm13LazyValueInfo11getConstantEPNS_5ValueEPNS_10BasicBlockEPNS_11InstructionE
__ZN12_GLOBAL__N_118LazyValueInfoCache14pushBlockValueERKNSt3__14pairIPN4llvm10BasicBlockEPNS3_5ValueEEE
__ZNK4llvm12DenseMapBaseINS_8DenseMapINSt3__14pairIPNS_10BasicBlockEPNS_5ValueEEENS_6detail13DenseSetEmptyENS_12DenseMapInfoIS8_EENS9_12DenseSetPairIS8_EEEES8_SA_SC_SE_E15LookupBucketForIS8_EEbRKT_RPKSE_
__ZN4llvm8DenseMapINSt3__14pairIPNS_10BasicBlockEPNS_5ValueEEENS_6detail13DenseSetEmptyENS_12DenseMapInfoIS7_EENS8_12DenseSetPairIS7_EEE4growEj
__ZN12_GLOBAL__N_118LazyValueInfoCache5solveEv
__ZN12_GLOBAL__N_118LazyValueInfoCache18hasCachedValueInfoEPN4llvm5ValueEPNS1_10BasicBlockE
__ZNK12_GLOBAL__N_118LazyValueInfoCache13isOverdefinedEPN4llvm5ValueEPNS1_10BasicBlockE
__ZN12_GLOBAL__N_113LVILatticeVal7mergeInERKS0_RKN4llvm10DataLayoutE
__ZN12_GLOBAL__N_118LazyValueInfoCache12insertResultEPN4llvm5ValueEPNS1_10BasicBlockERKNS_13LVILatticeValE
__ZN4llvm12DenseMapBaseINS_8DenseMapINS_11AssertingVHINS_10BasicBlockEEENS_6detail13DenseSetEmptyENS_12DenseMapInfoIS4_EENS5_12DenseSetPairIS4_EEEES4_S6_S8_SA_E20InsertIntoBucketImplERKS4_PSA_
__ZN4llvm8DenseMapINS_11AssertingVHINS_10BasicBlockEEENS_6detail13DenseSetEmptyENS_12DenseMapInfoIS3_EENS4_12DenseSetPairIS3_EEE4growEj
__ZN4llvm8DenseMapINS_11AssertingVHINS_10BasicBlockEEENS_11SmallPtrSetIPNS_5ValueELj4EEENS_12DenseMapInfoIS3_EENS_6detail12DenseMapPairIS3_S7_EEE4growEj
__ZN12_GLOBAL__N_118LazyValueInfoCache13getBlockValueEPN4llvm5ValueEPNS1_10BasicBlockE
__ZN4llvm13LazyValueInfo18getPredicateOnEdgeEjPNS_5ValueEPNS_8ConstantEPNS_10BasicBlockES6_PNS_11InstructionE
__ZN12_GLOBAL__N_118LazyValueInfoCache12getEdgeValueEPN4llvm5ValueEPNS1_10BasicBlockES5_RNS_13LVILatticeValEPNS1_11InstructionE
__ZL25getValueFromFromConditionPN4llvm5ValueEPNS_8ICmpInstERN12_GLOBAL__N_113LVILatticeValEb
__ZN4llvm24MemoryDependenceAnalysis13getDependencyEPNS_11InstructionE
__ZN4llvm12DenseMapBaseINS_8DenseMapIPNS_11InstructionENS_12MemDepResultENS_12DenseMapInfoIS3_EENS_6detail12DenseMapPairIS3_S4_EEEES3_S4_S6_S9_E20InsertIntoBucketImplERKS3_PS9_
__ZN4llvm8DenseMapIPNS_11InstructionENS_12MemDepResultENS_12DenseMapInfoIS2_EENS_6detail12DenseMapPairIS2_S3_EEE4growEj
__ZL11GetLocationPKN4llvm11InstructionERNS_14MemoryLocationERKNS_17TargetLibraryInfoE
__ZN4llvm24MemoryDependenceAnalysis34getInvariantGroupPointerDependencyEPNS_8LoadInstEPNS_10BasicBlockE
__ZN4llvm24MemoryDependenceAnalysis30getSimplePointerDependencyFromERKNS_14MemoryLocationEbNS_14ilist_iteratorINS_11InstructionEEEPNS_10BasicBlockEPS5_
__ZN4llvm15SmallVectorImplIjEaSEOS1_
__ZN12_GLOBAL__N_13GVN17propagateEqualityEPN4llvm5ValueES3_RKNS1_14BasicBlockEdgeEb
__ZN12_GLOBAL__N_13GVN10findLeaderEPKN4llvm10BasicBlockEj
__ZN4llvm24MemoryDependenceAnalysis17removeInstructionEPNS_11InstructionE
__ZN4llvm24MemoryDependenceAnalysis28getNonLocalPointerDependencyEPNS_11InstructionERNS_15SmallVectorImplINS_17NonLocalDepResultEEE
__ZN4llvm14MemoryLocation3getEPKNS_11InstructionE
__ZN4llvm24MemoryDependenceAnalysis27getNonLocalPointerDepFromBBEPNS_11InstructionERKNS_12PHITransAddrERKNS_14MemoryLocationEbPNS_10BasicBlockERNS_15SmallVectorImplINS_17NonLocalDepResultEEERNS_8DenseMapISA_PNS_5ValueENS_12DenseMapInfoISA_EENS_6detail12DenseMapPairISA_SH_EEEEb
__ZN4llvm12DenseMapBaseINS_8DenseMapINS_14PointerIntPairIPKNS_5ValueELj1EbNS_21PointerLikeTypeTraitsIS5_EENS_18PointerIntPairInfoIS5_Lj1ES7_EEEENS_24MemoryDependenceAnalysis19NonLocalPointerInfoENS_12DenseMapInfoISA_EENS_6detail12DenseMapPairISA_SC_EEEESA_SC_SE_SH_E20InsertIntoBucketImplERKSA_PSH_
__ZN4llvm8DenseMapINS_14PointerIntPairIPKNS_5ValueELj1EbNS_21PointerLikeTypeTraitsIS4_EENS_18PointerIntPairInfoIS4_Lj1ES6_EEEENS_24MemoryDependenceAnalysis19NonLocalPointerInfoENS_12DenseMapInfoIS9_EENS_6detail12DenseMapPairIS9_SB_EEE4growEj
__ZN4llvm17PredIteratorCache8GetPredsEPNS_10BasicBlockE
__ZN4llvm8DenseMapIPNS_10BasicBlockEPS2_NS_12DenseMapInfoIS2_EENS_6detail12DenseMapPairIS2_S3_EEE4growEj
__ZN4llvm17PredIteratorCache11GetNumPredsEPNS_10BasicBlockE
__ZN4llvm9AAResults5ModelINS_15GlobalsAAResultEE13getModRefInfoENS_17ImmutableCallSiteERKNS_14MemoryLocationE
__ZN4llvm15GlobalsAAResult13getModRefInfoENS_17ImmutableCallSiteERKNS_14MemoryLocationE
__ZN4llvm9AAResults18callCapturesBeforeEPKNS_11InstructionERKNS_14MemoryLocationEPNS_13DominatorTreeEPNS_17OrderedBasicBlockE
__ZNSt3__16vectorIN4llvm16NonLocalDepEntryENS_9allocatorIS2_EEE21__push_back_slow_pathIS2_EEvOT_
__ZN4llvm12DenseMapBaseINS_8DenseMapIPNS_11InstructionENS_11SmallPtrSetINS_14PointerIntPairIPKNS_5ValueELj1EbNS_21PointerLikeTypeTraitsIS8_EENS_18PointerIntPairInfoIS8_Lj1ESA_EEEELj4EEENS_12DenseMapInfoIS3_EENS_6detail12DenseMapPairIS3_SE_EEEES3_SE_SG_SJ_E16FindAndConstructERKS3_
__ZN4llvm8DenseMapIPNS_11InstructionENS_11SmallPtrSetINS_14PointerIntPairIPKNS_5ValueELj1EbNS_21PointerLikeTypeTraitsIS7_EENS_18PointerIntPairInfoIS7_Lj1ES9_EEEELj4EEENS_12DenseMapInfoIS2_EENS_6detail12DenseMapPairIS2_SD_EEE4growEj
__ZL24SortNonLocalDepInfoCacheRNSt3__16vectorIN4llvm16NonLocalDepEntryENS_9allocatorIS2_EEEEj
__ZNSt3__16vectorIN4llvm16NonLocalDepEntryENS_9allocatorIS2_EEE6insertENS_11__wrap_iterIPKS2_EERS7_
__ZN4llvm12DenseMapBaseINS_8DenseMapIPNS_5ValueEjNS_12DenseMapInfoIS3_EENS_6detail12DenseMapPairIS3_jEEEES3_jS5_S8_E18moveFromOldBucketsEPS8_SB_
__ZN12_GLOBAL__N_13GVN16performScalarPREEPN4llvm11InstructionE
__ZN4llvm9IRBuilderINS_14ConstantFolderENS_24IRBuilderDefaultInserterEE13CreateIntCastEPNS_5ValueEPNS_4TypeEbRKNS_5TwineE
__ZN4llvm13IRBuilderBase12CreateMemSetEPNS_5ValueES2_S2_jbPNS_6MDNodeES4_S4_
__ZNK4llvm12AttributeSet16removeAttributesERNS_11LLVMContextEjS0_
__ZN4llvm8Argument7addAttrENS_12AttributeSetE
__ZN4llvm13LazyValueInfo17getConstantOnEdgeEPNS_5ValueEPNS_10BasicBlockES4_PNS_11InstructionE
__ZN12_GLOBAL__N_113LVILatticeVal3getEPN4llvm8ConstantE
__ZN12_GLOBAL__N_111Reassociate7getRankEPN4llvm5ValueE
__ZL17LinearizeExprTreePN4llvm14BinaryOperatorERNS_15SmallVectorImplINSt3__14pairIPNS_5ValueENS_5APIntEEEEE
__ZN4llvm12DenseMapBaseINS_8DenseMapIPNS_5ValueENS_5APIntENS_12DenseMapInfoIS3_EENS_6detail12DenseMapPairIS3_S4_EEEES3_S4_S6_S9_E20InsertIntoBucketImplERKS3_PS9_
__ZN4llvm8DenseMapIPNS_5ValueENS_5APIntENS_12DenseMapInfoIS2_EENS_6detail12DenseMapPairIS2_S3_EEE4growEj
__ZNSt3__113__stable_sortIRNS_6__lessIN12_GLOBAL__N_110ValueEntryES3_EEPS3_EEvT0_S7_T_NS_15iterator_traitsIS7_E15difference_typeEPNSA_10value_typeEl
__ZN12_GLOBAL__N_111Reassociate18OptimizeExpressionEPN4llvm14BinaryOperatorERNS1_15SmallVectorImplINS_10ValueEntryEEE
__ZN4llvm12ConstantExpr16getBinOpIdentityEjPNS_4TypeE
__ZL16OptimizeAndOrXorjRN4llvm15SmallVectorImplIN12_GLOBAL__N_110ValueEntryEEE
__ZN12_GLOBAL__N_111Reassociate15RewriteExprTreeEPN4llvm14BinaryOperatorERNS1_15SmallVectorImplINS_10ValueEntryEEE
__ZN4llvm12simplifyLoopEPNS_4LoopEPNS_13DominatorTreeEPNS_8LoopInfoEPNS_15ScalarEvolutionEPNS_15AssumptionCacheEb
__ZNK4llvm8LoopBaseINS_10BasicBlockENS_4LoopEE16getExitingBlocksERNS_15SmallVectorImplIPS1_EE
__ZNK4llvm8LoopBaseINS_10BasicBlockENS_4LoopEE18getLoopPredecessorEv
__ZNK4llvm8LoopBaseINS_10BasicBlockENS_4LoopEE13getExitBlocksERNS_15SmallVectorImplIPS1_EE
__ZNK4llvm8LoopBaseINS_10BasicBlockENS_4LoopEE12getLoopLatchEv
__ZNK4llvm4Loop17makeLoopInvariantEPNS_11InstructionERbS2_
__ZN4llvm20formLCSSARecursivelyERNS_4LoopERNS_13DominatorTreeEPNS_8LoopInfoEPNS_15ScalarEvolutionE
__ZL18processInstructionRN4llvm4LoopERNS_11InstructionERNS_13DominatorTreeERKNS_15SmallVectorImplIPNS_10BasicBlockEEERNS_17PredIteratorCacheEPNS_8LoopInfoE
__ZN4llvm10SSAUpdater10InitializeEPNS_4TypeENS_9StringRefE
__ZL16addLoopIntoQueuePN4llvm4LoopERNSt3__15dequeIS1_NS2_9allocatorIS1_EEEE
__ZNSt3__114__split_bufferIPPN4llvm4LoopERNS_9allocatorIS4_EEE9push_backEOS4_
__ZN4llvm8LoopPass16doInitializationEPNS_4LoopERNS_13LPPassManagerE
__ZN12_GLOBAL__N_110LoopRotate9runOnLoopEPN4llvm4LoopERNS1_13LPPassManagerE
__ZNK4llvm4Loop9getLoopIDEv
__ZNK4llvm4Loop17hasDedicatedExitsEv
__ZNK4llvm8LoopBaseINS_10BasicBlockENS_4LoopEE13isLoopExitingEPKS1_
__ZN4llvm11CodeMetrics22collectEphemeralValuesEPKNS_4LoopEPNS_15AssumptionCacheERNS_15SmallPtrSetImplIPKNS_5ValueEEE
__ZN4llvm11CodeMetrics17analyzeBasicBlockEPKNS_10BasicBlockERKNS_19TargetTransformInfoERNS_15SmallPtrSetImplIPKNS_5ValueEEE
__ZN4llvm10SSAUpdater10RewriteUseERNS_3UseE
__ZN4llvm10SSAUpdater28GetValueAtEndOfBlockInternalEPNS_10BasicBlockE
__ZN4llvm15ValueHandleBase12ValueIsRAUWdEPNS_5ValueES2_
__ZN4llvm18ValueMapCallbackVHIPKNS_5ValueENS_6WeakVHENS_14ValueMapConfigIS3_NS_3sys10SmartMutexILb0EEEEEE19allUsesReplacedWithEPS1_
__ZN4llvm8ValueMapIPKNS_5ValueENS_6WeakVHENS_14ValueMapConfigIS3_NS_3sys10SmartMutexILb0EEEEEE6insertEONSt3__14pairIS3_S4_EE
__ZN4llvm12DenseMapBaseINS_8DenseMapIPNS_10BasicBlockEPNS_14SSAUpdaterImplINS_10SSAUpdaterEE6BBInfoENS_12DenseMapInfoIS3_EENS_6detail12DenseMapPairIS3_S8_EEEES3_S8_SA_SD_E20InsertIntoBucketImplERKS3_PSD_
__ZN4llvm8DenseMapIPNS_10BasicBlockEPNS_14SSAUpdaterImplINS_10SSAUpdaterEE6BBInfoENS_12DenseMapInfoIS2_EENS_6detail12DenseMapPairIS2_S7_EEE4growEj
__ZN4llvm10SSAUpdater23GetValueInMiddleOfBlockEPNS_10BasicBlockE
__ZN4llvm17DominatorTreeBaseINS_10BasicBlockEE24changeImmediateDominatorEPS1_S3_
__ZN4llvm17SplitCriticalEdgeEPNS_14TerminatorInstEjRKNS_28CriticalEdgeSplittingOptionsE
__ZN4llvm14isCriticalEdgeEPKNS_14TerminatorInstEjb
__ZN4llvm17DominatorTreeBaseINS_10BasicBlockEE11addNewBlockEPS1_S3_
__ZL26createPHIsForSplitLoopExitN4llvm8ArrayRefIPNS_10BasicBlockEEES2_S2_
__ZN4llvm17DominatorTreeBaseINS_10BasicBlockEE9eraseNodeEPS1_
__ZN4llvm12LoopInfoBaseINS_10BasicBlockENS_4LoopEE11removeBlockEPS1_
__ZN4llvm8LoopPass14doFinalizationEv
__ZN12_GLOBAL__N_14LICM9runOnLoopEPN4llvm4LoopERNS1_13LPPassManagerE
__ZN4llvm15AliasSetTracker3addEPNS_11InstructionE
__ZN4llvm15AliasSetTracker10addUnknownEPNS_11InstructionE
__ZN4llvm15AliasSetTracker3addEPNS_8LoadInstE
__ZN4llvm15AliasSetTracker21getAliasSetForPointerEPNS_5ValueEyRKNS_9AAMDNodesEPb
__ZN4llvm15AliasSetTracker11getEntryForEPNS_5ValueE
__ZN4llvm8DenseMapINS_15AliasSetTracker13ASTCallbackVHEPNS_8AliasSet10PointerRecENS1_25ASTCallbackVHDenseMapInfoENS_6detail12DenseMapPairIS2_S5_EEE4growEj
__ZN4llvm8AliasSet10addPointerERNS_15AliasSetTrackerERNS0_10PointerRecEyRKNS_9AAMDNodesEb
__ZN4llvm9AAResults5ModelINS_15GlobalsAAResultEE5aliasERKNS_14MemoryLocationES6_
__ZN4llvm15GlobalsAAResult5aliasERKNS_14MemoryLocationES3_
__ZN4llvm8AliasSet10mergeSetInERS0_RNS_15AliasSetTrackerE
__ZN4llvm10sinkRegionEPNS_15DomTreeNodeBaseINS_10BasicBlockEEEPNS_9AAResultsEPNS_8LoopInfoEPNS_13DominatorTreeEPNS_17TargetLibraryInfoEPNS_4LoopEPNS_15AliasSetTrackerEPNS_14LICMSafetyInfoE
__ZL18canSinkOrHoistInstRN4llvm11InstructionEPNS_9AAResultsEPNS_13DominatorTreeEPNS_17TargetLibraryInfoEPNS_4LoopEPNS_15AliasSetTrackerEPNS_14LICMSafetyInfoE
__ZN4llvm11hoistRegionEPNS_15DomTreeNodeBaseINS_10BasicBlockEEEPNS_9AAResultsEPNS_8LoopInfoEPNS_13DominatorTreeEPNS_17TargetLibraryInfoEPNS_4LoopEPNS_15AliasSetTrackerEPNS_14LICMSafetyInfoE
__ZN4llvm8AliasSet18getForwardedTargetERNS_15AliasSetTrackerE
__ZN4llvm15AliasSetTracker5clearEv
__ZN4llvm12DenseMapBaseINS_8DenseMapINS_15AliasSetTracker13ASTCallbackVHEPNS_8AliasSet10PointerRecENS2_25ASTCallbackVHDenseMapInfoENS_6detail12DenseMapPairIS3_S6_EEEES3_S6_S7_SA_E10destroyAllEv
__ZN4llvm6iplistINS_8AliasSetENS_12ilist_traitsIS1_EEED2Ev
__ZN12_GLOBAL__N_14LICM14doFinalizationEv
__ZN12_GLOBAL__N_112LoopUnswitch9runOnLoopEPN4llvm4LoopERNS1_13LPPassManagerE
__ZNK4llvm4Loop13isSafeToCloneEv
__ZL20FindLIVLoopConditionPN4llvm5ValueEPNS_4LoopERb
__ZN12_GLOBAL__N_112LoopUnswitch13releaseMemoryEv
__ZN4llvm17DominatorTreeBaseINS_10BasicBlockEE5SplitIPS1_NS_11GraphTraitsIS4_EEEEvRNS0_INT0_8NodeTypeEEEPS8_
__ZN4llvm17DominatorTreeBaseINS_10BasicBlockEE26findNearestCommonDominatorEPS1_S3_
__ZN12_GLOBAL__N_114IndVarSimplify9runOnLoopEPN4llvm4LoopERNS1_13LPPassManagerE
__ZN4llvm15ScalarEvolution20getBackedgeTakenInfoEPKNS_4LoopE
__ZN4llvm8DenseMapIPKNS_4LoopENS_15ScalarEvolution17BackedgeTakenInfoENS_12DenseMapInfoIS3_EENS_6detail12DenseMapPairIS3_S5_EEE4growEj
__ZN4llvm15ScalarEvolution24computeExitLimitFromCondEPKNS_4LoopEPNS_5ValueEPNS_10BasicBlockES7_b
__ZN4llvm15ScalarEvolution7getSCEVEPNS_5ValueE
__ZN4llvm15ScalarEvolution15getExistingSCEVEPNS_5ValueE
__ZN4llvm15ScalarEvolution10createSCEVEPNS_5ValueE
__ZN4llvm15ScalarEvolution10getUnknownEPNS_5ValueE
__ZN4llvm8DenseMapINS_15ScalarEvolution14SCEVCallbackVHEPKNS_4SCEVENS_12DenseMapInfoIPNS_5ValueEEENS_6detail12DenseMapPairIS2_S5_EEE4growEj
__ZN4llvm15ScalarEvolution14getSCEVAtScopeEPKNS_4SCEVEPKNS_4LoopE
__ZN4llvm12DenseMapBaseINS_8DenseMapIPKNS_4SCEVENS_11SmallVectorINSt3__14pairIPKNS_4LoopES4_EELj2EEENS_12DenseMapInfoIS4_EENS_6detail12DenseMapPairIS4_SC_EEEES4_SC_SE_SH_E16FindAndConstructERKS4_
__ZN4llvm15ScalarEvolution11getConstantEPNS_11ConstantIntE
__ZNK4llvm10FoldingSetINS_4SCEVEE10NodeEqualsEPNS_14FoldingSetImpl4NodeERKNS_16FoldingSetNodeIDEjRS6_
__ZN4llvm11SCEVVisitorIN12_GLOBAL__N_117SCEVShiftRewriterEPKNS_4SCEVEE5visitES5_
__ZN4llvm15ScalarEvolution18getLoopDispositionEPKNS_4SCEVEPKNS_4LoopE
__ZN4llvm12DenseMapBaseINS_8DenseMapIPKNS_4SCEVENS_11SmallVectorINS_14PointerIntPairIPKNS_4LoopELj2ENS_15ScalarEvolution15LoopDispositionENS_21PointerLikeTypeTraitsIS9_EENS_18PointerIntPairInfoIS9_Lj2ESD_EEEELj2EEENS_12DenseMapInfoIS4_EENS_6detail12DenseMapPairIS4_SH_EEEES4_SH_SJ_SM_E16FindAndConstructERKS4_
__ZN4llvm11SCEVVisitorIN12_GLOBAL__N_116SCEVInitRewriterEPKNS_4SCEVEE5visitES5_
__ZN4llvm15ScalarEvolution10getGEPExprEPNS_4TypeEPKNS_4SCEVERKNS_15SmallVectorImplIS5_EEb
__ZN4llvm15ScalarEvolution13getSizeOfExprEPNS_4TypeES2_
__ZN4llvm15ScalarEvolution23getTruncateOrSignExtendEPKNS_4SCEVEPNS_4TypeE
__ZN4llvm15ScalarEvolution10getMulExprERNS_15SmallVectorImplIPKNS_4SCEVEEENS2_11NoWrapFlagsE
__ZL17GroupByComplexityRN4llvm15SmallVectorImplIPKNS_4SCEVEEEPNS_8LoopInfoE
__ZNK12_GLOBAL__N_121SCEVComplexityCompare7compareEPKN4llvm4SCEVES4_
__ZN4llvm15ScalarEvolution18isKnownNonNegativeEPKNS_4SCEVE
__ZN4llvm15ScalarEvolution8getRangeEPKNS_4SCEVENS0_13RangeSignHintE
__ZN4llvm15ScalarEvolution8setRangeEPKNS_4SCEVENS0_13RangeSignHintERKNS_13ConstantRangeE
__ZN4llvm8DenseMapIPKNS_4SCEVENS_13ConstantRangeENS_12DenseMapInfoIS3_EENS_6detail12DenseMapPairIS3_S4_EEE4growEj
__ZN4llvm15ScalarEvolution10getAddExprERNS_15SmallVectorImplIPKNS_4SCEVEEENS2_11NoWrapFlagsE
__ZN4llvm13ConstantRange16makeNoWrapRegionENS_11Instruction9BinaryOpsERKNS_5APIntEj
__ZN4llvm15ScalarEvolution19GetMinTrailingZerosEPKNS_4SCEVE
__ZZN4llvm13ConstantRange16makeNoWrapRegionENS_11Instruction9BinaryOpsERKNS_5APIntEjENK3$_0clERKS0_S8_
__ZNK4llvm13ConstantRange9unionWithERKS0_
__ZL21BuildConstantFromSCEVPKN4llvm4SCEVE
__ZN4llvm15ScalarEvolution20SimplifyICmpOperandsERNS_7CmpInst9PredicateERPKNS_4SCEVES7_j
__ZN4llvm15ScalarEvolution19HowManyGreaterThansEPKNS_4SCEVES3_PKNS_4LoopEbb
__ZN4llvm15ScalarEvolution28computeExitCountExhaustivelyEPKNS_4LoopEPNS_5ValueEb
__ZL30getConstantEvolvingPHIOperandsPN4llvm11InstructionEPKNS_4LoopERNS_8DenseMapIS1_PNS_7PHINodeENS_12DenseMapInfoIS1_EENS_6detail12DenseMapPairIS1_S7_EEEE
__ZN4llvm8DenseMapIPNS_11InstructionEPNS_7PHINodeENS_12DenseMapInfoIS2_EENS_6detail12DenseMapPairIS2_S4_EEE4growEj
__ZZN4llvm15ScalarEvolution28computeShiftCompareExitLimitEPNS_5ValueES2_PKNS_4LoopENS_7CmpInst9PredicateEENK4$_12clES2_RS2_RNS_11Instruction9BinaryOpsE
__ZN4llvm15ScalarEvolution16getUDivExactExprEPKNS_4SCEVES3_
__ZN4llvm15ScalarEvolution11getUDivExprEPKNS_4SCEVES3_
__ZN4llvm15ScalarEvolution15getTruncateExprEPKNS_4SCEVEPNS_4TypeE
__ZN4llvm15ScalarEvolution17getZeroExtendExprEPKNS_4SCEVEPNS_4TypeE
__ZNK4llvm13ConstantRange8truncateEj
__ZNK4llvm13ConstantRange10zeroExtendEj
__ZNK4llvm13ConstantRange11zextOrTruncEj
__ZN4llvm15ScalarEvolution12getMinusSCEVEPKNS_4SCEVES3_NS1_11NoWrapFlagsE
__ZN4llvm15ScalarEvolution15getNegativeSCEVEPKNS_4SCEVENS1_11NoWrapFlagsE
__ZN4llvm15ScalarEvolution35computeLoadConstantCompareExitLimitEPNS_8LoadInstEPNS_8ConstantEPKNS_4LoopENS_7CmpInst9PredicateE
__ZN4llvm15ScalarEvolution12HowFarToZeroEPKNS_4SCEVEPKNS_4LoopEb
__ZN4llvm17simplifyUsersOfIVEPNS_7PHINodeEPNS_15ScalarEvolutionEPNS_13DominatorTreeEPNS_8LoopInfoERNS_15SmallVectorImplINS_6WeakVHEEEPNS_9IVVisitorE
__ZL11pushIVUsersPN4llvm11InstructionERNS_11SmallPtrSetIS1_Lj16EEERNS_15SmallVectorImplINSt3__14pairIS1_S1_EEEE
__ZN4llvm12SCEVExpander19replaceCongruentIVsEPNS_4LoopEPKNS_13DominatorTreeERNS_15SmallVectorImplINS_6WeakVHEEEPKNS_19TargetTransformInfoE
__ZN4llvm12DenseMapBaseINS_8DenseMapIPKNS_4SCEVEPNS_7PHINodeENS_12DenseMapInfoIS4_EENS_6detail12DenseMapPairIS4_S6_EEEES4_S6_S8_SB_E20InsertIntoBucketImplERKS4_PSB_
__ZN4llvm8DenseMapIPKNS_4SCEVEPNS_7PHINodeENS_12DenseMapInfoIS3_EENS_6detail12DenseMapPairIS3_S5_EEE4growEj
__ZNSt3__16__treeINS_12__value_typeINS_4pairIPKN4llvm4SCEVEPNS3_11InstructionEEENS3_10TrackingVHINS3_5ValueEEEEENS_19__map_value_compareIS9_SD_NS_4lessIS9_EELb1EEENS_9allocatorISD_EEE7destroyEPNS_11__tree_nodeISD_PvEE
__ZN4llvm14DeleteDeadPHIsEPNS_10BasicBlockEPKNS_17TargetLibraryInfoE
__ZN4llvm12SCEVExpanderD2Ev
__ZN12_GLOBAL__N_114IndVarSimplify13releaseMemoryEv
__ZN12_GLOBAL__N_118LoopIdiomRecognize9runOnLoopEPN4llvm4LoopERNS1_13LPPassManagerE
__ZN4llvm19TargetTransformInfo5ModelINS_14AArch64TTIImplEE16getPopcntSupportEj
__ZNK4llvm8LoopBaseINS_10BasicBlockENS_4LoopEE15getNumBackEdgesEv
__ZN12_GLOBAL__N_112LoopDeletion9runOnLoopEPN4llvm4LoopERNS1_13LPPassManagerE
__ZNK4llvm4Loop19getUniqueExitBlocksERNS_15SmallVectorImplIPNS_10BasicBlockEEE
__ZN12_GLOBAL__N_110LoopUnroll9runOnLoopEPN4llvm4LoopERNS1_13LPPassManagerE
__ZN4llvm19TargetTransformInfo5ModelINS_14AArch64TTIImplEE23getUnrollingPreferencesEPNS_4LoopERNS0_20UnrollingPreferencesE
__ZN4llvm15SmallVectorImplIPNS_11InstructionEEaSERKS3_
__ZN4llvm15SmallVectorImplIPNS_11InstructionEEaSEOS3_
__ZN4llvm12PHITransAddr19PHITranslateSubExprEPNS_5ValueEPNS_10BasicBlockES4_PKNS_13DominatorTreeE
__ZN4llvm32GetPointerBaseWithConstantOffsetEPNS_5ValueERxRKNS_10DataLayoutE
__ZN4llvm24MemoryDependenceAnalysis31getLoadLoadClobberFullWidthSizeEPKNS_5ValueExjPKNS_8LoadInstE
__ZNSt3__16__sortIRNS_6__lessIN4llvm16NonLocalDepEntryES3_EEPS3_EEvT0_S7_T_
__ZL16RemoveInstInputsPN4llvm5ValueERNS_15SmallVectorImplIPNS_11InstructionEEE
__ZNK4llvm17TypeBasedAAResult7AliasesEPKNS_6MDNodeES3_
__ZN4llvm12DenseMapBaseINS_8DenseMapIPNS_10BasicBlockEcNS_12DenseMapInfoIS3_EENS_6detail12DenseMapPairIS3_cEEEES3_cS5_S8_E20InsertIntoBucketImplERKS3_PS8_
__ZN4llvm8DenseMapIPNS_10BasicBlockEcNS_12DenseMapInfoIS2_EENS_6detail12DenseMapPairIS2_cEEE4growEj
__ZL28IsValueFullyAvailableInBlockPN4llvm10BasicBlockERNS_8DenseMapIS1_cNS_12DenseMapInfoIS1_EENS_6detail12DenseMapPairIS1_cEEEEj
__ZN4llvm9MapVectorIPNS_10BasicBlockEPNS_5ValueENS_8DenseMapIS2_jNS_12DenseMapInfoIS2_EENS_6detail12DenseMapPairIS2_jEEEENSt3__16vectorINSC_4pairIS2_S4_EENSC_9allocatorISF_EEEEEixERKS2_
__ZN4llvm12PHITransAddr26InsertPHITranslatedSubExprEPNS_5ValueEPNS_10BasicBlockES4_RKNS_13DominatorTreeERNS_15SmallVectorImplIPNS_11InstructionEEE
__ZN4llvm24MemoryDependenceAnalysis39RemoveCachedNonLocalPointerDependenciesENS_14PointerIntPairIPKNS_5ValueELj1EbNS_21PointerLikeTypeTraitsIS4_EENS_18PointerIntPairInfoIS4_Lj1ES6_EEEE
__ZL20RemoveFromReverseMapIN4llvm14PointerIntPairIPKNS0_5ValueELj1EbNS0_21PointerLikeTypeTraitsIS4_EENS0_18PointerIntPairInfoIS4_Lj1ES6_EEEEEvRNS0_8DenseMapIPNS0_11InstructionENS0_11SmallPtrSetIT_Lj4EEENS0_12DenseMapInfoISC_EENS0_6detail12DenseMapPairISC_SF_EEEESC_SE_
__ZL22ConstructSSAForLoadSetPN4llvm8LoadInstERNS_15SmallVectorImplIN12_GLOBAL__N_121AvailableValueInBlockEEERNS3_3GVNE
__ZNK12_GLOBAL__N_121AvailableValueInBlock24MaterializeAdjustedValueEPN4llvm8LoadInstERNS_3GVNE
__ZNK12_GLOBAL__N_118TBAAStructTypeNode9getParentERy
__ZZN4llvm12DemandedBits24determineLiveOperandBitsEPKNS_11InstructionES3_jRKNS_5APIntERS4_S7_S7_S7_S7_ENK3$_0clEjPKNS_5ValueESB_
__ZN4llvm13LazyValueInfo10eraseBlockEPNS_10BasicBlockE
__ZN12_GLOBAL__N_113LVILatticeVal15markNotConstantEPN4llvm8ConstantE
__ZN12_GLOBAL__N_118LazyValueInfoCache6lookupEPN4llvm5ValueE
__ZN4llvm12DenseMapBaseINS_13SmallDenseMapINS_11AssertingVHINS_10BasicBlockEEEN12_GLOBAL__N_113LVILatticeValELj4ENS_12DenseMapInfoIS4_EENS_6detail12DenseMapPairIS4_S6_EEEES4_S6_S8_SB_E18moveFromOldBucketsEPSB_SE_
__ZN4llvm13SmallDenseMapINS_11AssertingVHINS_10BasicBlockEEEN12_GLOBAL__N_113LVILatticeValELj4ENS_12DenseMapInfoIS3_EENS_6detail12DenseMapPairIS3_S5_EEED1Ev
__ZN4llvm9SetVectorIPNS_5ValueENS_11SmallVectorIS2_Lj8EEENS_8SmallSetIS2_Lj8ENSt3__14lessIS2_EEEEE6insertERKS2_
__ZN12_GLOBAL__N_111Reassociate11OptimizeAddEPN4llvm11InstructionERNS1_15SmallVectorImplINS_10ValueEntryEEE
__ZNK4llvm17DominatorTreeBaseINS_10BasicBlockEE17properlyDominatesEPKS1_S4_
__ZN4llvm14BinaryOperator10andIRFlagsEPKNS_5ValueE
__ZN4llvm13BasicAAResult19GetLinearExpressionEPKNS_5ValueERNS_5APIntES5_RjS6_RKNS_10DataLayoutEjPNS_15AssumptionCacheEPNS_13DominatorTreeERbSE_
__ZNK4llvm5APInt10zextOrSelfEj
__ZNSt3__17__sort4IRNS_6__lessIN4llvm16NonLocalDepEntryES3_EEPS3_EEjT0_S7_S7_S7_T_
__ZN4llvm12DenseMapBaseINS_8DenseMapIPNS_11InstructionENS_11SmallPtrSetIS3_Lj4EEENS_12DenseMapInfoIS3_EENS_6detail12DenseMapPairIS3_S5_EEEES3_S5_S7_SA_E16FindAndConstructERKS3_
__ZN4llvm8DenseMapIPNS_11InstructionENS_11SmallPtrSetIS2_Lj4EEENS_12DenseMapInfoIS2_EENS_6detail12DenseMapPairIS2_S4_EEE4growEj
__ZN4llvm8DenseMapIPNS_5ValueEiNS_12DenseMapInfoIS2_EENS_6detail12DenseMapPairIS2_iEEE4growEj
__ZN4llvm8DenseMapIPNS_5ValueEPNS_8ConstantENS_12DenseMapInfoIS2_EENS_6detail12DenseMapPairIS2_S4_EEE4growEj
__ZN12_GLOBAL__N_112CallAnalyzer19accumulateGEPOffsetERN4llvm11GEPOperatorERNS1_5APIntE
__ZL33replaceAndRecursivelySimplifyImplPN4llvm11InstructionEPNS_5ValueEPKNS_17TargetLibraryInfoEPKNS_13DominatorTreeEPNS_15AssumptionCacheE
__ZN4llvm9SetVectorIPNS_11InstructionENS_11SmallVectorIS2_Lj8EEENS_8SmallSetIS2_Lj8ENSt3__14lessIS2_EEEEE6insertERKS2_
__ZN12_GLOBAL__N_113ArgumentGraphixEPN4llvm8ArgumentE
__ZZL25determinePointerReadAttrsPN4llvm8ArgumentERKNS_11SmallPtrSetIS1_Lj8EEEENK3$_2clEv
__ZN12_GLOBAL__N_113LVILatticeVal8getRangeEN4llvm13ConstantRangeE
__ZN12_GLOBAL__N_113LVILatticeVal17markConstantRangeEN4llvm13ConstantRangeE
__ZN12_GLOBAL__N_113JumpThreading15SplitBlockPredsEPN4llvm10BasicBlockENS1_8ArrayRefIS3_EEPKc
__ZN4llvm25array_pod_sort_comparatorINSt3__14pairIPNS_10BasicBlockEPNS_5ValueEEEEEiPKvS9_
__ZNK4llvm13ConstantRange8containsERKNS_5APIntE
__ZN12_GLOBAL__N_17XorOpndC1EPN4llvm5ValueE
__ZN4llvm5APInteOERKS0_
__ZNSt3__113__stable_sortIRN12_GLOBAL__N_17XorOpnd14PtrSortFunctorEPPS2_EEvT0_S7_T_NS_15iterator_traitsIS7_E15difference_typeEPNSA_10value_typeEl
__ZN4llvm9SetVectorINS_11AssertingVHINS_11InstructionEEENSt3__16vectorIS3_NS4_9allocatorIS3_EEEENS_8DenseSetIS3_NS_12DenseMapInfoIS3_EEEEE6insertERKS3_
__ZN4llvm8DenseMapINS_11AssertingVHINS_11InstructionEEENS_6detail13DenseSetEmptyENS_12DenseMapInfoIS3_EENS4_12DenseSetPairIS3_EEE4growEj
__ZN4llvm22InsertPreheaderForLoopEPNS_4LoopEPNS_13DominatorTreeEPNS_8LoopInfoEb
__ZL24placeSplitBlockCarefullyPN4llvm10BasicBlockERNS_15SmallVectorImplIS1_EEPNS_4LoopE
__ZNK4llvm8AliasSet18aliasesUnknownInstEPKNS_11InstructionERNS_9AAResultsE
__ZNSt3__16vectorIN4llvm11AssertingVHINS1_11InstructionEEENS_9allocatorIS4_EEE24__emplace_back_slow_pathIJRPS3_EEEvDpOT_
__ZN4llvm8AliasSet7dropRefERNS_15AliasSetTrackerE
__ZN4llvm15ScalarEvolution20getNoWrapFlagsFromUBEPKNS_5ValueE
__ZN4llvm15ScalarEvolution13getAddRecExprEPKNS_4SCEVES3_PKNS_4LoopENS1_11NoWrapFlagsE
__ZN4llvm15ScalarEvolution13getAddRecExprERNS_15SmallVectorImplIPKNS_4SCEVEEEPKNS_4LoopENS2_11NoWrapFlagsE
__ZN4llvm15ScalarEvolution18ForgetSymbolicNameEPNS_11InstructionEPKNS_4SCEVE
__ZNK4llvm15ScalarEvolution10hasOperandEPKNS_4SCEVES3_
__ZN4llvm15ScalarEvolution21forgetMemoizedResultsEPKNS_4SCEVE
__ZN4llvm12DenseMapBaseINS_8DenseMapIPKNS_4SCEVENS_13ConstantRangeENS_12DenseMapInfoIS4_EENS_6detail12DenseMapPairIS4_S5_EEEES4_S5_S7_SA_E5eraseERKS4_
__ZN4llvm12DenseMapBaseINS_8DenseMapINS_15ScalarEvolution14SCEVCallbackVHEPKNS_4SCEVENS_12DenseMapInfoIPNS_5ValueEEENS_6detail12DenseMapPairIS3_S6_EEEES3_S6_SA_SD_E16FindAndConstructEOS3_
__ZN4llvm15ScalarEvolution18isKnownNonPositiveEPKNS_4SCEVE
__ZN4llvm15ScalarEvolution16HowManyLessThansEPKNS_4SCEVES3_PKNS_4LoopEbb
__ZNK4llvm14SCEVAddRecExpr17getStepRecurrenceERNS_15ScalarEvolutionE
__ZN4llvm15ScalarEvolution15isKnownPositiveEPKNS_4SCEVE
__ZN4llvm15ScalarEvolution24isLoopEntryGuardedByCondEPKNS_4LoopENS_7CmpInst9PredicateEPKNS_4SCEVES8_
__ZN4llvm15ScalarEvolution26isKnownPredicateWithRangesENS_7CmpInst9PredicateEPKNS_4SCEVES5_
__ZN4llvm15ScalarEvolution13isImpliedCondENS_7CmpInst9PredicateEPKNS_4SCEVES5_PNS_5ValueEb
__ZN4llvm8DenseMapIPNS_5ValueENS_6detail13DenseSetEmptyENS_12DenseMapInfoIS2_EENS3_12DenseSetPairIS2_EEE4growEj
__ZN4llvm15ScalarEvolution13isImpliedCondENS_7CmpInst9PredicateEPKNS_4SCEVES5_S2_S5_S5_
__ZN4llvm15ScalarEvolution21isImpliedCondOperandsENS_7CmpInst9PredicateEPKNS_4SCEVES5_S5_S5_
__ZN4llvm15ScalarEvolution27isImpliedCondOperandsHelperENS_7CmpInst9PredicateEPKNS_4SCEVES5_S5_S5_
__ZN4llvm15ScalarEvolution14computeBECountEPKNS_4SCEVES3_b
__ZNK4llvm13ConstantRange3addERKS0_
__ZN4llvm15ScalarEvolution19getNoopOrZeroExtendEPKNS_4SCEVEPNS_4TypeE
__ZNK4llvm13ConstantRange11sextOrTruncEj
__ZNK4llvm13ConstantRange10signExtendEj
__ZNK4llvm13ConstantRange16isSignWrappedSetEv
__ZNK4llvm13ConstantRange8multiplyERKS0_
__ZN4llvm5APIntmLERKS0_
__ZN4llvm5APInt14AssignSlowCaseERKS0_
__ZL20getExtendAddRecStartIN4llvm18SCEVZeroExtendExprEEPKNS0_4SCEVEPKNS0_14SCEVAddRecExprEPNS0_4TypeEPNS0_15ScalarEvolutionE
__ZN4llvm15ScalarEvolution10getAddExprEPKNS_4SCEVES3_NS1_11NoWrapFlagsE
__ZN4llvm15ScalarEvolution11forgetValueEPNS_5ValueE
__ZN4llvm15ScalarEvolution16isKnownPredicateENS_7CmpInst9PredicateEPKNS_4SCEVES5_
__ZL12MatchNotExprPKN4llvm4SCEVE
__ZL30IsKnownPredicateViaAddRecStartRN4llvm15ScalarEvolutionENS_7CmpInst9PredicateEPKNS_4SCEVES6_
__ZN4llvm15ScalarEvolution29isKnownPredicateViaNoOverflowENS_7CmpInst9PredicateEPKNS_4SCEVES5_
__ZN4llvm15ScalarEvolution10getNotSCEVEPKNS_4SCEVE
__ZN4llvm5APInt7udivremERKS0_S2_RS0_S3_
__ZL28CollectAddOperandsWithScalesRN4llvm8DenseMapIPKNS_4SCEVENS_5APIntENS_12DenseMapInfoIS3_EENS_6detail12DenseMapPairIS3_S4_EEEERNS_15SmallVectorImplIS3_EERS4_PKS3_mRKS4_RNS_15ScalarEvolutionE
__ZN4llvm12DenseMapBaseINS_8DenseMapIPKNS_4SCEVENS_5APIntENS_12DenseMapInfoIS4_EENS_6detail12DenseMapPairIS4_S5_EEEES4_S5_S7_SA_E6insertEONSt3__14pairIS4_S5_EE
__ZN4llvm8DenseMapIPKNS_4SCEVENS_5APIntENS_12DenseMapInfoIS3_EENS_6detail12DenseMapPairIS3_S4_EEE4growEj
__ZN12_GLOBAL__N_121IndVarSimplifyVisitor9visitCastEPN4llvm8CastInstE
__ZN4llvm19TargetTransformInfo5ModelINS_14AArch64TTIImplEE22getArithmeticInstrCostEjPNS_4TypeENS0_16OperandValueKindES6_NS0_22OperandValuePropertiesES7_
__ZN4llvm14AArch64TTIImpl22getArithmeticInstrCostEjPNS_4TypeENS_19TargetTransformInfo16OperandValueKindES4_NS3_22OperandValuePropertiesES5_
__ZN4llvm15ScalarEvolution17getSignExtendExprEPKNS_4SCEVEPNS_4TypeE
__ZN4llvm12SCEVExpander6expandEPKNS_4SCEVE
__ZN4llvm11SCEVVisitorINS_12SCEVExpanderEPNS_5ValueEE5visitEPKNS_4SCEVE
__ZN4llvm12SCEVExpander25expandAddRecExprLiterallyEPKNS_14SCEVAddRecExprE
__ZN4llvm15ScalarEvolution19getBlockDispositionEPKNS_4SCEVEPKNS_10BasicBlockE
__ZN4llvm12DenseMapBaseINS_8DenseMapIPKNS_4SCEVENS_11SmallVectorINS_14PointerIntPairIPKNS_10BasicBlockELj2ENS_15ScalarEvolution16BlockDispositionENS_21PointerLikeTypeTraitsIS9_EENS_18PointerIntPairInfoIS9_Lj2ESD_EEEELj2EEENS_12DenseMapInfoIS4_EENS_6detail12DenseMapPairIS4_SH_EEEES4_SH_SJ_SM_E16FindAndConstructERKS4_
__ZN4llvm13IRBuilderBase16InsertPointGuardD2Ev
__ZN4llvm13IRBuilderBase14SetInsertPointEPNS_10BasicBlockENS_14ilist_iteratorINS_11InstructionEEE
__ZN4llvm12SCEVExpander18InsertNoopCastOfToEPNS_5ValueEPNS_4TypeE
__ZN4llvm9IRBuilderINS_12TargetFolderENS_24IRBuilderDefaultInserterEE9CreatePHIEPNS_4TypeEjRKNS_5TwineE
__ZN4llvm12SCEVExpander19rememberInstructionEPNS_5ValueE
__ZN4llvm12SCEVExpander11expandIVIncEPNS_7PHINodeEPNS_5ValueEPKNS_4LoopEPNS_4TypeES9_b
__ZN4llvm9IRBuilderINS_12TargetFolderENS_24IRBuilderDefaultInserterEE9CreateAddEPNS_5ValueES5_RKNS_5TwineEbb
__ZN4llvm9IRBuilderINS_12TargetFolderENS_24IRBuilderDefaultInserterEE23CreateInsertNUWNSWBinOpENS_11Instruction9BinaryOpsEPNS_5ValueES7_RKNS_5TwineEbb
__ZN4llvm19SmallPtrSetImplBase8CopyFromERKS0_
__ZN12_GLOBAL__N_17WidenIV17pushNarrowIVUsersEPN4llvm11InstructionES3_
__ZN4llvm15ScalarEvolution27isLoopBackedgeGuardedByCondEPKNS_4LoopENS_7CmpInst9PredicateEPKNS_4SCEVES8_
__ZN4llvm12SCEVExpander10hoistIVIncEPNS_11InstructionES2_
__ZN4llvm12SCEVExpander15getIVIncOperandEPNS_11InstructionES2_b
__ZL21getInsertPointForUsesPN4llvm11InstructionEPNS_5ValueEPNS_13DominatorTreeEPNS_8LoopInfoE
__ZN12_GLOBAL__N_17WidenIV16createExtendInstEPN4llvm5ValueEPNS1_4TypeEbPNS1_11InstructionE
__ZN4llvm5APInt6divideES0_jRKS0_jPS0_S3_
__ZN4llvm15ScalarEvolution14SCEVCallbackVH19allUsesReplacedWithEPNS_5ValueE
__ZN4llvm11SCEVUnknown19allUsesReplacedWithEPNS_5ValueE
__ZNSt3__113__stable_sortIRN12_GLOBAL__N_121SCEVComplexityCompareEPPKN4llvm4SCEVEEEvT0_S9_T_NS_15iterator_traitsIS9_E15difference_typeEPNSC_10value_typeEl
__ZNSt3__16__treeINS_12__value_typeIN4llvm5APIntENS2_11SmallVectorIPKNS2_4SCEVELj4EEEEENS_19__map_value_compareIS3_S9_ZNS2_15ScalarEvolution10getAddExprERNS2_15SmallVectorImplIS7_EENS5_11NoWrapFlagsEE12APIntCompareLb1EEENS_9allocatorIS9_EEE7destroyEPNS_11__tree_nodeIS9_PvEE
__ZNK4llvm5APInt11shlSlowCaseEj
__ZN4llvm15ScalarEvolution23getTruncateOrZeroExtendEPKNS_4SCEVEPNS_4TypeE
__ZN4llvm15ScalarEvolution25computeConstantDifferenceEPKNS_4SCEVES3_RNS_5APIntE
__ZL31getUnsignedOverflowLimitForStepPKN4llvm4SCEVEPNS_7CmpInst9PredicateEPNS_15ScalarEvolutionE
__ZL29getSignedOverflowLimitForStepPKN4llvm4SCEVEPNS_7CmpInst9PredicateEPNS_15ScalarEvolutionE
__ZNK4llvm17DominatorTreeBaseINS_10BasicBlockEE14getDescendantsEPS1_RNS_15SmallVectorImplIS3_EE
__ZN4llvm12DenseMapBaseINS_8DenseMapIPNS_10BasicBlockENS_6detail13DenseSetEmptyENS_12DenseMapInfoIS3_EENS4_12DenseSetPairIS3_EEEES3_S5_S7_S9_E20InsertIntoBucketImplERKS3_PS9_
__ZN4llvm8DenseMapIPNS_10BasicBlockENS_6detail13DenseSetEmptyENS_12DenseMapInfoIS2_EENS3_12DenseSetPairIS2_EEE4growEj
__ZN4llvm22isPotentiallyReachableEPKNS_11InstructionES2_PKNS_13DominatorTreeEPKNS_8LoopInfoE
__ZN4llvm13SmallDenseMapINSt3__14pairINS_14MemoryLocationES3_EENS_11AliasResultELj8ENS_12DenseMapInfoIS4_EENS_6detail12DenseMapPairIS4_S5_EEE4growEj
__ZN4llvm12DenseMapBaseINS_13SmallDenseMapINSt3__14pairINS_14MemoryLocationES4_EENS_11AliasResultELj8ENS_12DenseMapInfoIS5_EENS_6detail12DenseMapPairIS5_S6_EEEES5_S6_S8_SB_E18moveFromOldBucketsEPSB_SE_
__ZN4llvm15isBytewiseValueEPNS_5ValueE
__ZL14getLocForWritePN4llvm11InstructionERNS_9AAResultsE
__ZN12_GLOBAL__N_112CallAnalyzer21visitUnaryInstructionERN4llvm16UnaryInstructionE
__ZN12_GLOBAL__N_125AllocaDerivedValueTracker4walkEPN4llvm5ValueE
__ZZN12_GLOBAL__N_125AllocaDerivedValueTracker4walkEPN4llvm5ValueEENKUlS3_E_clES3_
__ZN4llvm26PointerMayBeCapturedBeforeEPKNS_5ValueEbbPKNS_11InstructionEPNS_13DominatorTreeEbPNS_17OrderedBasicBlockE
__ZN12_GLOBAL__N_114CapturesBefore13shouldExploreEPKN4llvm3UseE
__ZN4llvm9SetVectorIPNS_5ValueENS_11SmallVectorIS2_Lj16EEENS_8SmallSetIS2_Lj16ENSt3__14lessIS2_EEEEE6insertERKS2_
__ZN4llvm9SetVectorIPNS_5ValueENS_11SmallVectorIS2_Lj16EEENS_8SmallSetIS2_Lj16ENSt3__14lessIS2_EEEEE19TestAndEraseFromSetIZN12_GLOBAL__N_13DSE14handleEndBlockERNS_10BasicBlockEE3$_0EclIS2_EEbRKT_
__ZL11isRemovablePN4llvm11InstructionE
__ZN4llvm9AAResults5ModelINS_15GlobalsAAResultEE16getArgModRefInfoENS_17ImmutableCallSiteEj
__ZN4llvm8LoopBaseINS_10BasicBlockENS_4LoopEE19addBasicBlockToLoopEPS1_RNS_12LoopInfoBaseIS1_S2_EE
__ZN4llvm20isKnownNotFullPoisonEPKNS_11InstructionE
__ZN4llvm9IRBuilderINS_12TargetFolderENS_24IRBuilderDefaultInserterEE10CreateCastENS_11Instruction7CastOpsEPNS_5ValueEPNS_4TypeERKNS_5TwineE
__ZN4llvm12SCEVExpander25isHighCostExpansionHelperEPKNS_4SCEVEPNS_4LoopEPKNS_11InstructionERNS_15SmallPtrSetImplIS3_EE
__ZL20getLoopPhiForCounterPN4llvm5ValueEPNS_4LoopEPNS_13DominatorTreeE
__ZL18hasConcreteDefImplPN4llvm5ValueERNS_15SmallPtrSetImplIS1_EEj
__ZN4llvm12SCEVExpander15getRelevantLoopEPKNS_4SCEVE
__ZN4llvm12DenseMapBaseINS_8DenseMapIPKNS_4SCEVEPKNS_4LoopENS_12DenseMapInfoIS4_EENS_6detail12DenseMapPairIS4_S7_EEEES4_S7_S9_SC_E20InsertIntoBucketImplERKS4_PSC_
__ZN4llvm8DenseMapIPKNS_4SCEVEPKNS_4LoopENS_12DenseMapInfoIS3_EENS_6detail12DenseMapPairIS3_S6_EEE4growEj
__ZNSt3__113__stable_sortIRN12_GLOBAL__N_111LoopCompareEPNS_4pairIPKN4llvm4LoopEPKNS5_4SCEVEEEEEvT0_SE_T_NS_15iterator_traitsISE_E15difference_typeEPNSH_10value_typeEl
__ZNK12_GLOBAL__N_111LoopCompareclENSt3__14pairIPKN4llvm4LoopEPKNS3_4SCEVEEESA_
__ZN4llvm12SCEVExpander11InsertBinopENS_11Instruction9BinaryOpsEPNS_5ValueES4_
__ZN4llvm15ScalarEvolution14SCEVCallbackVH7deletedEv
__ZN4llvm11SCEVUnknown7deletedEv
__ZNK4llvm14SCEVAddRecExpr23getNumIterationsInRangeENS_13ConstantRangeERNS_15ScalarEvolutionE
__ZN4llvm15ScalarEvolution11getSMaxExprERNS_15SmallVectorImplIPKNS_4SCEVEEE
__ZN4llvm15ScalarEvolution15isKnownNegativeEPKNS_4SCEVE
__ZNK4llvm10FoldingSetINS_4SCEVEE15ComputeNodeHashEPNS_14FoldingSetImpl4NodeERNS_16FoldingSetNodeIDE
__ZL20getExtendAddRecStartIN4llvm18SCEVSignExtendExprEEPKNS0_4SCEVEPKNS0_14SCEVAddRecExprEPNS0_4TypeEPNS0_15ScalarEvolutionE
__ZL21getMemSetPatternValuePN4llvm5ValueEPKNS_10DataLayoutE
__ZN4llvm12DenseMapBaseINS_8DenseMapIN12_GLOBAL__N_110ExpressionEjNS_12DenseMapInfoIS3_EENS_6detail12DenseMapPairIS3_jEEEES3_jS5_S8_E10destroyAllEv
__ZN12_GLOBAL__N_119ArgumentUsesTracker11tooManyUsesEv
__ZL28getJumpThreadDuplicationCostPKN4llvm10BasicBlockEj
__ZN4llvm12DenseMapBaseINS_8DenseMapIPNS_11InstructionEPNS_5ValueENS_12DenseMapInfoIS3_EENS_6detail12DenseMapPairIS3_S5_EEEES3_S5_S7_SA_E20InsertIntoBucketImplERKS3_PSA_
__ZN4llvm8DenseMapIPNS_11InstructionEPNS_5ValueENS_12DenseMapInfoIS2_EENS_6detail12DenseMapPairIS2_S4_EEE4growEj
__ZL31AddPHINodeEntriesForMappedBlockPN4llvm10BasicBlockES1_S1_RNS_8DenseMapIPNS_11InstructionEPNS_5ValueENS_12DenseMapInfoIS4_EENS_6detail12DenseMapPairIS4_S6_EEEE
__ZN4llvm27SimplifyInstructionsInBlockEPNS_10BasicBlockEPKNS_17TargetLibraryInfoE
__ZL25simplifyAndDCEInstructionPN4llvm11InstructionERNS_14SmallSetVectorIS1_Lj16EEERKNS_10DataLayoutEPKNS_17TargetLibraryInfoE
__ZL15lookThroughCastPN4llvm7CmpInstEPNS_5ValueES3_PNS_11Instruction7CastOpsE
__ZN4llvm26FoldReturnIntoUncondBranchEPNS_10ReturnInstEPNS_10BasicBlockES3_
__ZN12_GLOBAL__N_112TailCallElim26EliminateRecursiveTailCallEPN4llvm8CallInstEPNS1_10ReturnInstERPNS1_10BasicBlockERbRNS1_15SmallVectorImplIPNS1_7PHINodeEEEb
__ZL17isDynamicConstantPN4llvm5ValueEPNS_8CallInstEPNS_10ReturnInstE
__ZL17FindInOperandListRN4llvm15SmallVectorImplIN12_GLOBAL__N_110ValueEntryEEEjPNS_5ValueE
__ZL21ShouldBreakUpSubtractPN4llvm11InstructionE
__ZL15BreakUpSubtractPN4llvm11InstructionERNS_9SetVectorINS_11AssertingVHIS0_EENSt3__16vectorIS4_NS5_9allocatorIS4_EEEENS_8DenseSetIS4_NS_12DenseMapInfoIS4_EEEEEE
__ZL11NegateValuePN4llvm5ValueEPNS_11InstructionERNS_9SetVectorINS_11AssertingVHIS2_EENSt3__16vectorIS6_NS7_9allocatorIS6_EEEENS_8DenseSetIS6_NS_12DenseMapInfoIS6_EEEEEE
__ZN4llvm14BinaryOperator9CreateNegEPNS_5ValueERKNS_5TwineEPNS_11InstructionE
__ZN12_GLOBAL__N_111Reassociate9EraseInstEPN4llvm11InstructionE
__ZN4llvm13SmallDenseMapIPNS_10BasicBlockEjLj16ENS_12DenseMapInfoIS2_EENS_6detail12DenseMapPairIS2_jEEE4growEj
__ZN4llvm12DenseMapBaseINS_13SmallDenseMapIPNS_10BasicBlockEjLj16ENS_12DenseMapInfoIS3_EENS_6detail12DenseMapPairIS3_jEEEES3_jS5_S8_E18moveFromOldBucketsEPS8_SB_
__ZN4llvm12DenseMapBaseINS_8DenseMapIPNS_10BasicBlockEPS3_NS_12DenseMapInfoIS3_EENS_6detail12DenseMapPairIS3_S4_EEEES3_S4_S6_S9_E18moveFromOldBucketsEPS9_SC_
__ZN4llvm27MergeBasicBlockIntoOnlyPredEPNS_10BasicBlockEPNS_13DominatorTreeE
__ZL10isSelect01PN4llvm8ConstantES1_
__ZN4llvm12DenseMapBaseINS_8DenseMapIPNS_4LoopEPNS_15AliasSetTrackerENS_12DenseMapInfoIS3_EENS_6detail12DenseMapPairIS3_S5_EEEES3_S5_S7_SA_E20InsertIntoBucketImplERKS3_PSA_
__ZN4llvm8DenseMapIPNS_4LoopEPNS_15AliasSetTrackerENS_12DenseMapInfoIS2_EENS_6detail12DenseMapPairIS2_S4_EEE4growEj
__ZN4llvm9AAResults13getModRefInfoENS_17ImmutableCallSiteES1_
__ZN4llvm9AAResults5ModelINS_13BasicAAResultEE13getModRefInfoENS_17ImmutableCallSiteES4_
__ZN4llvm9AAResults5ModelINS_21ScopedNoAliasAAResultEE13getModRefInfoENS_17ImmutableCallSiteES4_
__ZN4llvm9AAResults5ModelINS_17TypeBasedAAResultEE13getModRefInfoENS_17ImmutableCallSiteES4_
__ZN4llvm9AAResults5ModelINS_15GlobalsAAResultEE13getModRefInfoENS_17ImmutableCallSiteES4_
__ZN4llvm15ScalarEvolution10forgetLoopEPKNS_4LoopE
__ZN4llvm15ScalarEvolution24createNodeForSelectOrPHIEPNS_11InstructionEPNS_5ValueES4_S4_
__ZNK4llvm13ConstantRange4udivERKS0_
__ZN4llvm8LoopInfo29replacementPreservesLCSSAFormEPNS_11InstructionEPNS_5ValueE
__ZN4llvm8DenseMapIPNS_10BasicBlockEjNS_12DenseMapInfoIS2_EENS_6detail12DenseMapPairIS2_jEEE16shrink_and_clearEv
__ZN4llvm12InstCombiner13visitIntToPtrERNS_12IntToPtrInstE
__ZN4llvm12IntToPtrInstD0Ev
__ZL22isTrivialLoopExitBlockPN4llvm4LoopEPNS_10BasicBlockE
__ZL28isTrivialLoopExitBlockHelperPN4llvm4LoopEPNS_10BasicBlockERS3_RNSt3__13setIS3_NS5_4lessIS3_EENS5_9allocatorIS3_EEEE
__ZNSt3__16__treeIPN4llvm10BasicBlockENS_4lessIS3_EENS_9allocatorIS3_EEE15__insert_uniqueERKS3_
__ZN12_GLOBAL__N_118LoopIdiomRecognize23processLoopStridedStoreEPN4llvm5ValueEjjS3_PNS1_11InstructionEPKNS1_14SCEVAddRecExprEPKNS1_4SCEVEb
__ZN4llvm12SCEVExpander14expandAddToGEPEPKPKNS_4SCEVES5_PNS_11PointerTypeEPNS_4TypeEPNS_5ValueE
__ZL17FactorOutConstantRPKN4llvm4SCEVES3_S2_RNS_15ScalarEvolutionERKNS_10DataLayoutE
__ZNK4llvm5APInt4sremERKS0_
__ZL19SimplifyAddOperandsRN4llvm15SmallVectorImplIPKNS_4SCEVEEEPNS_4TypeERNS_15ScalarEvolutionE
__ZN4llvm12SCEVExpander17ReuseOrCreateCastEPNS_5ValueEPNS_4TypeENS_11Instruction7CastOpsENS_14ilist_iteratorIS5_EE
__ZL30AnalyzeLoadFromClobberingWritePN4llvm4TypeEPNS_5ValueES3_yRKNS_10DataLayoutE
__ZL19GetLoadValueForLoadPN4llvm8LoadInstEjPNS_4TypeEPNS_11InstructionERN12_GLOBAL__N_13GVNE
__ZL20GetStoreValueForLoadPN4llvm5ValueEjPNS_4TypeEPNS_11InstructionERKNS_10DataLayoutE
__ZL30CoerceAvailableValueToLoadTypePN4llvm5ValueEPNS_4TypeERNS_9IRBuilderINS_14ConstantFolderENS_24IRBuilderDefaultInserterEEERKNS_10DataLayoutE
__ZN12_GLOBAL__N_19MemCpyOpt20tryMergingIntoMemsetEPN4llvm11InstructionEPNS1_5ValueES5_
__ZL15IsPointerOffsetPN4llvm5ValueES1_RxRKNS_10DataLayoutE
__ZNK4llvm14SCEVAddRecExpr19evaluateAtIterationEPKNS_4SCEVERNS_15ScalarEvolutionE
__ZL12AlmostDeadIVPN4llvm7PHINodeEPNS_10BasicBlockEPNS_5ValueE
__ZN4llvm8DenseMapIPNS_5ValueEjNS_12DenseMapInfoIS2_EENS_6detail12DenseMapPairIS2_jEEE16shrink_and_clearEv
__ZN4llvm12InstCombiner13visitPtrToIntERNS_12PtrToIntInstE
__ZN4llvm12PtrToIntInstD0Ev
__ZL21isGuaranteedToExecuteRKN4llvm11InstructionEPKNS_13DominatorTreeEPKNS_4LoopEPKNS_14LICMSafetyInfoE
__ZN4llvm8DenseMapINS_18ValueMapCallbackVHIPKNS_5ValueENS_6WeakVHENS_14ValueMapConfigIS4_NS_3sys10SmartMutexILb0EEEEEEES5_NS_12DenseMapInfoISB_EENS_6detail12DenseMapPairISB_S5_EEE4growEj
__ZL14matchConditionPN4llvm10BranchInstEPNS_10BasicBlockE
__ZN4llvm9SetVectorIPNS_11InstructionENS_11SmallVectorIS2_Lj16EEENS_8SmallSetIS2_Lj16ENSt3__14lessIS2_EEEEE6insertERKS2_
__ZZN12_GLOBAL__N_17WidenIV21cloneArithmeticIVUserENS_14NarrowIVDefUseEPKN4llvm14SCEVAddRecExprEENK3$_1clEb
__ZNSt3__127__insertion_sort_incompleteIRNS_6__lessIN4llvm16NonLocalDepEntryES3_EEPS3_EEbT0_S7_T_
__ZL23getStoredPointerOperandPN4llvm11InstructionE
__ZNK4llvm5APInt4rotlEj
__ZN4llvm12PatternMatch14BinaryOp_matchINS0_14specificval_tyENS0_11apint_matchELj26EE5matchINS_5ValueEEEbPT_
__ZN4llvm12PatternMatch14BinaryOp_matchINS0_14specificval_tyENS0_11apint_matchELj27EE5matchINS_5ValueEEEbPT_
__ZN4llvm9IRBuilderINS_12TargetFolderENS_21InstCombineIRInserterEE9CreateNegEPNS_5ValueERKNS_5TwineEbb
__ZN4llvm12PatternMatch14BinaryOp_matchINS0_14specificval_tyENS0_11apint_matchELj28EE5matchINS_5ValueEEEbPT_
__ZN4llvm8DenseMapIPNS_10BasicBlockEPNS_5ValueENS_12DenseMapInfoIS2_EENS_6detail12DenseMapPairIS2_S4_EEE16shrink_and_clearEv
__ZN4llvm23ObjectSizeOffsetVisitor13visitCallSiteENS_8CallSiteE
__ZL18IsAvailableOnEntryPKN4llvm4LoopERNS_13DominatorTreeEPKNS_4SCEVEPNS_10BasicBlockE
__ZN4llvm13SCEVTraversalIZL18IsAvailableOnEntryPKNS_4LoopERNS_13DominatorTreeEPKNS_4SCEVEPNS_10BasicBlockEE14CheckAvailableE4pushES8_
__ZN4llvm15AliasSetTracker11deleteValueEPNS_5ValueE
__ZN12_GLOBAL__N_113JumpThreading32DuplicateCondBranchOnPHIIntoPredEPN4llvm10BasicBlockERKNS1_15SmallVectorImplIS3_EE
__ZL20RemoveFromReverseMapIPN4llvm11InstructionEEvRNS0_8DenseMapIS2_NS0_11SmallPtrSetIT_Lj4EEENS0_12DenseMapInfoIS2_EENS0_6detail12DenseMapPairIS2_S6_EEEES2_S5_
__ZNK4llvm8Constant10isOneValueEv
__ZN4llvm25SplitBlockAndInsertIfThenEPNS_5ValueEPNS_11InstructionEbPNS_6MDNodeEPNS_13DominatorTreeEPNS_8LoopInfoE
__ZN4llvm19ReplaceInstWithInstERNS_15SymbolTableListINS_11InstructionEEERNS_14ilist_iteratorIS1_EEPS1_
__ZN12_GLOBAL__N_114LVIValueHandle19allUsesReplacedWithEPN4llvm5ValueE
__ZN12_GLOBAL__N_114LVIValueHandle7deletedEv
__ZN4llvm12DenseMapBaseINS_13SmallDenseMapIPNS_7PHINodeEPNS_8ConstantELj4ENS_12DenseMapInfoIS3_EENS_6detail12DenseMapPairIS3_S5_EEEES3_S5_S7_SA_E20InsertIntoBucketImplERKS3_PSA_
__ZN4llvm19TargetTransformInfo5ModelINS_14AArch64TTIImplEE11isTypeLegalEPNS_4TypeE
__ZN4llvm13ConstantArray3getEPNS_9ArrayTypeENS_8ArrayRefIPNS_8ConstantEEE
__ZN4llvm13ConstantArray7getImplEPNS_9ArrayTypeENS_8ArrayRefIPNS_8ConstantEEE
__ZN4llvm9IRBuilderINS_14ConstantFolderENS_24IRBuilderDefaultInserterEE17CreateInBoundsGEPEPNS_4TypeEPNS_5ValueENS_8ArrayRefIS7_EERKNS_5TwineE
__ZN4llvm9IRBuilderINS_14ConstantFolderENS_24IRBuilderDefaultInserterEE10CreateLoadEPNS_5ValueEPKc
__ZL13truncateIVUseN12_GLOBAL__N_114NarrowIVDefUseEPN4llvm13DominatorTreeEPNS1_8LoopInfoE
__ZN4llvm15ScalarEvolution11getUMaxExprERNS_15SmallVectorImplIPKNS_4SCEVEEE
__ZN12_GLOBAL__N_114CapturesBefore8capturedEPKN4llvm3UseE
__ZN4llvm23SmallVectorTemplateBaseINS_6WeakVHELb0EE4growEm
__ZN4llvm17replaceDbgDeclareEPNS_5ValueES1_PNS_11InstructionERNS_9DIBuilderEbi
__ZL22isUsedByLifetimeMarkerPN4llvm5ValueE
__ZN4llvm15AliasSetTracker9copyValueEPNS_5ValueES2_
__ZN4llvm8DenseMapIPNS_11InstructionENS_11SmallPtrSetIS2_Lj4EEENS_12DenseMapInfoIS2_EENS_6detail12DenseMapPairIS2_S4_EEE16shrink_and_clearEv
__ZNK4llvm20LoadAndStorePromoter3runERKNS_15SmallVectorImplIPNS_11InstructionEEE
__ZN4llvm12DenseMapBaseINS_8DenseMapIPNS_10BasicBlockENS_13TinyPtrVectorIPNS_11InstructionEEENS_12DenseMapInfoIS3_EENS_6detail12DenseMapPairIS3_S7_EEEES3_S7_S9_SC_E20InsertIntoBucketImplERKS3_PSC_
__ZN4llvm8DenseMapIPNS_10BasicBlockENS_13TinyPtrVectorIPNS_11InstructionEEENS_12DenseMapInfoIS2_EENS_6detail12DenseMapPairIS2_S6_EEE4growEj
__ZNK12_GLOBAL__N_112LoopPromoter12isInstInListEPN4llvm11InstructionERKNS1_15SmallVectorImplIS3_EE
__ZNK4llvm20LoadAndStorePromoter15updateDebugInfoEPNS_11InstructionE
__ZNK12_GLOBAL__N_112LoopPromoter20replaceLoadWithValueEPN4llvm8LoadInstEPNS1_5ValueE
__ZNK12_GLOBAL__N_112LoopPromoter34doExtraRewritesBeforeFinalDeletionEv
__ZNK12_GLOBAL__N_112LoopPromoter19maybeInsertLCSSAPHIEPN4llvm5ValueEPNS1_10BasicBlockE
__ZNK12_GLOBAL__N_112LoopPromoter18instructionDeletedEPN4llvm11InstructionE
__ZN4llvm11Instruction16removeFromParentEv
__ZN4llvm10BranchInstC1EPNS_10BasicBlockES2_PNS_5ValueES2_
__ZN4llvm12DenseMapBaseINS_8DenseMapIN12_GLOBAL__N_19CallValueEPNS_18ScopedHashTableValIS3_NSt3__14pairIPNS_5ValueEjEEEENS_12DenseMapInfoIS3_EENS_6detail12DenseMapPairIS3_SB_EEEES3_SB_SD_SG_E15LookupBucketForIS3_EEbRKT_RPSG_
__ZN4llvm8DenseMapIPKNS_4SCEVENS_11SmallVectorINSt3__14pairIPKNS_4LoopES3_EELj2EEENS_12DenseMapInfoIS3_EENS_6detail12DenseMapPairIS3_SB_EEE4growEj
__ZN4llvm15SmallVectorImplINSt3__14pairIPKNS_4LoopEPKNS_4SCEVEEEEaSEOSA_
__ZN4llvm8DenseMapIPKNS_4SCEVENS_11SmallVectorINS_14PointerIntPairIPKNS_4LoopELj2ENS_15ScalarEvolution15LoopDispositionENS_21PointerLikeTypeTraitsIS8_EENS_18PointerIntPairInfoIS8_Lj2ESC_EEEELj2EEENS_12DenseMapInfoIS3_EENS_6detail12DenseMapPairIS3_SG_EEE4growEj
__ZN4llvm15SmallVectorImplINS_14PointerIntPairIPKNS_4LoopELj2ENS_15ScalarEvolution15LoopDispositionENS_21PointerLikeTypeTraitsIS4_EENS_18PointerIntPairInfoIS4_Lj2ES8_EEEEEaSEOSC_
__ZN4llvm11ConstantInt8getFalseEPNS_4TypeE
__ZN4llvm8CastInst22CreateBitOrPointerCastEPNS_5ValueEPNS_4TypeERKNS_5TwineEPNS_11InstructionE
__ZN4llvm12DenseMapBaseINS_8DenseMapIPNS_11InstructionEPNS_8ConstantENS_12DenseMapInfoIS3_EENS_6detail12DenseMapPairIS3_S5_EEEES3_S5_S7_SA_E20InsertIntoBucketImplERKS3_PSA_
__ZN4llvm8DenseMapIPNS_11InstructionEPNS_8ConstantENS_12DenseMapInfoIS2_EENS_6detail12DenseMapPairIS2_S4_EEE4growEj
__ZN4llvm15ScalarEvolution19getNoopOrSignExtendEPKNS_4SCEVEPNS_4TypeE
__ZN12_GLOBAL__N_114CapturesBefore11tooManyUsesEv
__ZN12_GLOBAL__N_19MemCpyOpt20performCallSlotOptznEPN4llvm11InstructionEPNS1_5ValueES5_yjPNS1_8CallInstE
__ZL18GetOffsetFromIndexPKN4llvm11GEPOperatorEjRbRKNS_10DataLayoutE
__ZN12_GLOBAL__N_112MemsetRanges8addRangeExxPN4llvm5ValueEjPNS1_11InstructionE
__ZN4llvm13IRBuilderBase12CreateMemCpyEPNS_5ValueES2_S2_jbPNS_6MDNodeES4_S4_S4_
__ZN4llvm24MemoryDependenceAnalysis25getCallSiteDependencyFromENS_8CallSiteEbNS_14ilist_iteratorINS_11InstructionEEEPNS_10BasicBlockE
__ZN4llvm16CallGraphSCCPass14doFinalizationERNS_9CallGraphE
__ZN4llvm7Inliner14doFinalizationERNS_9CallGraphE
__ZN4llvm13CallGraphNode19removeAnyCallEdgeToEPS0_
__ZN12_GLOBAL__N_128EliminateAvailableExternally11runOnModuleERN4llvm6ModuleE
__ZN12_GLOBAL__N_129ReversePostOrderFunctionAttrs11runOnModuleERN4llvm6ModuleE
__ZN12_GLOBAL__N_19Float2Int13runOnFunctionERN4llvm8FunctionE
__ZNSt3__16__treeIN4llvm18EquivalenceClassesIPNS1_11InstructionEE7ECValueENS_4lessIS6_EENS_9allocatorIS6_EEE7destroyEPNS_11__tree_nodeIS6_PvEE
__ZN4llvm18LoopAccessAnalysis13runOnFunctionERNS_8FunctionE
__ZN12_GLOBAL__N_114LoopDistribute13runOnFunctionERN4llvm8FunctionE
__ZN4llvm11depth_firstIPNS_4LoopEEENS_14iterator_rangeINS_11df_iteratorIT_NS_11SmallPtrSetIPNS_11GraphTraitsIS5_E8NodeTypeELj8EEELb0ES8_EEEERKS5_
__ZNSt3__16vectorINS_4pairIN4llvm14PointerIntPairIPNS2_4LoopELj1EjNS2_21PointerLikeTypeTraitsIS5_EENS2_18PointerIntPairInfoIS5_Lj1ES7_EEEENS_11__wrap_iterIPKS5_EEEENS_9allocatorISF_EEE21__push_back_slow_pathISF_EEvOT_
__ZN4llvm10make_rangeINS_11df_iteratorIPNS_20MachineDominatorTreeENS_11SmallPtrSetIPNS_15DomTreeNodeBaseINS_17MachineBasicBlockEEELj8EEELb0ENS_11GraphTraitsIS3_EEEEEENS_14iterator_rangeIT_EESE_SE_
__ZN4llvm11df_iteratorIPNS_4LoopENS_11SmallPtrSetIS2_Lj8EEELb0ENS_11GraphTraitsIS2_EEE6toNextEv
__ZN4llvm18LoopAccessAnalysis13releaseMemoryEv
__ZN4llvm32BranchProbabilityInfoWrapperPass13runOnFunctionERNS_8FunctionE
__ZN4llvm21BranchProbabilityInfo9calculateERKNS_8FunctionERKNS_8LoopInfoE
__ZNK4llvm12DenseMapBaseINS_8DenseMapINSt3__14pairIPKNS_10BasicBlockEjEENS_17BranchProbabilityENS_12DenseMapInfoIS7_EENS_6detail12DenseMapPairIS7_S8_EEEES7_S8_SA_SD_E15LookupBucketForIS7_EEbRKT_RPKSD_
__ZN4llvm12DenseMapBaseINS_8DenseMapINSt3__14pairIPKNS_10BasicBlockEjEENS_17BranchProbabilityENS_12DenseMapInfoIS7_EENS_6detail12DenseMapPairIS7_S8_EEEES7_S8_SA_SD_E20InsertIntoBucketImplERKS7_PSD_
__ZN4llvm8DenseMapINSt3__14pairIPKNS_10BasicBlockEjEENS_17BranchProbabilityENS_12DenseMapInfoIS6_EENS_6detail12DenseMapPairIS6_S7_EEE4growEj
__ZN4llvm29BlockFrequencyInfoWrapperPass13runOnFunctionERNS_8FunctionE
__ZN4llvm22BlockFrequencyInfoImplINS_10BasicBlockEE9calculateERKNS_8FunctionERKNS_21BranchProbabilityInfoERKNS_8LoopInfoE
__ZNSt3__110__list_impIN4llvm26BlockFrequencyInfoImplBase8LoopDataENS_9allocatorIS3_EEE5clearEv
__ZN4llvm12DenseMapBaseINS_8DenseMapIPKNS_10BasicBlockENS_26BlockFrequencyInfoImplBase9BlockNodeENS_12DenseMapInfoIS4_EENS_6detail12DenseMapPairIS4_S6_EEEES4_S6_S8_SB_E20InsertIntoBucketImplERKS4_PSB_
__ZN4llvm8DenseMapIPKNS_10BasicBlockENS_26BlockFrequencyInfoImplBase9BlockNodeENS_12DenseMapInfoIS3_EENS_6detail12DenseMapPairIS3_S5_EEE4growEj
__ZNSt3__16vectorIN4llvm26BlockFrequencyInfoImplBase13FrequencyDataENS_9allocatorIS3_EEE8__appendEm
__ZNSt3__15dequeINS_4pairIPKN4llvm4LoopEPNS2_26BlockFrequencyInfoImplBase8LoopDataEEENS_9allocatorIS9_EEE19__add_back_capacityEv
__ZNK4llvm26BlockFrequencyInfoImplBase11WorkingData18isDoubleLoopHeaderEv
__ZN4llvm22BlockFrequencyInfoImplINS_10BasicBlockEE17computeMassInLoopERNS_26BlockFrequencyInfoImplBase8LoopDataE
__ZN4llvm22BlockFrequencyInfoImplINS_10BasicBlockEE25propagateMassToSuccessorsEPNS_26BlockFrequencyInfoImplBase8LoopDataERKNS3_9BlockNodeE
__ZNK4llvm21BranchProbabilityInfo18getEdgeProbabilityEPKNS_10BasicBlockEj
__ZN4llvm26BlockFrequencyInfoImplBase9addToDistERNS0_12DistributionEPKNS0_8LoopDataERKNS0_9BlockNodeES8_y
__ZN4llvm26BlockFrequencyInfoImplBase14distributeMassERKNS0_9BlockNodeEPNS0_8LoopDataERNS0_12DistributionE
__ZN4llvm26BlockFrequencyInfoImplBase12Distribution9normalizeEv
__ZNSt3__16__sortIRZL23combineWeightsBySortingRN4llvm11SmallVectorINS1_26BlockFrequencyInfoImplBase6WeightELj4EEEE3$_1PS4_EEvT0_SA_T_
__ZN4llvm26BlockFrequencyInfoImplBase16computeLoopScaleERNS0_8LoopDataE
__ZN4llvmdvIyEENS_12ScaledNumberIT_EERKS3_S5_
__ZN4llvm22BlockFrequencyInfoImplINS_10BasicBlockEE26tryToComputeMassInFunctionEv
__ZN4llvm26BlockFrequencyInfoImplBase11unwrapLoopsEv
__ZN4llvmmlIyEENS_12ScaledNumberIT_EERKS3_S5_
__ZN4llvm26BlockFrequencyInfoImplBase15finalizeMetricsEv
__ZN4llvm13ScaledNumbers7compareIyEEiT_sS2_s
__ZN12_GLOBAL__N_113LoopVectorize13runOnFunctionERN4llvm8FunctionE
__ZN4llvm19TargetTransformInfo5ModelINS_14AArch64TTIImplEE20getNumberOfRegistersEb
__ZN12_GLOBAL__N_1L12addInnerLoopERN4llvm4LoopERNS0_15SmallVectorImplIPS1_EE
__ZN12_GLOBAL__N_113LoopVectorize11processLoopEPN4llvm4LoopE
__ZN12_GLOBAL__N_118LoopVectorizeHintsC1EPKN4llvm4LoopEb
__ZN4llvm15ScalarEvolution25getSmallConstantTripCountEPNS_4LoopE
__ZN12_GLOBAL__N_125LoopVectorizationLegality12canVectorizeEv
__ZN4llvm16LoopAccessReport12emitAnalysisERKS0_PKNS_8FunctionEPKNS_4LoopEPKc
__ZNK4llvm4Loop11getStartLocEv
__ZN12_GLOBAL__N_1L17emitMissedWarningEPN4llvm8FunctionEPNS0_4LoopERKNS_18LoopVectorizeHintsE
__ZNK12_GLOBAL__N_118LoopVectorizeHints10emitRemarkEv
__ZN12_GLOBAL__N_125LoopVectorizationLegality16isConsecutivePtrEPN4llvm5ValueE
__ZN4llvm22getGEPInductionOperandEPKNS_17GetElementPtrInstE
__ZN4llvm25PredicatedScalarEvolution7getSCEVEPNS_5ValueE
__ZN4llvm8DenseMapIPKNS_4SCEVENSt3__14pairIjS3_EENS_12DenseMapInfoIS3_EENS_6detail12DenseMapPairIS3_S6_EEE4growEj
__ZN4llvm11SCEVVisitorIN12_GLOBAL__N_121SCEVPredicateRewriterEPKNS_4SCEVEE5visitES5_
__ZN4llvm29BlockFrequencyInfoWrapperPass13releaseMemoryEv
__ZN4llvm22BlockFrequencyInfoImplINS_10BasicBlockEED0Ev
__ZN4llvm32BranchProbabilityInfoWrapperPass13releaseMemoryEv
__ZN12_GLOBAL__N_119LoopLoadElimination13runOnFunctionERN4llvm8FunctionE
__ZN4llvm18LoopAccessAnalysis7getInfoEPNS_4LoopERKNS_8DenseMapIPKNS_5ValueEPS4_NS_12DenseMapInfoIS6_EENS_6detail12DenseMapPairIS6_S7_EEEE
__ZN4llvm8DenseMapIPNS_4LoopENSt3__110unique_ptrINS_14LoopAccessInfoENS3_14default_deleteIS5_EEEENS_12DenseMapInfoIS2_EENS_6detail12DenseMapPairIS2_S8_EEE4growEj
__ZN4llvm14LoopAccessInfoC2EPNS_4LoopEPNS_15ScalarEvolutionERKNS_10DataLayoutEPKNS_17TargetLibraryInfoEPNS_9AAResultsEPNS_13DominatorTreeEPNS_8LoopInfoERKNS_8DenseMapIPKNS_5ValueEPSI_NS_12DenseMapInfoISK_EENS_6detail12DenseMapPairISK_SL_EEEE
__ZN12_GLOBAL__N_113SLPVectorizer13runOnFunctionERN4llvm8FunctionE
__ZN4llvm9MapVectorIPNS_5ValueENS_11SmallVectorIPNS_9StoreInstELj8EEENS_8DenseMapIS2_jNS_12DenseMapInfoIS2_EENS_6detail12DenseMapPairIS2_jEEEENSt3__16vectorINSE_4pairIS2_S6_EENSE_9allocatorISH_EEEEE5clearEv
__ZN4llvm9MapVectorIPNS_5ValueENS_11SmallVectorINS_6WeakVHELj8EEENS_8DenseMapIS2_jNS_12DenseMapInfoIS2_EENS_6detail12DenseMapPairIS2_jEEEENSt3__16vectorINSD_4pairIS2_S5_EENSD_9allocatorISG_EEEEE5clearEv
__ZN4llvm19TargetTransformInfo5ModelINS_14AArch64TTIImplEE19getRegisterBitWidthEb
__ZNSt3__113__stable_sortIRPFbPN4llvm5ValueES3_EPS3_EEvT0_S8_T_NS_15iterator_traitsIS8_E15difference_typeEPNSB_10value_typeEl
__ZN12_GLOBAL__N_113SLPVectorizer18tryToVectorizeListEN4llvm8ArrayRefIPNS1_5ValueEEERNS_7BoUpSLPES5_b
__ZN12_GLOBAL__N_17BoUpSLP20getVectorElementSizeEPN4llvm5ValueE
__ZN12_GLOBAL__N_1L17PhiTypeSorterFuncEPN4llvm5ValueES2_
__ZN12_GLOBAL__N_1L27canMatchHorizontalReductionEPN4llvm7PHINodeEPNS0_14BinaryOperatorERNS_7BoUpSLPEPNS0_19TargetTransformInfoE
__ZN12_GLOBAL__N_113SLPVectorizer14tryToVectorizeEPN4llvm14BinaryOperatorERNS_7BoUpSLPE
__ZN12_GLOBAL__N_124AlignmentFromAssumptions13runOnFunctionERN4llvm8FunctionE
__ZN12_GLOBAL__N_17BoUpSLP9buildTreeEN4llvm8ArrayRefIPNS1_5ValueEEES5_
__ZN12_GLOBAL__N_17BoUpSLP13buildTree_recEN4llvm8ArrayRefIPNS1_5ValueEEEj
__ZN12_GLOBAL__N_1L13getSameOpcodeEN4llvm8ArrayRefIPNS0_5ValueEEE
__ZNSt3__14pairIPN4llvm10BasicBlockENS_10unique_ptrIN12_GLOBAL__N_17BoUpSLP15BlockSchedulingENS_14default_deleteIS7_EEEEED1Ev
__ZN12_GLOBAL__N_17BoUpSLP15BlockScheduling15getScheduleDataEPN4llvm5ValueE
__ZN4llvm12DenseMapBaseINS_8DenseMapIPNS_5ValueEPN12_GLOBAL__N_17BoUpSLP12ScheduleDataENS_12DenseMapInfoIS3_EENS_6detail12DenseMapPairIS3_S7_EEEES3_S7_S9_SC_E20InsertIntoBucketImplERKS3_PSC_
__ZN12_GLOBAL__N_17BoUpSLP15BlockScheduling16initScheduleDataEPN4llvm11InstructionES4_PNS0_12ScheduleDataES6_
__ZN12_GLOBAL__N_17BoUpSLP15BlockScheduling21calculateDependenciesEPNS0_12ScheduleDataEbPS0_
__ZN12_GLOBAL__N_17BoUpSLP19isConsecutiveAccessEPN4llvm5ValueES3_RKNS1_10DataLayoutE
__ZN12_GLOBAL__N_17BoUpSLP12newTreeEntryEN4llvm8ArrayRefIPNS1_5ValueEEEb
__ZN12_GLOBAL__N_17BoUpSLP11getTreeCostEv
__ZN4llvm19InductionDescriptor14isInductionPHIEPNS_7PHINodeEPNS_15ScalarEvolutionERS0_
__ZN4llvm9MapVectorIPNS_7PHINodeENS_19InductionDescriptorENS_8DenseMapIS2_jNS_12DenseMapInfoIS2_EENS_6detail12DenseMapPairIS2_jEEEENSt3__16vectorINSB_4pairIS2_S3_EENSB_9allocatorISE_EEEEEixERKS2_
__ZL18hasOutsideLoopUserPKN4llvm4LoopEPNS_11InstructionERNS_15SmallPtrSetImplIPNS_5ValueEEE
__ZN12_GLOBAL__N_125LoopVectorizationLegality20collectStridedAccessEPN4llvm5ValueE
__ZN4llvm12DenseMapBaseINS_8DenseMapINS_14PointerIntPairIPNS_5ValueELj1EbNS_21PointerLikeTypeTraitsIS4_EENS_18PointerIntPairInfoIS4_Lj1ES6_EEEENSt3__16vectorIjNSA_9allocatorIjEEEENS_12DenseMapInfoIS9_EENS_6detail12DenseMapPairIS9_SE_EEEES9_SE_SG_SJ_E20InsertIntoBucketImplERKS9_PSJ_
__ZN4llvm9SetVectorINS_14PointerIntPairIPNS_5ValueELj1EbNS_21PointerLikeTypeTraitsIS3_EENS_18PointerIntPairInfoIS3_Lj1ES5_EEEENSt3__16vectorIS8_NS9_9allocatorIS8_EEEENS_8DenseSetIS8_NS_12DenseMapInfoIS8_EEEEE6insertERKS8_
__ZN4llvm8DenseMapINS_14PointerIntPairIPNS_5ValueELj1EbNS_21PointerLikeTypeTraitsIS3_EENS_18PointerIntPairInfoIS3_Lj1ES5_EEEENS_6detail13DenseSetEmptyENS_12DenseMapInfoIS8_EENS9_12DenseSetPairIS8_EEE4growEj
__ZNSt3__16__treeIN4llvm18EquivalenceClassesINS1_14PointerIntPairIPNS1_5ValueELj1EbNS1_21PointerLikeTypeTraitsIS5_EENS1_18PointerIntPairInfoIS5_Lj1ES7_EEEEE7ECValueENS_4lessISC_EENS_9allocatorISC_EEE7destroyEPNS_11__tree_nodeISC_PvEE
__ZN4llvm25PredicatedScalarEvolution12addPredicateERKNS_13SCEVPredicateE
__ZNK4llvm18SCEVUnionPredicate7impliesEPKNS_13SCEVPredicateE
__ZNSt3__16vectorIPN4llvm5ValueENS_9allocatorIS3_EEE6insertIPNS1_3UseEEENS_9enable_ifIXaasr21__is_forward_iteratorIT_EE5valuesr16is_constructibleIS3_NS_15iterator_traitsISB_E9referenceEEE5valueENS_11__wrap_iterIPS3_EEE4typeENSF_IPKS3_EESB_SB_
__ZN4llvm19TargetTransformInfo5ModelINS_14AArch64TTIImplEE36enableInterleavedAccessVectorizationEv
__ZN4llvm12isStridedPtrERNS_25PredicatedScalarEvolutionEPNS_5ValueEPKNS_4LoopERKNS_8DenseMapIPKS2_S3_NS_12DenseMapInfoIS9_EENS_6detail12DenseMapPairIS9_S3_EEEE
__ZN4llvm25replaceSymbolicStrideSCEVERNS_25PredicatedScalarEvolutionERKNS_8DenseMapIPKNS_5ValueEPS3_NS_12DenseMapInfoIS5_EENS_6detail12DenseMapPairIS5_S6_EEEES6_S6_
__ZNSt3__16__treeIN4llvm18EquivalenceClassesIPNS1_5ValueEE7ECValueENS_4lessIS6_EENS_9allocatorIS6_EEE7destroyEPNS_11__tree_nodeIS6_PvEE
__ZN12_GLOBAL__N_126LoopVectorizationCostModel12expectedCostEj
__ZN4llvm19TargetTransformInfo5ModelINS_14AArch64TTIImplEE25getAddressComputationCostEPNS_4TypeEb
__ZN4llvm19TargetTransformInfo5ModelINS_14AArch64TTIImplEE15getMemoryOpCostEjPNS_4TypeEjj
__ZN4llvm14AArch64TTIImpl15getMemoryOpCostEjPNS_4TypeEjj
__ZN4llvm19TargetTransformInfo5ModelINS_14AArch64TTIImplEE16getCastInstrCostEjPNS_4TypeES5_
__ZN4llvm14AArch64TTIImpl16getCastInstrCostEjPNS_4TypeES2_
__ZN4llvm16BasicTTIImplBaseINS_14AArch64TTIImplEE16getCastInstrCostEjPNS_4TypeES4_
__ZNK4llvm21AArch64TargetLowering14isTruncateFreeENS_3EVTES1_
__ZN4llvm19TargetTransformInfo5ModelINS_14AArch64TTIImplEE18getCmpSelInstrCostEjPNS_4TypeES5_
__ZN4llvm14AArch64TTIImpl18getCmpSelInstrCostEjPNS_4TypeES2_
__ZN4llvm19TargetTransformInfo5ModelINS_14AArch64TTIImplEE14getCFInstrCostEj
__ZN4llvm10VectorType3getEPNS_4TypeEj
__ZNK4llvm12DenseMapBaseINS_8DenseMapINSt3__14pairIPNS_4TypeEjEEPNS_10VectorTypeENS_12DenseMapInfoIS6_EENS_6detail12DenseMapPairIS6_S8_EEEES6_S8_SA_SD_E15LookupBucketForIS6_EEbRKT_RPKSD_
__ZN4llvm8DenseMapINSt3__14pairIPNS_4TypeEjEEPNS_10VectorTypeENS_12DenseMapInfoIS5_EENS_6detail12DenseMapPairIS5_S7_EEE4growEj
__ZN12_GLOBAL__N_126LoopVectorizationCostModel22calculateRegisterUsageERKN4llvm11SmallVectorIjLj8EEE
__ZN4llvm13LoopBlocksDFSC2EPNS_4LoopE
__ZN4llvm13LoopBlocksDFS7performEPNS_8LoopInfoE
__ZN4llvm12po_ext_beginIPNS_10BasicBlockENS_19LoopBlocksTraversalEEENS_15po_ext_iteratorIT_T0_EES5_RS6_
__ZN4llvm19LoopBlocksTraversal13visitPreorderEPNS_10BasicBlockE
__ZN4llvm11po_iteratorIPNS_10BasicBlockENS_19LoopBlocksTraversalELb1ENS_11GraphTraitsIS2_EEE13traverseChildEv
__ZN4llvm11po_iteratorIPNS_10BasicBlockENS_19LoopBlocksTraversalELb1ENS_11GraphTraitsIS2_EEEppEv
__ZN4llvm12DenseMapBaseINS_8DenseMapIjPNS_11InstructionENS_12DenseMapInfoIjEENS_6detail12DenseMapPairIjS3_EEEEjS3_S5_S8_E20InsertIntoBucketImplERKjPS8_
__ZN4llvm8DenseMapIjPNS_11InstructionENS_12DenseMapInfoIjEENS_6detail12DenseMapPairIjS2_EEE4growEj
__ZN4llvm12DenseMapBaseINS_8DenseMapIjNS_11SmallVectorIPNS_11InstructionELj2EEENS_12DenseMapInfoIjEENS_6detail12DenseMapPairIjS5_EEEEjS5_S7_SA_E16FindAndConstructERKj
__ZN4llvm8DenseMapIjNS_11SmallVectorIPNS_11InstructionELj2EEENS_12DenseMapInfoIjEENS_6detail12DenseMapPairIjS4_EEE4growEj
__ZN4llvm19TargetTransformInfo5ModelINS_14AArch64TTIImplEE22getMaxInterleaveFactorEj
__ZN12_GLOBAL__N_119InnerLoopVectorizer9vectorizeEPNS_25LoopVectorizationLegalityEN4llvm9MapVectorIPNS3_11InstructionEyNS3_8DenseMapIS6_jNS3_12DenseMapInfoIS6_EENS3_6detail12DenseMapPairIS6_jEEEENSt3__16vectorINSE_4pairIS6_yEENSE_9allocatorISH_EEEEEE
__ZN12_GLOBAL__N_119InnerLoopVectorizer20getOrCreateTripCountEPN4llvm4LoopE
__ZN12_GLOBAL__N_119InnerLoopVectorizer26getOrCreateVectorTripCountEPN4llvm4LoopE
__ZN4llvm9IRBuilderINS_14ConstantFolderENS_24IRBuilderDefaultInserterEE10CreateURemEPNS_5ValueES5_RKNS_5TwineE
__ZN4llvm12SCEVExpander20expandUnionPredicateEPKNS_18SCEVUnionPredicateEPNS_11InstructionE
__ZN12_GLOBAL__N_1L19setDebugLocFromInstERN4llvm9IRBuilderINS0_14ConstantFolderENS0_24IRBuilderDefaultInserterEEEPKNS0_5ValueE
__ZN4llvm9IRBuilderINS_14ConstantFolderENS_24IRBuilderDefaultInserterEE9CreatePHIEPNS_4TypeEjRKNS_5TwineE
__ZNK4llvm19InductionDescriptor9transformERNS_9IRBuilderINS_14ConstantFolderENS_24IRBuilderDefaultInserterEEEPNS_5ValueE
__ZN12_GLOBAL__N_118LoopVectorizeHints20setAlreadyVectorizedEv
__ZN4llvm6MDNode20handleChangedOperandEPvPNS_8MetadataE
__ZNK4llvm4Loop9setLoopIDEPNS_6MDNodeE
__ZN12_GLOBAL__N_119InnerLoopVectorizer13vectorizeLoopEv
__ZNSt3__13mapIPN4llvm5ValueENS1_11SmallVectorIS3_Lj2EEENS_4lessIS3_EENS_9allocatorINS_4pairIKS3_S5_EEEEEixERSA_
__ZNK4llvm9MapVectorIPNS_7PHINodeENS_19InductionDescriptorENS_8DenseMapIS2_jNS_12DenseMapInfoIS2_EENS_6detail12DenseMapPairIS2_jEEEENSt3__16vectorINSB_4pairIS2_S3_EENSB_9allocatorISE_EEEEE6lookupERKS2_
__ZN12_GLOBAL__N_119InnerLoopVectorizer18getBroadcastInstrsEPN4llvm5ValueE
__ZN4llvm9IRBuilderINS_14ConstantFolderENS_24IRBuilderDefaultInserterEE17CreateVectorSplatEjPNS_5ValueERKNS_5TwineE
__ZN4llvm9IRBuilderINS_14ConstantFolderENS_24IRBuilderDefaultInserterEE19CreateInsertElementEPNS_5ValueES5_S5_RKNS_5TwineE
__ZN4llvm17InsertElementInstC2EPNS_5ValueES2_S2_RKNS_5TwineEPNS_11InstructionE
__ZN4llvm9IRBuilderINS_14ConstantFolderENS_24IRBuilderDefaultInserterEE19CreateShuffleVectorEPNS_5ValueES5_S5_RKNS_5TwineE
__ZN4llvm17ShuffleVectorInstC2EPNS_5ValueES2_S2_RKNS_5TwineEPNS_11InstructionE
__ZN12_GLOBAL__N_119InnerLoopVectorizer13getStepVectorEPN4llvm5ValueEiS3_
__ZN4llvm14ConstantVector7getImplENS_8ArrayRefIPNS_8ConstantEEE
__ZN4llvm36ConstantFoldInsertElementInstructionEPNS_8ConstantES1_S1_
__ZN4llvm37ConstantFoldExtractElementInstructionEPNS_8ConstantES1_
__ZN4llvm17ConstantUniqueMapINS_14ConstantVectorEE11getOrCreateEPNS_10VectorTypeENS_19ConstantAggrKeyTypeIS1_EE
__ZNK4llvm12DenseMapBaseINS_8DenseMapIPNS_14ConstantVectorENS_6detail13DenseSetEmptyENS_17ConstantUniqueMapIS2_E7MapInfoENS4_12DenseSetPairIS3_EEEES3_S5_S8_SA_E15LookupBucketForINSt3__14pairIPNS_10VectorTypeENS_19ConstantAggrKeyTypeIS2_EEEEEEbRKT_RPKSA_
__ZN4llvm12DenseMapBaseINS_8DenseMapIPNS_14ConstantVectorENS_6detail13DenseSetEmptyENS_17ConstantUniqueMapIS2_E7MapInfoENS4_12DenseSetPairIS3_EEEES3_S5_S8_SA_E6insertEONSt3__14pairIS3_S5_EE
__ZN4llvm8DenseMapIPNS_14ConstantVectorENS_6detail13DenseSetEmptyENS_17ConstantUniqueMapIS1_E7MapInfoENS3_12DenseSetPairIS2_EEE4growEj
__ZN4llvm17ConstantUniqueMapINS_14ConstantVectorEE7MapInfo12getHashValueEPKS1_
__ZN4llvm17ConstantUniqueMapINS_14ConstantVectorEE7MapInfo12getHashValueERKNSt3__14pairIPNS_10VectorTypeENS_19ConstantAggrKeyTypeIS1_EEEE
__ZN4llvm12ConstantExpr16getShuffleVectorEPNS_8ConstantES2_S2_PNS_4TypeE
__ZN4llvm36ConstantFoldShuffleVectorInstructionEPNS_8ConstantES1_S1_
__ZN4llvm17ShuffleVectorInst12getMaskValueEPNS_8ConstantEj
__ZNK4llvm8Constant19getAggregateElementEj
__ZNK4llvm22ConstantDataSequential20getElementAsConstantEj
__ZN12_GLOBAL__N_119InnerLoopVectorizer20scalarizeInstructionEPN4llvm11InstructionEb
__ZN4llvm9IRBuilderINS_14ConstantFolderENS_24IRBuilderDefaultInserterEE20CreateExtractElementEPNS_5ValueES5_RKNS_5TwineE
__ZN4llvm18ExtractElementInstC2EPNS_5ValueES2_RKNS_5TwineEPNS_11InstructionE
__ZN12_GLOBAL__N_119InnerLoopVectorizer26vectorizeMemoryInstructionEPN4llvm11InstructionE
__ZN12_GLOBAL__N_119InnerLoopVectorizer14getVectorValueEPN4llvm5ValueE
__ZN12_GLOBAL__N_119InnerLoopVectorizer17createBlockInMaskEPN4llvm10BasicBlockE
__ZN4llvm9IRBuilderINS_14ConstantFolderENS_24IRBuilderDefaultInserterEE9CreateGEPEPNS_4TypeEPNS_5ValueES7_RKNS_5TwineE
__ZN4llvm9IRBuilderINS_14ConstantFolderENS_24IRBuilderDefaultInserterEE11CreateStoreEPNS_5ValueES5_b
__ZN12_GLOBAL__N_119InnerLoopVectorizer11addMetadataEPN4llvm11InstructionEPKS2_
__ZN4llvm14BinaryOperator11copyIRFlagsEPKNS_5ValueE
__ZNK4llvm12DenseMapBaseINS_13SmallDenseMapIPNS_11InstructionES3_Lj4EN12_GLOBAL__N_115CSEDenseMapInfoENS_6detail12DenseMapPairIS3_S3_EEEES3_S3_S5_S8_E15LookupBucketForIS3_EEbRKT_RPKS8_
__ZN4llvm12DenseMapBaseINS_13SmallDenseMapIPNS_11InstructionES3_Lj4EN12_GLOBAL__N_115CSEDenseMapInfoENS_6detail12DenseMapPairIS3_S3_EEEES3_S3_S5_S8_E4growEj
__ZN4llvm18ExtractElementInstD0Ev
__ZN12_GLOBAL__N_119InnerLoopVectorizerD2Ev
__ZNSt3__16__treeINS_12__value_typeIPN4llvm5ValueENS2_11SmallVectorIS4_Lj2EEEEENS_19__map_value_compareIS4_S7_NS_4lessIS4_EELb1EEENS_9allocatorIS7_EEE7destroyEPNS_11__tree_nodeIS7_PvEE
__ZN4llvm19TargetTransformInfo5ModelINS_14AArch64TTIImplEE18isLegalMaskedStoreEPNS_4TypeE
__ZN4llvm18EquivalenceClassesINS_14PointerIntPairIPNS_5ValueELj1EbNS_21PointerLikeTypeTraitsIS3_EENS_18PointerIntPairInfoIS3_Lj1ES5_EEEEE6insertERKS8_
__ZN4llvm8DenseMapIPNS_5ValueENS_14PointerIntPairIS2_Lj1EbNS_21PointerLikeTypeTraitsIS2_EENS_18PointerIntPairInfoIS2_Lj1ES5_EEEENS_12DenseMapInfoIS2_EENS_6detail12DenseMapPairIS2_S8_EEE4growEj
__ZN12_GLOBAL__N_114AccessAnalysis15canCheckPtrAtRTERN4llvm22RuntimePointerCheckingEPNS1_15ScalarEvolutionEPNS1_4LoopERKNS1_8DenseMapIPKNS1_5ValueEPS9_NS1_12DenseMapInfoISB_EENS1_6detail12DenseMapPairISB_SC_EEEEb
__ZNK4llvm18EquivalenceClassesINS_14PointerIntPairIPNS_5ValueELj1EbNS_21PointerLikeTypeTraitsIS3_EENS_18PointerIntPairInfoIS3_Lj1ES5_EEEEE7ECValue9getLeaderEv
__ZN4llvm15ScalarEvolution16getAnyExtendExprEPKNS_4SCEVEPNS_4TypeE
__ZN4llvm17InsertElementInstD0Ev
__ZN4llvm12InstCombiner22visitInsertElementInstERNS_17InsertElementInstE
__ZN4llvm12InstCombiner26SimplifyDemandedVectorEltsEPNS_5ValueENS_5APIntERS3_j
__ZN4llvm12InstCombiner22visitShuffleVectorInstERNS_17ShuffleVectorInstE
__ZN4llvm17ShuffleVectorInst14getShuffleMaskEPNS_8ConstantERNS_15SmallVectorImplIiEE
__ZL19CanEvaluateShuffledPN4llvm5ValueENS_8ArrayRefIiEEj
__ZN4llvm17ShuffleVectorInstD0Ev
__ZN4llvm12InstCombiner23visitExtractElementInstERNS_18ExtractElementInstE
__ZN4llvm26SimplifyExtractElementInstEPNS_5ValueES1_RKNS_10DataLayoutEPKNS_17TargetLibraryInfoEPKNS_13DominatorTreeEPNS_15AssumptionCacheEPKNS_11InstructionE
__ZN4llvm17findScalarElementEPNS_5ValueEj
__ZNSt3__17__sort4IRZL23combineWeightsBySortingRN4llvm11SmallVectorINS1_26BlockFrequencyInfoImplBase6WeightELj4EEEE3$_1PS4_EEjT0_SA_SA_SA_T_
__ZN4llvm12DenseMapBaseINS_13SmallDenseMapIPNS_5ValueEiLj4ENS_12DenseMapInfoIS3_EENS_6detail12DenseMapPairIS3_iEEEES3_iS5_S8_E20InsertIntoBucketImplERKS3_PS8_
__ZN4llvm19TargetTransformInfo5ModelINS_14AArch64TTIImplEE18getVectorInstrCostEjPNS_4TypeEj
__ZN4llvm13SmallDenseMapIPNS_5ValueEiLj4ENS_12DenseMapInfoIS2_EENS_6detail12DenseMapPairIS2_iEEE4growEj
__ZN4llvm12DenseMapBaseINS_13SmallDenseMapIPNS_5ValueEiLj4ENS_12DenseMapInfoIS3_EENS_6detail12DenseMapPairIS3_iEEEES3_iS5_S8_E18moveFromOldBucketsEPS8_SB_
__ZNK4llvm12DenseMapBaseINS_8DenseMapINSt3__14pairIPNS_11InstructionES5_EENS_8OptionalIbEENS_12DenseMapInfoIS6_EENS_6detail12DenseMapPairIS6_S8_EEEES6_S8_SA_SD_E15LookupBucketForIS6_EEbRKT_RPKSD_
__ZN4llvm8DenseMapINSt3__14pairIPNS_11InstructionES4_EENS_8OptionalIbEENS_12DenseMapInfoIS5_EENS_6detail12DenseMapPairIS5_S7_EEE4growEj
__ZN4llvm19TargetTransformInfo5ModelINS_14AArch64TTIImplEE28getCostOfKeepingLiveOverCallENS_8ArrayRefIPNS_4TypeEEE
__ZN12_GLOBAL__N_17BoUpSLP30reorderInputsAccordingToOpcodeEN4llvm8ArrayRefIPNS1_5ValueEEERNS1_15SmallVectorImplIS4_EES8_
__ZN4llvm16BasicTTIImplBaseINS_14AArch64TTIImplEE22getArithmeticInstrCostEjPNS_4TypeENS_19TargetTransformInfo16OperandValueKindES6_NS5_22OperandValuePropertiesES7_
__ZN4llvm19TargetTransformInfo5ModelINS_14AArch64TTIImplEE14getShuffleCostENS0_11ShuffleKindEPNS_4TypeEiS6_
__ZN4llvm16BasicTTIImplBaseINS_14AArch64TTIImplEE24getScalarizationOverheadEPNS_4TypeEbb
__ZN4llvm20RecurrenceDescriptor14isReductionPHIEPNS_7PHINodeEPNS_4LoopERS0_
__ZN4llvm20RecurrenceDescriptor15AddReductionVarEPNS_7PHINodeENS0_14RecurrenceKindEPNS_4LoopEbRS0_
__ZN4llvm12DenseMapBaseINS_8DenseMapIPNS_7PHINodeENS_20RecurrenceDescriptorENS_12DenseMapInfoIS3_EENS_6detail12DenseMapPairIS3_S4_EEEES3_S4_S6_S9_E16FindAndConstructERKS3_
__ZN4llvm8DenseMapIPNS_7PHINodeENS_20RecurrenceDescriptorENS_12DenseMapInfoIS2_EENS_6detail12DenseMapPairIS2_S3_EEE4growEj
__ZN4llvm14ConstantVector8getSplatEjPNS_8ConstantE
__ZL16cheapToScalarizePN4llvm5ValueEb
__ZN4llvm19TargetTransformInfo5ModelINS_14AArch64TTIImplEE17isLegalMaskedLoadEPNS_4TypeE
__ZN4llvm21getIntrinsicIDForCallEPKNS_8CallInstEPKNS_17TargetLibraryInfoE
__ZNK4llvm21TargetLibraryInfoImpl22isFunctionVectorizableENS_9StringRefE
__ZN4llvm8SmallSetIjLj2ENSt3__14lessIjEEE6insertERKj
__ZN4llvm23SmallVectorTemplateBaseINS_22RuntimePointerChecking16CheckingPtrGroupELb0EE4growEm
__ZN4llvm15SmallVectorImplINSt3__14pairIPKNS_22RuntimePointerChecking16CheckingPtrGroupES6_EEEaSEOS8_
__ZN12_GLOBAL__N_129StripDeadPrototypesLegacyPass11runOnModuleERN4llvm6ModuleE
__ZN12_GLOBAL__N_19GlobalDCE11runOnModuleERN4llvm6ModuleE
__ZN12_GLOBAL__N_19GlobalDCE14GlobalIsNeededEPN4llvm11GlobalValueE
__ZN12_GLOBAL__N_19GlobalDCE23MarkUsedGlobalsAsNeededEPN4llvm8ConstantE
__ZN12_GLOBAL__N_113ConstantMerge11runOnModuleERN4llvm6ModuleE
__ZL14FindUsedValuesPN4llvm14GlobalVariableERNS_15SmallPtrSetImplIPKNS_11GlobalValueEEE
__ZN4llvm20GlobalsAAWrapperPass14doFinalizationERNS_6ModuleE
__ZN4llvm15GlobalsAAResultD2Ev
__ZN12_GLOBAL__N_115ObjCARCContract16doInitializationERN4llvm6ModuleE
__ZN4llvm7objcarc12ModuleHasARCERKNS_6ModuleE
__ZN12_GLOBAL__N_111GlobalMerge16doInitializationERN4llvm6ModuleE
__ZN4llvm12DenseMapBaseINS_8DenseMapIjNS_11SmallVectorIPNS_14GlobalVariableELj16EEENS_12DenseMapInfoIjEENS_6detail12DenseMapPairIjS5_EEEEjS5_S7_SA_E16FindAndConstructERKj
__ZN4llvm8DenseMapIjNS_11SmallVectorIPNS_14GlobalVariableELj16EEENS_12DenseMapInfoIjEENS_6detail12DenseMapPairIjS4_EEE4growEj
__ZNK12_GLOBAL__N_111GlobalMerge7doMergeERN4llvm15SmallVectorImplIPNS1_14GlobalVariableEEERNS1_6ModuleEbj
__ZNSt3__113__stable_sortIRZNK12_GLOBAL__N_111GlobalMerge7doMergeERN4llvm15SmallVectorImplIPNS3_14GlobalVariableEEERNS3_6ModuleEbjE3$_0PS6_EEvT0_SE_T_NS_15iterator_traitsISE_E15difference_typeEPNSH_10value_typeEl
__ZZNK12_GLOBAL__N_111GlobalMerge7doMergeERN4llvm15SmallVectorImplIPNS1_14GlobalVariableEEERNS1_6ModuleEbjENK3$_2clEv
__ZNSt3__16__sortIRZNK12_GLOBAL__N_111GlobalMerge7doMergeERN4llvm15SmallVectorImplIPNS3_14GlobalVariableEEERNS3_6ModuleEbjE3$_1PZNKS2_7doMergeES8_SA_bjE13UsedGlobalSetEEvT0_SF_T_
__ZNK12_GLOBAL__N_111GlobalMerge7doMergeERKN4llvm15SmallVectorImplIPNS1_14GlobalVariableEEERKNS1_9BitVectorERNS1_6ModuleEbj
__ZN4llvm18LiveDebugVariables16doInitializationERNS_6ModuleE
__ZN12_GLOBAL__N_115ObjCARCContract13runOnFunctionERN4llvm8FunctionE
__ZN12_GLOBAL__N_116LoopDataPrefetch13runOnFunctionERN4llvm8FunctionE
__ZN4llvm19TargetTransformInfo5ModelINS_14AArch64TTIImplEE19getPrefetchDistanceEv
__ZN4llvm19TargetTransformInfo5ModelINS_14AArch64TTIImplEE29getMaxPrefetchIterationsAheadEv
__ZN4llvm7IVUsers9runOnLoopEPNS_4LoopERNS_13LPPassManagerE
__ZN4llvm7IVUsers12AddUsersImplEPNS_11InstructionERNS_15SmallPtrSetImplIPNS_4LoopEEE
__ZL13isInterestingPKN4llvm4SCEVEPKNS_11InstructionEPKNS_4LoopEPNS_15ScalarEvolutionEPNS_8LoopInfoE
__ZN12_GLOBAL__N_118LoopStrengthReduce9runOnLoopEPN4llvm4LoopERNS1_13LPPassManagerE
__ZN12_GLOBAL__N_111LSRInstanceC2EPN4llvm4LoopERNS1_7IVUsersERNS1_15ScalarEvolutionERNS1_13DominatorTreeERNS1_8LoopInfoERKNS1_19TargetTransformInfoE
__ZNSt3__16__treeIxNS_4lessIxEENS_9allocatorIxEEE7destroyEPNS_11__tree_nodeIxPvEE
__ZNSt3__16__sortIRZN4llvm12SCEVExpander19replaceCongruentIVsEPNS1_4LoopEPKNS1_13DominatorTreeERNS1_15SmallVectorImplINS1_6WeakVHEEEPKNS1_19TargetTransformInfoEE3$_1PPNS1_7PHINodeEEEvT0_SK_T_
__ZN4llvm7IVUsers13releaseMemoryEv
__ZN4llvm7IVUsers7AddUserEPNS_11InstructionEPNS_5ValueE
__ZN12_GLOBAL__N_116PostIncTransform16TransformSubExprEPKN4llvm4SCEVEPNS1_11InstructionEPNS1_5ValueE
__ZN4llvm8DenseMapIPKNS_4SCEVES3_NS_12DenseMapInfoIS3_EENS_6detail12DenseMapPairIS3_S3_EEE4growEj
__ZN12_GLOBAL__N_111LSRInstance16ChainInstructionEPN4llvm11InstructionES3_RNS1_15SmallVectorImplINS_10ChainUsersEEE
__ZL11getExprBasePKN4llvm4SCEVE
__ZL19isHighCostExpansionPKN4llvm4SCEVERNS_15SmallPtrSetImplIS2_EERNS_15ScalarEvolutionE
__ZN4llvm9SetVectorIPKNS_4SCEVENS_11SmallVectorIS3_Lj4EEENS_8SmallSetIS3_Lj4ENSt3__14lessIS3_EEEEE6insertERKS3_
__ZN12_GLOBAL__N_111LSRInstance11getNewFixupEv
__ZL12isAddressUsePN4llvm11InstructionEPNS_5ValueE
__ZN12_GLOBAL__N_111LSRInstance6getUseERPKN4llvm4SCEVENS_6LSRUse8KindTypeENS_11MemAccessTyE
__ZL16ExtractImmediateRPKN4llvm4SCEVERNS_15ScalarEvolutionE
__ZN4llvm12DenseMapBaseINS_8DenseMapINS_14PointerIntPairIPKNS_4SCEVELj2EN12_GLOBAL__N_16LSRUse8KindTypeENS_21PointerLikeTypeTraitsIS5_EENS_18PointerIntPairInfoIS5_Lj2ESA_EEEEmNS_12DenseMapInfoISD_EENS_6detail12DenseMapPairISD_mEEEESD_mSF_SI_E4growEj
__ZN4llvm12DenseMapBaseINS_8DenseMapINS_11SmallVectorIPKNS_4SCEVELj4EEENS_6detail13DenseSetEmptyEN12_GLOBAL__N_122UniquifierDenseMapInfoENS7_12DenseSetPairIS6_EEEES6_S8_SA_SC_E10destroyAllEv
__ZNK12_GLOBAL__N_18LSRFixup21isUseFullyOutsideLoopEPKN4llvm4LoopE
__ZN4llvm14isSafeToExpandEPKNS_4SCEVERNS_15ScalarEvolutionE
__ZN4llvm13SCEVTraversalIN12_GLOBAL__N_114SCEVFindUnsafeEE4pushEPKNS_4SCEVE
__ZL14DoInitialMatchPKN4llvm4SCEVEPNS_4LoopERNS_15SmallVectorImplIS2_EES7_RNS_15ScalarEvolutionE
__ZN12_GLOBAL__N_111LSRInstance13InsertFormulaERNS_6LSRUseEjRKNS_7FormulaE
__ZN4llvm15SmallVectorImplIPKNS_4SCEVEEaSERKS4_
__ZNK4llvm12DenseMapBaseINS_8DenseMapINS_11SmallVectorIPKNS_4SCEVELj4EEENS_6detail13DenseSetEmptyEN12_GLOBAL__N_122UniquifierDenseMapInfoENS7_12DenseSetPairIS6_EEEES6_S8_SA_SC_E15LookupBucketForIS6_EEbRKT_RPKSC_
__ZN4llvm7hashing6detail23hash_combine_range_implIKPKNS_4SCEVEEENSt3__19enable_ifIXsr16is_hashable_dataIT_EE5valueENS_9hash_codeEE4typeEPS9_SD_
__ZN4llvm15SmallVectorImplIPKNS_4SCEVEEaSEOS4_
__ZN12_GLOBAL__N_113RegUseTracker13countRegisterEPKN4llvm4SCEVEm
__ZN4llvm12DenseMapBaseINS_8DenseMapIPKNS_4SCEVEN12_GLOBAL__N_111RegSortDataENS_12DenseMapInfoIS4_EENS_6detail12DenseMapPairIS4_S6_EEEES4_S6_S8_SB_E4growEj
__ZN12_GLOBAL__N_111LSRInstance18reconcileNewOffsetERNS_6LSRUseExbNS1_8KindTypeENS_11MemAccessTyE
__ZN12_GLOBAL__N_111LSRInstance24GenerateAllReuseFormulaeEv
__ZN12_GLOBAL__N_111LSRInstance26GenerateReassociationsImplERNS_6LSRUseEjRKNS_7FormulaEjmb
__ZL15CollectSubexprsPKN4llvm4SCEVEPKNS_12SCEVConstantERNS_15SmallVectorImplIS2_EEPKNS_4LoopERNS_15ScalarEvolutionEj
__ZL16isAlwaysFoldableRKN4llvm19TargetTransformInfoERNS_15ScalarEvolutionExxN12_GLOBAL__N_16LSRUse8KindTypeENS5_11MemAccessTyEPKNS_4SCEVEb
__ZL13ExtractSymbolRPKN4llvm4SCEVERNS_15ScalarEvolutionE
__ZN4llvm19TargetTransformInfo5ModelINS_14AArch64TTIImplEE19isLegalAddImmediateEx
__ZN12_GLOBAL__N_111LSRInstance27GenerateSymbolicOffsetsImplERNS_6LSRUseEjRKNS_7FormulaEmb
__ZN12_GLOBAL__N_111LSRInstance27GenerateConstantOffsetsImplERNS_6LSRUseEjRKNS_7FormulaERKN4llvm15SmallVectorImplIxEEmb
__ZL10isLegalUseRKN4llvm19TargetTransformInfoExxN12_GLOBAL__N_16LSRUse8KindTypeENS3_11MemAccessTyERKNS3_7FormulaE
__ZN4llvm8DenseMapIPKNS_4SCEVENSt3__13mapIxS3_NS4_4lessIxEENS4_9allocatorINS4_4pairIKxS3_EEEEEENS_12DenseMapInfoIS3_EENS_6detail12DenseMapPairIS3_SD_EEE4growEj
__ZNSt3__16__treeINS_12__value_typeIxPKN4llvm4SCEVEEENS_19__map_value_compareIxS6_NS_4lessIxEELb1EEENS_9allocatorIS6_EEE7destroyEPNS_11__tree_nodeIS6_PvEE
__ZN4llvm12DenseMapBaseINS_8DenseMapIPKNS_4SCEVENS_14SmallBitVectorENS_12DenseMapInfoIS4_EENS_6detail12DenseMapPairIS4_S5_EEEES4_S5_S7_SA_E20InsertIntoBucketImplERKS4_PSA_
__ZN4llvm8DenseMapIPKNS_4SCEVENS_14SmallBitVectorENS_12DenseMapInfoIS3_EENS_6detail12DenseMapPairIS3_S4_EEE4growEj
__ZN4llvm14SmallBitVectoroRERKS0_
__ZNSt3__16__treeINS_4pairImxEENS_4lessIS2_EENS_9allocatorIS2_EEE7destroyEPNS_11__tree_nodeIS2_PvEE
__ZN12_GLOBAL__N_111LSRInstance38FilterOutUndesirableDedicatedRegistersEv
__ZN12_GLOBAL__N_14Cost11RateFormulaERKN4llvm19TargetTransformInfoERKNS_7FormulaERNS1_15SmallPtrSetImplIPKNS1_4SCEVEEERKNS1_8DenseSetISB_NS1_12DenseMapInfoISB_EEEEPKNS1_4LoopERKNS1_15SmallVectorImplIxEERNS1_15ScalarEvolutionERNS1_13DominatorTreeERKNS_6LSRUseEPSC_
__ZN12_GLOBAL__N_14Cost19RatePrimaryRegisterEPKN4llvm4SCEVERNS1_15SmallPtrSetImplIS4_EEPKNS1_4LoopERNS1_15ScalarEvolutionERNS1_13DominatorTreeEPS6_
__ZN12_GLOBAL__N_14Cost12RateRegisterEPKN4llvm4SCEVERNS1_15SmallPtrSetImplIS4_EEPKNS1_4LoopERNS1_15ScalarEvolutionERNS1_13DominatorTreeE
__ZNK12_GLOBAL__N_113RegUseTracker24isRegUsedByUsesOtherThanEPKN4llvm4SCEVEm
__ZN12_GLOBAL__N_16LSRUse13DeleteFormulaERNS_7FormulaE
__ZN12_GLOBAL__N_16LSRUse13RecomputeRegsEmRNS_13RegUseTrackerE
__ZN4llvm12DenseMapBaseINS_8DenseMapINS_11SmallVectorIPKNS_4SCEVELj4EEEmN12_GLOBAL__N_122UniquifierDenseMapInfoENS_6detail12DenseMapPairIS6_mEEEES6_mS8_SB_E10destroyAllEv
__ZNK12_GLOBAL__N_111LSRInstance12SolveRecurseERN4llvm15SmallVectorImplIPKNS_7FormulaEEERNS_4CostES7_RKS8_RKNS1_11SmallPtrSetIPKNS1_4SCEVELj16EEERNS1_8DenseSetISF_NS1_12DenseMapInfoISF_EEEE
__ZNK12_GLOBAL__N_111LSRInstance6ExpandERKNS_8LSRFixupERKNS_7FormulaEN4llvm14ilist_iteratorINS7_11InstructionEEERNS7_12SCEVExpanderERNS7_15SmallVectorImplINS7_6WeakVHEEE
__ZL31DeleteTriviallyDeadInstructionsRN4llvm15SmallVectorImplINS_6WeakVHEEE
__ZN4llvm19TargetTransformInfo5ModelINS_14AArch64TTIImplEE14isTruncateFreeEPNS_4TypeES5_
__ZN4llvm6iplistINS_11IVStrideUseENS_12ilist_traitsIS1_EEE5eraseENS_14ilist_iteratorIS1_EE
__ZN12_GLOBAL__N_116ConstantHoisting13runOnFunctionERN4llvm8FunctionE
__ZN12_GLOBAL__N_116ConstantHoisting25collectConstantCandidatesERN4llvm8DenseMapIPNS1_11ConstantIntEjNS1_12DenseMapInfoIS4_EENS1_6detail12DenseMapPairIS4_jEEEEPNS1_11InstructionEjS4_
__ZN4llvm19TargetTransformInfo5ModelINS_14AArch64TTIImplEE13getIntImmCostENS_9Intrinsic2IDEjRKNS_5APIntEPNS_4TypeE
__ZN4llvm19TargetTransformInfo5ModelINS_14AArch64TTIImplEE13getIntImmCostEjjRKNS_5APIntEPNS_4TypeE
__ZN4llvm14AArch64TTIImpl13getIntImmCostERKNS_5APIntEPNS_4TypeE
__ZN4llvm14AArch64TTIImpl13getIntImmCostEx
__ZN12_GLOBAL__N_123PartiallyInlineLibCalls13runOnFunctionERN4llvm8FunctionE
__ZN12_GLOBAL__N_117InterleavedAccess13runOnFunctionERN4llvm8FunctionE
__ZNK4llvm21AArch64TargetLowering31getMaxSupportedInterleaveFactorEv
__ZN12_GLOBAL__N_114CodeGenPrepare13runOnFunctionERN4llvm8FunctionE
__ZN12_GLOBAL__N_114CodeGenPrepare12optimizeInstEPN4llvm11InstructionERb
__ZL8SinkCastPN4llvm8CastInstE
__ZN4llvm12DenseMapBaseINS_8DenseMapIPNS_10BasicBlockEPNS_8CastInstENS_12DenseMapInfoIS3_EENS_6detail12DenseMapPairIS3_S5_EEEES3_S5_S7_SA_E20InsertIntoBucketImplERKS3_PSA_
__ZN4llvm8DenseMapIPNS_10BasicBlockEPNS_8CastInstENS_12DenseMapInfoIS2_EENS_6detail12DenseMapPairIS2_S4_EEE4growEj
__ZN12_GLOBAL__N_114CodeGenPrepare16optimizeCallInstEPN4llvm8CallInstERb
__ZNK4llvm18TargetLoweringBase22shouldAlignPointerArgsEPNS_8CallInstERjS3_
__ZNK4llvm18TargetLoweringBase20GetAddrModeArgumentsEPNS_13IntrinsicInstERNS_15SmallVectorImplIPNS_5ValueEEERPNS_4TypeEj
__ZN12_GLOBAL__N_114CodeGenPrepare18optimizeMemoryInstEPN4llvm11InstructionEPNS1_5ValueEPNS1_4TypeEj
__ZN12_GLOBAL__N_121AddressingModeMatcher9matchAddrEPN4llvm5ValueEj
__ZN12_GLOBAL__N_121AddressingModeMatcher18matchOperationAddrEPN4llvm4UserEjjPb
__ZN12_GLOBAL__N_114CodeGenPrepare14extLdPromotionERNS_24TypePromotionTransactionERPN4llvm8LoadInstERPNS3_11InstructionERKNS3_15SmallVectorImplIS8_EEj
__ZN12_GLOBAL__N_119TypePromotionHelper9getActionEPN4llvm11InstructionERKNS1_11SmallPtrSetIS3_Lj16EEERKNS1_14TargetLoweringERKNS1_8DenseMapIS3_NS1_14PointerIntPairIPNS1_4TypeELj1EbNS1_21PointerLikeTypeTraitsISE_EENS1_18PointerIntPairInfoISE_Lj1ESG_EEEENS1_12DenseMapInfoIS3_EENS1_6detail12DenseMapPairIS3_SJ_EEEE
__ZN4llvm8DenseMapIPNS_10BasicBlockEPNS_7CmpInstENS_12DenseMapInfoIS2_EENS_6detail12DenseMapPairIS2_S4_EEE4growEj
__ZNK4llvm18TargetLoweringBase17isSelectSupportedENS0_17SelectSupportKindE
__ZNK4llvm21AArch64TargetLowering13isExtFreeImplEPKNS_11InstructionE
__ZN12_GLOBAL__N_119TypePromotionHelper25signExtendOperandForOtherEPN4llvm11InstructionERNS_24TypePromotionTransactionERNS1_8DenseMapIS3_NS1_14PointerIntPairIPNS1_4TypeELj1EbNS1_21PointerLikeTypeTraitsIS9_EENS1_18PointerIntPairInfoIS9_Lj1ESB_EEEENS1_12DenseMapInfoIS3_EENS1_6detail12DenseMapPairIS3_SE_EEEERjPNS1_15SmallVectorImplIS3_EESP_RKNS1_14TargetLoweringE
__ZN12_GLOBAL__N_119TypePromotionHelper22promoteOperandForOtherEPN4llvm11InstructionERNS_24TypePromotionTransactionERNS1_8DenseMapIS3_NS1_14PointerIntPairIPNS1_4TypeELj1EbNS1_21PointerLikeTypeTraitsIS9_EENS1_18PointerIntPairInfoIS9_Lj1ESB_EEEENS1_12DenseMapInfoIS3_EENS1_6detail12DenseMapPairIS3_SE_EEEERjPNS1_15SmallVectorImplIS3_EESP_RKNS1_14TargetLoweringEb
__ZN4llvm8DenseMapIPNS_11InstructionENS_14PointerIntPairIPNS_4TypeELj1EbNS_21PointerLikeTypeTraitsIS5_EENS_18PointerIntPairInfoIS5_Lj1ES7_EEEENS_12DenseMapInfoIS2_EENS_6detail12DenseMapPairIS2_SA_EEE4growEj
__ZN4llvm23SmallVectorTemplateBaseINSt3__110unique_ptrIN12_GLOBAL__N_124TypePromotionTransaction19TypePromotionActionENS1_14default_deleteIS5_EEEELb0EE9push_backEOS8_
__ZN12_GLOBAL__N_124TypePromotionTransaction12UsesReplacerC1EPN4llvm11InstructionEPNS2_5ValueE
__ZN12_GLOBAL__N_124TypePromotionTransaction10setOperandEPN4llvm11InstructionEjPNS1_5ValueE
__ZN12_GLOBAL__N_124TypePromotionTransaction13OperandSetter4undoEv
__ZN12_GLOBAL__N_124TypePromotionTransaction13OperandSetterD0Ev
__ZN12_GLOBAL__N_124TypePromotionTransaction21InstructionMoveBefore4undoEv
__ZN12_GLOBAL__N_124TypePromotionTransaction16InsertionHandler6insertEPN4llvm11InstructionE
__ZN4llvm11Instruction11insertAfterEPS0_
__ZN12_GLOBAL__N_124TypePromotionTransaction21InstructionMoveBeforeD0Ev
__ZN12_GLOBAL__N_124TypePromotionTransaction12UsesReplacer4undoEv
__ZN12_GLOBAL__N_124TypePromotionTransaction12UsesReplacerD0Ev
__ZN12_GLOBAL__N_124TypePromotionTransaction11TypeMutator4undoEv
__ZN12_GLOBAL__N_124TypePromotionTransaction11TypeMutatorD0Ev
__ZN12_GLOBAL__N_121AddressingModeMatcher16matchScaledValueEPN4llvm5ValueExj
__ZN4llvm9IRBuilderINS_14ConstantFolderENS_24IRBuilderDefaultInserterEE9CreateAndEPNS_5ValueES5_RKNS_5TwineE
__ZN12_GLOBAL__N_124TypePromotionTransaction19TypePromotionAction6commitEv
__ZN12_GLOBAL__N_124TypePromotionTransaction12TruncBuilderD0Ev
__ZNK4llvm5Value18isUsedInBasicBlockEPKNS_10BasicBlockE
__ZN12_GLOBAL__N_1L17FindAllMemoryUsesEPN4llvm11InstructionERNS0_15SmallVectorImplINSt3__14pairIS2_jEEEERNS0_15SmallPtrSetImplIS2_EERKNS0_13TargetMachineE
__ZN4llvm12DenseMapBaseINS_8DenseMapINS_18ValueMapCallbackVHIPNS_5ValueES4_NS_14ValueMapConfigIS4_NS_3sys10SmartMutexILb0EEEEEEES4_NS_12DenseMapInfoISA_EENS_6detail12DenseMapPairISA_S4_EEEESA_S4_SC_SF_E16FindAndConstructEOSA_
__ZN4llvm18ValueMapCallbackVHIPNS_5ValueES2_NS_14ValueMapConfigIS2_NS_3sys10SmartMutexILb0EEEEEE7deletedEv
__ZN4llvm8DenseMapINS_18ValueMapCallbackVHIPNS_5ValueES3_NS_14ValueMapConfigIS3_NS_3sys10SmartMutexILb0EEEEEEES3_NS_12DenseMapInfoIS9_EENS_6detail12DenseMapPairIS9_S3_EEE4growEj
__ZNK4llvm21AArch64TargetLowering22mayBeEmittedAsTailCallEPNS_8CallInstE
__ZL12getExactSDivPKN4llvm4SCEVES2_RNS_15ScalarEvolutionEb
__ZN4llvm8SmallSetIxLj8ENSt3__14lessIxEEE6insertERKx
__ZL13getAccessTypePKN4llvm11InstructionE
__ZN4llvm19TargetTransformInfo5ModelINS_14AArch64TTIImplEE20isLegalICmpImmediateEx
__ZN4llvm19TargetTransformInfo5ModelINS_14AArch64TTIImplEE21isLegalAddressingModeEPNS_4TypeEPNS_11GlobalValueExbxj
__ZN4llvm23SmallVectorTemplateBaseIN12_GLOBAL__N_17FormulaELb0EE4growEm
__ZL20isAMCompletelyFoldedRKN4llvm19TargetTransformInfoERKN12_GLOBAL__N_16LSRUseERKNS3_7FormulaE
__ZN4llvm19TargetTransformInfo5ModelINS_14AArch64TTIImplEE20getScalingFactorCostEPNS_4TypeEPNS_11GlobalValueExbxj
__ZNK4llvm21AArch64TargetLowering20getScalingFactorCostERKNS_10DataLayoutERKNS_18TargetLoweringBase8AddrModeEPNS_4TypeEj
__ZN4llvm8DenseMapIPKNS_4SCEVENS_6detail13DenseSetEmptyENS_12DenseMapInfoIS3_EENS4_12DenseSetPairIS3_EEE4growEj
__ZNSt3__118__stable_sort_moveIRN12_GLOBAL__N_111LoopCompareEPNS_4pairIPKN4llvm4LoopEPKNS5_4SCEVEEEEEvT0_SE_T_NS_15iterator_traitsISE_E15difference_typeEPNSH_10value_typeE
__ZN4llvm15ScalarEvolution17getTruncateOrNoopEPKNS_4SCEVEPNS_4TypeE
__ZNK4llvm18TargetLoweringBase26isVectorShiftByScalarCheapEPNS_4TypeE
__ZN4llvm12DenseMapBaseINS_8DenseMapIPNS_10BasicBlockEPNS_11InstructionENS_12DenseMapInfoIS3_EENS_6detail12DenseMapPairIS3_S5_EEEES3_S5_S7_SA_E20InsertIntoBucketImplERKS3_PSA_
__ZN4llvm8DenseMapIPNS_10BasicBlockEPNS_11InstructionENS_12DenseMapInfoIS2_EENS_6detail12DenseMapPairIS2_S4_EEE4growEj
__ZN4llvm8DenseMapIPNS_11ConstantIntEjNS_12DenseMapInfoIS2_EENS_6detail12DenseMapPairIS2_jEEE4growEj
__ZNSt3__16__sortIRZN12_GLOBAL__N_116ConstantHoisting17findBaseConstantsEvE3$_0PNS1_17ConstantCandidateEEEvT0_S7_T_
__ZN4llvm15SmallVectorImplIN12_GLOBAL__N_112ConstantUserEEaSEOS3_
__ZN12_GLOBAL__N_116ConstantHoisting23findAndMakeBaseConstantENSt3__111__wrap_iterIPNS_17ConstantCandidateEEES5_
__ZNSt3__17__sort3IRZN4llvm12SCEVExpander19replaceCongruentIVsEPNS1_4LoopEPKNS1_13DominatorTreeERNS1_15SmallVectorImplINS1_6WeakVHEEEPKNS1_19TargetTransformInfoEE3$_1PPNS1_7PHINodeEEEjT0_SK_SK_T_
__ZNK4llvm7IVUsers9getStrideERKNS_11IVStrideUseEPKNS_4LoopE
__ZL17findAddRecForLoopPKN4llvm4SCEVEPKNS_4LoopE
__ZN12_GLOBAL__N_124TypePromotionTransaction12TruncBuilder4undoEv
__ZN12_GLOBAL__N_112ConstantInfoC1EOS0_
__ZNK12_GLOBAL__N_116ConstantHoisting15findMatInsertPtEPN4llvm11InstructionEj
__ZL13updateOperandPN4llvm11InstructionEjS1_
__ZNSt3__17__sort5IRZN4llvm12SCEVExpander19replaceCongruentIVsEPNS1_4LoopEPKNS1_13DominatorTreeERNS1_15SmallVectorImplINS1_6WeakVHEEEPKNS1_19TargetTransformInfoEE3$_1PPNS1_7PHINodeEEEjT0_SK_SK_SK_SK_T_
__ZNSt3__17__sort4IRZN4llvm12SCEVExpander19replaceCongruentIVsEPNS1_4LoopEPKNS1_13DominatorTreeERNS1_15SmallVectorImplINS1_6WeakVHEEEPKNS1_19TargetTransformInfoEE3$_1PPNS1_7PHINodeEEEjT0_SK_SK_SK_T_
__ZNK4llvm18TargetLoweringBase25canCombineStoreAndExtractEPNS_4TypeEPNS_5ValueERj
__ZN4llvm9IRBuilderINS_14ConstantFolderENS_24IRBuilderDefaultInserterEE20CreateTruncOrBitCastEPNS_5ValueEPNS_4TypeERKNS_5TwineE
__ZN4llvm8CastInst20CreateTruncOrBitCastEPNS_5ValueEPNS_4TypeERKNS_5TwineEPNS_11InstructionE
__ZN12_GLOBAL__N_124TypePromotionTransaction11SExtBuilderD0Ev
__ZN12_GLOBAL__N_119TypePromotionHelper31promoteOperandForTruncAndAnyExtEPN4llvm11InstructionERNS_24TypePromotionTransactionERNS1_8DenseMapIS3_NS1_14PointerIntPairIPNS1_4TypeELj1EbNS1_21PointerLikeTypeTraitsIS9_EENS1_18PointerIntPairInfoIS9_Lj1ESB_EEEENS1_12DenseMapInfoIS3_EENS1_6detail12DenseMapPairIS3_SE_EEEERjPNS1_15SmallVectorImplIS3_EESP_RKNS1_14TargetLoweringE
__ZN12_GLOBAL__N_124TypePromotionTransaction10createZExtEPN4llvm11InstructionEPNS1_5ValueEPNS1_4TypeE
__ZN12_GLOBAL__N_124TypePromotionTransaction16eraseInstructionEPN4llvm11InstructionEPNS1_5ValueE
__ZN12_GLOBAL__N_124TypePromotionTransaction18InstructionRemover6commitEv
__ZN12_GLOBAL__N_124TypePromotionTransaction18InstructionRemoverD0Ev
__ZN12_GLOBAL__N_124TypePromotionTransaction11ZExtBuilderD0Ev
__ZN12_GLOBAL__N_119TypePromotionHelper25zeroExtendOperandForOtherEPN4llvm11InstructionERNS_24TypePromotionTransactionERNS1_8DenseMapIS3_NS1_14PointerIntPairIPNS1_4TypeELj1EbNS1_21PointerLikeTypeTraitsIS9_EENS1_18PointerIntPairInfoIS9_Lj1ESB_EEEENS1_12DenseMapInfoIS3_EENS1_6detail12DenseMapPairIS3_SE_EEEERjPNS1_15SmallVectorImplIS3_EESP_RKNS1_14TargetLoweringE
__ZN12_GLOBAL__N_122AArch64PromoteConstant11runOnModuleERN4llvm6ModuleE
__ZN4llvm12DenseMapBaseINS_13SmallDenseMapIPNS_8ConstantEN12_GLOBAL__N_122AArch64PromoteConstant16PromotedConstantELj16ENS_12DenseMapInfoIS3_EENS_6detail12DenseMapPairIS3_S6_EEEES3_S6_S8_SB_E20InsertIntoBucketImplERKS3_PSB_
__ZL23isConstantUsingVectorTyPKN4llvm4TypeE
__ZNK4llvm18ConstantDataVector13getSplatValueEv
__ZN12_GLOBAL__N_111GlobalMerge13runOnFunctionERN4llvm8FunctionE
__ZN12_GLOBAL__N_127AArch64AddressTypePromotion13runOnFunctionERN4llvm8FunctionE
__ZN12_GLOBAL__N_127AArch64AddressTypePromotion13canGetThroughEPKN4llvm11InstructionE
__ZN4llvm12DenseMapBaseINS_8DenseMapIPNS_5ValueEPNS_11InstructionENS_12DenseMapInfoIS3_EENS_6detail12DenseMapPairIS3_S5_EEEES3_S5_S7_SA_E20InsertIntoBucketImplERKS3_PSA_
__ZN4llvm8DenseMapIPNS_5ValueEPNS_11InstructionENS_12DenseMapInfoIS2_EENS_6detail12DenseMapPairIS2_S4_EEE4growEj
__ZN4llvm16SelectionDAGISel14LowerArgumentsERKNS_8FunctionE
__ZNK4llvm21AArch64TargetLowering20LowerFormalArgumentsENS_7SDValueEjbRKNS_15SmallVectorImplINS_3ISD8InputArgEEENS_5SDLocERNS_12SelectionDAGERNS2_IS1_EE
__ZN4llvm12SelectionDAG14getMergeValuesENS_8ArrayRefINS_7SDValueEEENS_5SDLocE
__ZN4llvm16SelectionDAGISel21EmitFunctionEntryCodeEv
__ZN4llvm20isInTailCallPositionENS_17ImmutableCallSiteERKNS_13TargetMachineE
__ZN4llvm8DenseMapIPKNS_8ConstantEjNS_12DenseMapInfoIS3_EENS_6detail12DenseMapPairIS3_jEEE4growEj
__ZNK4llvm21BranchProbabilityInfo18getEdgeProbabilityEPKNS_10BasicBlockES3_
__ZN4llvm17MachineBasicBlock12addSuccessorEPS0_NS_17BranchProbabilityE
__ZNK4llvm12SelectionDAG17InferPtrAlignmentENS_7SDValueE
__ZNK4llvm14TargetLowering14isGAPlusOffsetEPNS_6SDNodeERPKNS_11GlobalValueERx
__ZN4llvm15SmallVectorImplINS_20FunctionLoweringInfo11LiveOutInfoEE6resizeEmRKS2_
__ZN4llvm23SmallVectorTemplateBaseINS_20FunctionLoweringInfo11LiveOutInfoELb0EE4growEm
__ZNK4llvm16AArch64Subtarget22enableMachineSchedulerEv
__ZNK4llvm19TargetSubtargetInfo30enableMachineSchedDefaultSchedEv
__ZN12_GLOBAL__N_111DAGCombiner17SimplifySelectOpsEPN4llvm6SDNodeENS1_7SDValueES4_
__ZNK4llvm21AArch64TargetLowering31shouldNormalizeToSelectSequenceERNS_11LLVMContextENS_3EVTE
__ZN12_GLOBAL__N_111DAGCombiner16SimplifySelectCCEN4llvm5SDLocENS1_7SDValueES3_S3_S3_NS1_3ISD8CondCodeEb
__ZNK4llvm21AArch64TargetLowering14LowerSELECT_CCENS_3ISD8CondCodeENS_7SDValueES3_S3_S3_NS_5SDLocERNS_12SelectionDAGE
__ZNK4llvm14TargetLowering31ComputeNumSignBitsForTargetNodeENS_7SDValueERKNS_12SelectionDAGEj
__ZN4llvm20FunctionLoweringInfo24ComputePHILiveOutRegInfoEPKNS_7PHINodeE
__ZN4llvm20FunctionLoweringInfo17GetLiveOutRegInfoEjj
__ZN4llvm12SelectionDAG12getValueTypeENS_3EVTE
__ZN12_GLOBAL__N_115BaseIndexOffset5matchEN4llvm7SDValueE
__ZNK4llvm12SelectionDAG13SignBitIsZeroENS_7SDValueEj
__ZN4llvm16DAGTypeLegalizer20PromoteIntegerResultEPNS_6SDNodeEj
__ZN4llvm16DAGTypeLegalizer15CustomLowerNodeEPNS_6SDNodeENS_3EVTEb
__ZN4llvm16DAGTypeLegalizer14AnalyzeNewNodeEPNS_6SDNodeE
__ZN4llvm12DenseMapBaseINS_13SmallDenseMapINS_7SDValueES2_Lj8ENS_12DenseMapInfoIS2_EENS_6detail12DenseMapPairIS2_S2_EEEES2_S2_S4_S7_EixERKS2_
__ZN4llvm16DAGTypeLegalizer10RemapValueERNS_7SDValueE
__ZN4llvm12SelectionDAG13getTruncStoreENS_7SDValueENS_5SDLocES1_S1_NS_3EVTEPNS_17MachineMemOperandE
__ZN4llvm16DAGTypeLegalizer16ReplaceValueWithENS_7SDValueES1_
__ZN4llvm16DAGTypeLegalizer11ExpungeNodeEPNS_6SDNodeE
__ZN12_GLOBAL__N_118NodeUpdateListener11NodeUpdatedEPN4llvm6SDNodeE
__ZN4llvm12SelectionDAG18getZeroExtendInRegENS_7SDValueENS_5SDLocENS_3EVTE
__ZN4llvm12SelectionDAG13getTruncStoreENS_7SDValueENS_5SDLocES1_S1_NS_18MachinePointerInfoENS_3EVTEbbjRKNS_9AAMDNodesE
__ZN4llvm16DAGTypeLegalizer20PromoteSetCCOperandsERNS_7SDValueES2_NS_3ISD8CondCodeE
__ZN4llvm16DAGTypeLegalizer19ZExtPromotedIntegerENS_7SDValueE
__ZN4llvm12SelectionDAG18UpdateNodeOperandsEPNS_6SDNodeENS_7SDValueES3_S3_
__ZN4llvm12SelectionDAG18UpdateNodeOperandsEPNS_6SDNodeENS_8ArrayRefINS_7SDValueEEE
__ZN4llvm16DAGTypeLegalizer20PromoteTargetBooleanENS_7SDValueENS_3EVTE
__ZL14narrowIfNeededPN4llvm12SelectionDAGENS_7SDValueE
__ZN4llvm12SelectionDAG12SelectNodeToEPNS_6SDNodeEjNS_3EVTENS_8ArrayRefINS_7SDValueEEE
__ZL28isConjunctionDisjunctionTreeN4llvm7SDValueERbj
__ZNK4llvm21AArch64TargetLowering11LowerReturnENS_7SDValueEjbRKNS_15SmallVectorImplINS_3ISD9OutputArgEEERKNS2_IS1_EENS_5SDLocERNS_12SelectionDAGE
__ZNK4llvm19AArch64RegisterInfo25getCalleeSavedRegsViaCopyEPKNS_15MachineFunctionE
__ZN12_GLOBAL__N_117TailDuplicatePass20runOnMachineFunctionERN4llvm15MachineFunctionE
__ZNK4llvm18TargetRegisterInfo26trackLivenessAfterRegAllocERKNS_15MachineFunctionE
__ZN4llvm17MachineBasicBlock14canFallThroughEv
__ZNK4llvm16AArch64InstrInfo13AnalyzeBranchERNS_17MachineBasicBlockERPS1_S4_RNS_15SmallVectorImplINS_14MachineOperandEEEb
__ZNK4llvm15TargetInstrInfo24isUnpredicatedTerminatorEPKNS_12MachineInstrE
__ZL15parseCondBranchPN4llvm12MachineInstrERPNS_17MachineBasicBlockERNS_15SmallVectorImplINS_14MachineOperandEEE
__ZNK4llvm12MachineInstr21isUnconditionalBranchENS0_9QueryTypeE
__ZN12_GLOBAL__N_112OptimizePHIs20runOnMachineFunctionERN4llvm15MachineFunctionE
__ZN12_GLOBAL__N_112OptimizePHIs21IsSingleValuePHICycleEPN4llvm12MachineInstrERjRNS1_11SmallPtrSetIS3_Lj16EEE
__ZN12_GLOBAL__N_112OptimizePHIs14IsDeadPHICycleEPN4llvm12MachineInstrERNS1_11SmallPtrSetIS3_Lj16EEE
__ZN4llvm20MachineDominatorTree20runOnMachineFunctionERNS_15MachineFunctionE
__ZN4llvm17DominatorTreeBaseINS_17MachineBasicBlockEE11recalculateINS_15MachineFunctionEEEvRT_
__ZN4llvm17DominatorTreeBaseINS_17MachineBasicBlockEE5resetEv
__ZN4llvm9CalculateINS_15MachineFunctionEPNS_17MachineBasicBlockEEEvRNS_17DominatorTreeBaseINS_11GraphTraitsIT0_E8NodeTypeEEERT_
__ZN4llvm7DFSPassINS_11GraphTraitsIPNS_17MachineBasicBlockEEEEEjRNS_17DominatorTreeBaseINT_8NodeTypeEEEPS7_j
__ZN4llvm4EvalINS_11GraphTraitsIPNS_17MachineBasicBlockEEEEEPNT_8NodeTypeERNS_17DominatorTreeBaseIS6_EES7_j
__ZN4llvm8DenseMapIPNS_17MachineBasicBlockES2_NS_12DenseMapInfoIS2_EENS_6detail12DenseMapPairIS2_S2_EEE4growEj
__ZN4llvm17DominatorTreeBaseINS_17MachineBasicBlockEE15getNodeForBlockEPS1_
__ZNSt3__16vectorIPN4llvm15DomTreeNodeBaseINS1_17MachineBasicBlockEEENS_9allocatorIS5_EEE21__push_back_slow_pathIS5_EEvOT_
__ZNK4llvm17DominatorTreeBaseINS_17MachineBasicBlockEE16updateDFSNumbersEv
__ZN4llvm11SlotIndexes20runOnMachineFunctionERNS_15MachineFunctionE
__ZN4llvm11SlotIndexes11createEntryEPNS_12MachineInstrEj
__ZN4llvm8DenseMapIPKNS_12MachineInstrENS_9SlotIndexENS_12DenseMapInfoIS3_EENS_6detail12DenseMapPairIS3_S4_EEE4growEj
__ZN4llvm12DenseMapBaseINS_8DenseMapIPKNS_12MachineInstrENS_9SlotIndexENS_12DenseMapInfoIS4_EENS_6detail12DenseMapPairIS4_S5_EEEES4_S5_S7_SA_E18moveFromOldBucketsEPSA_SD_
__ZNSt3__16__sortIRN4llvm14Idx2MBBCompareEPNS_4pairINS1_9SlotIndexEPNS1_17MachineBasicBlockEEEEEvT0_SA_T_
__ZNSt3__17__sort3IRN4llvm14Idx2MBBCompareEPNS_4pairINS1_9SlotIndexEPNS1_17MachineBasicBlockEEEEEjT0_SA_SA_T_
__ZNSt3__127__insertion_sort_incompleteIRN4llvm14Idx2MBBCompareEPNS_4pairINS1_9SlotIndexEPNS1_17MachineBasicBlockEEEEEbT0_SA_T_
__ZN12_GLOBAL__N_113StackColoring20runOnMachineFunctionERN4llvm15MachineFunctionE
__ZN4llvm8DenseMapIPKNS_17MachineBasicBlockEiNS_12DenseMapInfoIS3_EENS_6detail12DenseMapPairIS3_iEEE4growEj
__ZN4llvm12DenseMapBaseINS_8DenseMapIPKNS_17MachineBasicBlockEN12_GLOBAL__N_113StackColoring17BlockLifetimeInfoENS_12DenseMapInfoIS4_EENS_6detail12DenseMapPairIS4_S7_EEEES4_S7_S9_SC_E4growEj
__ZN4llvm20MachineDominatorTree13releaseMemoryEv
__ZN4llvm11SlotIndexes13releaseMemoryEv
__ZN12_GLOBAL__N_126DeadMachineInstructionElim20runOnMachineFunctionERN4llvm15MachineFunctionE
__ZNK4llvm12MachineInstr12isSafeToMoveEPNS_9AAResultsERb
__ZNK4llvm12MachineInstr19hasOrderedMemoryRefEv
__ZNK4llvm12MachineInstr15isInvariantLoadEPNS_9AAResultsE
__ZN4llvm9BitVector9applyMaskILb0ELb1EEEvPKjj
__ZN12_GLOBAL__N_125AArch64ConditionOptimizer20runOnMachineFunctionERN4llvm15MachineFunctionE
__ZN4llvm11depth_firstIPNS_20MachineDominatorTreeEEENS_14iterator_rangeINS_11df_iteratorIT_NS_11SmallPtrSetIPNS_11GraphTraitsIS5_E8NodeTypeELj8EEELb0ES8_EEEERKS5_
__ZNK4llvm20MachineDominatorTree23applySplitCriticalEdgesEv
__ZN12_GLOBAL__N_125AArch64ConditionOptimizer19findSuitableCompareEPN4llvm17MachineBasicBlockE
__ZN4llvm11df_iteratorIPNS_20MachineDominatorTreeENS_11SmallPtrSetIPNS_15DomTreeNodeBaseINS_17MachineBasicBlockEEELj8EEELb0ENS_11GraphTraitsIS2_EEE6toNextEv
__ZN4llvm15MachineLoopInfo20runOnMachineFunctionERNS_15MachineFunctionE
__ZN4llvm15MachineLoopInfo13releaseMemoryEv
__ZN4llvm12LoopInfoBaseINS_17MachineBasicBlockENS_11MachineLoopEE13releaseMemoryEv
__ZNSt3__16vectorINS_4pairIPKN4llvm15DomTreeNodeBaseINS2_17MachineBasicBlockEEENS_11__wrap_iterIPKPS5_EEEENS_9allocatorISD_EEE21__push_back_slow_pathISD_EEvOT_
__ZN4llvm11po_iteratorIPKNS_15DomTreeNodeBaseINS_17MachineBasicBlockEEENS_11SmallPtrSetIS5_Lj8EEELb0ENS_11GraphTraitsIS5_EEE13traverseChildEv
__ZNK4llvm17DominatorTreeBaseINS_17MachineBasicBlockEE9dominatesEPKS1_S4_
__ZN4llvm12DenseMapBaseINS_8DenseMapIPKNS_17MachineBasicBlockEPNS_11MachineLoopENS_12DenseMapInfoIS4_EENS_6detail12DenseMapPairIS4_S6_EEEES4_S6_S8_SB_E20InsertIntoBucketImplERKS4_PSB_
__ZN4llvm8DenseMapIPKNS_17MachineBasicBlockEPNS_11MachineLoopENS_12DenseMapInfoIS3_EENS_6detail12DenseMapPairIS3_S5_EEE4growEj
__ZNSt3__16vectorIPN4llvm11MachineLoopENS_9allocatorIS3_EEE21__push_back_slow_pathIRKS3_EEvOT_
__ZN4llvm8LoopBaseINS_17MachineBasicBlockENS_11MachineLoopEE13addBlockEntryEPS1_
__ZN4llvm19MachineTraceMetrics20runOnMachineFunctionERNS_15MachineFunctionE
__ZN4llvm16TargetSchedModel4initERKNS_12MCSchedModelEPKNS_19TargetSubtargetInfoEPKNS_15TargetInstrInfoE
__ZN12_GLOBAL__N_126AArch64ConditionalCompares20runOnMachineFunctionERN4llvm15MachineFunctionE
__ZNK4llvm12MachineInstr25findRegisterDefOperandIdxEjbbPKNS_18TargetRegisterInfoE
__ZN12_GLOBAL__N_115MachineCombiner20runOnMachineFunctionERN4llvm15MachineFunctionE
__ZNK4llvm16AArch64InstrInfo18useMachineCombinerEv
__ZNK4llvm16AArch64InstrInfo26getMachineCombinerPatternsERNS_12MachineInstrERNS_15SmallVectorImplINS_22MachineCombinerPatternEEE
__ZNK4llvm15TargetInstrInfo26getMachineCombinerPatternsERNS_12MachineInstrERNS_15SmallVectorImplINS_22MachineCombinerPatternEEE
__ZNK4llvm16AArch64InstrInfo27isAssociativeAndCommutativeERKNS_12MachineInstrE
__ZN12_GLOBAL__N_116EarlyIfConverter20runOnMachineFunctionERN4llvm15MachineFunctionE
__ZNK4llvm16AArch64Subtarget23enableEarlyIfConversionEv
__ZNSt3__16vectorINS_4pairIPN4llvm15DomTreeNodeBaseINS2_17MachineBasicBlockEEENS_11__wrap_iterIPS6_EEEENS_9allocatorISA_EEE21__push_back_slow_pathISA_EEvOT_
__ZN4llvm11po_iteratorIPNS_20MachineDominatorTreeENS_11SmallPtrSetIPNS_15DomTreeNodeBaseINS_17MachineBasicBlockEEELj8EEELb0ENS_11GraphTraitsIS2_EEE13traverseChildEv
__ZNK4llvm16AArch64InstrInfo15canInsertSelectERKNS_17MachineBasicBlockENS_8ArrayRefINS_14MachineOperandEEEjjRiS7_S7_
__ZL15canFoldIntoCSelRKN4llvm19MachineRegisterInfoEjPj
__ZN12_GLOBAL__N_19SSAIfConv18canSpeculateInstrsEPN4llvm17MachineBasicBlockE
__ZN12_GLOBAL__N_124AArch64StorePairSuppress20runOnMachineFunctionERN4llvm15MachineFunctionE
__ZN4llvm19MachineTraceMetrics13releaseMemoryEv
__ZN12_GLOBAL__N_111MachineLICM20runOnMachineFunctionERN4llvm15MachineFunctionE
__ZNK4llvm22AArch64GenRegisterInfo22getRegPressureSetLimitERKNS_15MachineFunctionEj
__ZN4llvm17MachineBasicBlock17SplitCriticalEdgeEPS0_PNS_4PassE
__ZN4llvm17MachineBasicBlock22ReplaceUsesOfBlockWithEPS0_S1_
__ZN4llvm17MachineBasicBlock16replaceSuccessorEPS0_S1_
__ZN4llvm17MachineBasicBlock16updateTerminatorEv
__ZNK4llvm16AArch64InstrInfo12RemoveBranchERNS_17MachineBasicBlockE
__ZNK4llvm16AArch64InstrInfo21instantiateCondBranchERNS_17MachineBasicBlockENS_8DebugLocEPS1_NS_8ArrayRefINS_14MachineOperandEEE
__ZN4llvm8DenseMapIPNS_15DomTreeNodeBaseINS_17MachineBasicBlockEEEjNS_12DenseMapInfoIS4_EENS_6detail12DenseMapPairIS4_jEEE4growEj
__ZN12_GLOBAL__N_111MachineLICM15InitRegPressureEPN4llvm17MachineBasicBlockE
__ZN12_GLOBAL__N_111MachineLICM17UpdateRegPressureEPKN4llvm12MachineInstrEb
__ZN12_GLOBAL__N_111MachineLICM16calcRegisterCostEPKN4llvm12MachineInstrEbb
__ZN4llvm8SmallSetIjLj32ENSt3__14lessIjEEE6insertERKj
__ZNK4llvm22AArch64GenRegisterInfo17getRegClassWeightEPKNS_19TargetRegisterClassE
__ZNK4llvm22AArch64GenRegisterInfo23getRegClassPressureSetsEPKNS_19TargetRegisterClassE
__ZN4llvm12DenseMapBaseINS_8DenseMapIjiNS_12DenseMapInfoIjEENS_6detail12DenseMapPairIjiEEEEjiS3_S6_E20InsertIntoBucketImplERKjPS6_
__ZN4llvm8DenseMapIjiNS_12DenseMapInfoIjEENS_6detail12DenseMapPairIjiEEE4growEj
__ZN12_GLOBAL__N_111MachineLICM19IsLoopInvariantInstERN4llvm12MachineInstrE
__ZN12_GLOBAL__N_111MachineLICM15IsLICMCandidateERN4llvm12MachineInstrE
__ZN4llvm12DenseMapBaseINS_8DenseMapIPNS_15DomTreeNodeBaseINS_17MachineBasicBlockEEES5_NS_12DenseMapInfoIS5_EENS_6detail12DenseMapPairIS5_S5_EEEES5_S5_S7_SA_E20InsertIntoBucketImplERKS5_PSA_
__ZN4llvm8DenseMapIPNS_15DomTreeNodeBaseINS_17MachineBasicBlockEEES4_NS_12DenseMapInfoIS4_EENS_6detail12DenseMapPairIS4_S4_EEE4growEj
__ZN12_GLOBAL__N_111MachineLICM19IsProfitableToHoistERN4llvm12MachineInstrE
__ZNK4llvm16AArch64InstrInfo16isAsCheapAsAMoveEPKNS_12MachineInstrE
__ZNK4llvm15TargetInstrInfo16hasLowDefLatencyERKNS_16TargetSchedModelEPKNS_12MachineInstrEj
__ZNK12_GLOBAL__N_111MachineLICM13HasLoopPHIUseEPKN4llvm12MachineInstrE
__ZNK4llvm15TargetInstrInfo33isReallyTriviallyReMaterializableEPKNS_12MachineInstrEPNS_9AAResultsE
__ZNK4llvm15TargetInstrInfo40isReallyTriviallyReMaterializableGenericEPKNS_12MachineInstrEPNS_9AAResultsE
__ZNK4llvm16AArch64InstrInfo19isLoadFromStackSlotEPKNS_12MachineInstrERi
__ZN4llvm12DenseMapBaseINS_8DenseMapIjNSt3__16vectorIPKNS_12MachineInstrENS2_9allocatorIS6_EEEENS_12DenseMapInfoIjEENS_6detail12DenseMapPairIjS9_EEEEjS9_SB_SE_E20InsertIntoBucketImplERKjPSE_
__ZN4llvm8DenseMapIjNSt3__16vectorIPKNS_12MachineInstrENS1_9allocatorIS5_EEEENS_12DenseMapInfoIjEENS_6detail12DenseMapPairIjS8_EEE4growEj
__ZNSt3__16vectorIPKN4llvm12MachineInstrENS_9allocatorIS4_EEE21__push_back_slow_pathIS4_EEvOT_
__ZNK4llvm15TargetInstrInfo16produceSameValueEPKNS_12MachineInstrES3_PKNS_19MachineRegisterInfoE
__ZN12_GLOBAL__N_111MachineLICM21IsGuaranteedToExecuteEPN4llvm17MachineBasicBlockE
__ZNK4llvm15TargetInstrInfo26getOpcodeAfterMemoryUnfoldEjbbPj
__ZNK4llvm19MachineRegisterInfo17isConstantPhysRegEjRKNS_15MachineFunctionE
__ZNK4llvm8LoopBaseINS_17MachineBasicBlockENS_11MachineLoopEE16getExitingBlocksERNS_15SmallVectorImplIPS1_EE
__ZN12_GLOBAL__N_111MachineLICM13releaseMemoryEv
__ZN12_GLOBAL__N_110MachineCSE20runOnMachineFunctionERN4llvm15MachineFunctionE
__ZNK4llvm15TargetInstrInfo27getMachineCSELookAheadLimitEv
__ZN4llvm8DenseMapIPNS_17MachineBasicBlockEPNS_20ScopedHashTableScopeIPNS_12MachineInstrEjNS_27MachineInstrExpressionTraitENS_18RecyclingAllocatorINS_20BumpPtrAllocatorImplINS_15MallocAllocatorELm4096ELm4096EEENS_18ScopedHashTableValIS5_jEELm32ELm8EEEEENS_12DenseMapInfoIS2_EENS_6detail12DenseMapPairIS2_SF_EEE4growEj
__ZN4llvm12DenseMapBaseINS_8DenseMapIPNS_12MachineInstrEPNS_18ScopedHashTableValIS3_jEENS_27MachineInstrExpressionTraitENS_6detail12DenseMapPairIS3_S6_EEEES3_S6_S7_SA_EixERKS3_
__ZN4llvm8DenseMapIPNS_12MachineInstrEPNS_18ScopedHashTableValIS2_jEENS_27MachineInstrExpressionTraitENS_6detail12DenseMapPairIS2_S5_EEE4growEj
__ZN4llvm18ScopedHashTableValIPNS_12MachineInstrEjE6CreateINS_18RecyclingAllocatorINS_20BumpPtrAllocatorImplINS_15MallocAllocatorELm4096ELm4096EEES3_Lm32ELm8EEEEEPS3_SA_SA_RKS2_RKjRT_
__ZN12_GLOBAL__N_110MachineCSE9ExitScopeEPN4llvm17MachineBasicBlockE
__ZN12_GLOBAL__N_110MachineCSE13releaseMemoryEv
__ZN4llvm24MachinePostDominatorTree20runOnMachineFunctionERNS_15MachineFunctionE
__ZN4llvm9CalculateINS_15MachineFunctionENS_7InverseIPNS_17MachineBasicBlockEEEEEvRNS_17DominatorTreeBaseINS_11GraphTraitsIT0_E8NodeTypeEEERT_
__ZN4llvm7DFSPassINS_11GraphTraitsINS_7InverseIPNS_17MachineBasicBlockEEEEEEEjRNS_17DominatorTreeBaseINT_8NodeTypeEEEPS9_j
__ZN4llvm4EvalINS_11GraphTraitsINS_7InverseIPNS_17MachineBasicBlockEEEEEEEPNT_8NodeTypeERNS_17DominatorTreeBaseIS8_EES9_j
__ZN4llvm25MachineBlockFrequencyInfo20runOnMachineFunctionERNS_15MachineFunctionE
__ZN4llvm11po_iteratorIPKNS_17MachineBasicBlockENS_11SmallPtrSetIS3_Lj8EEELb0ENS_11GraphTraitsIS3_EEE13traverseChildEv
__ZN4llvm8DenseMapIPKNS_17MachineBasicBlockENS_26BlockFrequencyInfoImplBase9BlockNodeENS_12DenseMapInfoIS3_EENS_6detail12DenseMapPairIS3_S5_EEE4growEj
__ZNSt3__15dequeINS_4pairIPKN4llvm11MachineLoopEPNS2_26BlockFrequencyInfoImplBase8LoopDataEEENS_9allocatorIS9_EEE19__add_back_capacityEv
__ZN4llvm22BlockFrequencyInfoImplINS_17MachineBasicBlockEE17computeMassInLoopERNS_26BlockFrequencyInfoImplBase8LoopDataE
__ZN4llvm22BlockFrequencyInfoImplINS_17MachineBasicBlockEE25propagateMassToSuccessorsEPNS_26BlockFrequencyInfoImplBase8LoopDataERKNS3_9BlockNodeE
__ZNK4llvm17MachineBasicBlock18getSuccProbabilityENSt3__111__wrap_iterIPKPS0_EE
__ZN4llvm22BlockFrequencyInfoImplINS_17MachineBasicBlockEE26tryToComputeMassInFunctionEv
__ZN12_GLOBAL__N_114MachineSinking20runOnMachineFunctionERN4llvm15MachineFunctionE
__ZNSt3__16__treeINS_4pairIPN4llvm17MachineBasicBlockES4_EENS_4lessIS5_EENS_9allocatorIS5_EEE7destroyEPNS_11__tree_nodeIS5_PvEE
__ZN12_GLOBAL__N_114MachineSinking16FindSuccToSinkToEPN4llvm12MachineInstrEPNS1_17MachineBasicBlockERbRNSt3__13mapIS5_NS1_11SmallVectorIS5_Lj4EEENS7_4lessIS5_EENS7_9allocatorINS7_4pairIKS5_SA_EEEEEE
__ZNK4llvm15TargetInstrInfo24isSafeToMoveRegClassDefsEPKNS_19TargetRegisterClassE
__ZNSt3__113__stable_sortIRZNK12_GLOBAL__N_114MachineSinking22GetAllSortedSuccessorsEPN4llvm12MachineInstrEPNS3_17MachineBasicBlockERNS_3mapIS7_NS3_11SmallVectorIS7_Lj4EEENS_4lessIS7_EENS_9allocatorINS_4pairIKS7_SA_EEEEEEE3$_0PS7_EEvT0_SN_T_NS_15iterator_traitsISN_E15difference_typeEPNSQ_10value_typeEl
__ZZNK12_GLOBAL__N_114MachineSinking22GetAllSortedSuccessorsEPN4llvm12MachineInstrEPNS1_17MachineBasicBlockERNSt3__13mapIS5_NS1_11SmallVectorIS5_Lj4EEENS6_4lessIS5_EENS6_9allocatorINS6_4pairIKS5_S9_EEEEEEENK3$_0clEPKS4_SL_
__ZN4llvm15SmallVectorImplIPNS_17MachineBasicBlockEEaSEOS3_
__ZNK12_GLOBAL__N_114MachineSinking23AllUsesDominatedByBlockEjPN4llvm17MachineBasicBlockES3_RbS4_
__ZNSt3__16__treeINS_12__value_typeIPN4llvm17MachineBasicBlockENS2_11SmallVectorIS4_Lj4EEEEENS_19__map_value_compareIS4_S7_NS_4lessIS4_EELb1EEENS_9allocatorIS7_EEE7destroyEPNS_11__tree_nodeIS7_PvEE
__ZN12_GLOBAL__N_114MachineSinking20isProfitableToSinkToEjPN4llvm12MachineInstrEPNS1_17MachineBasicBlockES5_RNSt3__13mapIS5_NS1_11SmallVectorIS5_Lj4EEENS6_4lessIS5_EENS6_9allocatorINS6_4pairIKS5_S9_EEEEEE
__ZN12_GLOBAL__N_114MachineSinking25PostponeSplitCriticalEdgeEPN4llvm12MachineInstrEPNS1_17MachineBasicBlockES5_b
__ZNSt3__16__treeINS_4pairIPN4llvm17MachineBasicBlockES4_EENS_4lessIS5_EENS_9allocatorIS5_EEE15__insert_uniqueERKS5_
__ZN4llvm25MachineBlockFrequencyInfo13releaseMemoryEv
__ZN4llvm22BlockFrequencyInfoImplINS_17MachineBasicBlockEED0Ev
__ZN12_GLOBAL__N_114MachineSinking13releaseMemoryEv
__ZN4llvm8LoopBaseINS_17MachineBasicBlockENS_11MachineLoopEED2Ev
__ZN12_GLOBAL__N_117PeepholeOptimizer20runOnMachineFunctionERN4llvm15MachineFunctionE
__ZNK4llvm12MachineInstr17isLoadFoldBarrierEv
__ZNK4llvm12MachineInstr19isConditionalBranchENS0_9QueryTypeE
__ZL15getCopyRewriterRN4llvm12MachineInstrERKNS_15TargetInstrInfoERNS_19MachineRegisterInfoE
__ZN12_GLOBAL__N_112CopyRewriter23getNextRewritableSourceERjS1_S1_S1_
__ZN12_GLOBAL__N_117PeepholeOptimizer14findNextSourceEjjRN4llvm13SmallDenseMapINS1_15TargetInstrInfo13RegSubRegPairENS_18ValueTrackerResultELj4ENS1_12DenseMapInfoIS4_EENS1_6detail12DenseMapPairIS4_S5_EEEE
__ZN4llvm15SmallVectorImplINS_15TargetInstrInfo13RegSubRegPairEEaSEOS3_
__ZNK4llvm12DenseMapBaseINS_13SmallDenseMapINS_15TargetInstrInfo13RegSubRegPairEN12_GLOBAL__N_118ValueTrackerResultELj4ENS_12DenseMapInfoIS3_EENS_6detail12DenseMapPairIS3_S5_EEEES3_S5_S7_SA_E15LookupBucketForIS3_EEbRKT_RPKSA_
__ZN12_GLOBAL__N_112CopyRewriterD0Ev
__ZN4llvm12DenseMapBaseINS_8DenseMapIjPNS_12MachineInstrENS_12DenseMapInfoIjEENS_6detail12DenseMapPairIjS3_EEEEjS3_S5_S8_E20InsertIntoBucketImplERKjPS8_
__ZN4llvm8DenseMapIjPNS_12MachineInstrENS_12DenseMapInfoIjEENS_6detail12DenseMapPairIjS2_EEE4growEj
__ZN4llvm8SmallSetIjLj4ENSt3__14lessIjEEE6insertERKj
__ZNK4llvm15TargetInstrInfo13FoldImmediateEPNS_12MachineInstrES2_jPNS_19MachineRegisterInfoE
__ZNK4llvm18TargetRegisterInfo20shouldRewriteCopySrcEPKNS_19TargetRegisterClassEjS3_j
__ZN12_GLOBAL__N_112CopyRewriter12getNewSourceEPN4llvm19MachineRegisterInfoEPKNS1_15TargetInstrInfoENS4_13RegSubRegPairERNS1_13SmallDenseMapIS7_NS_18ValueTrackerResultELj4ENS1_12DenseMapInfoIS7_EENS1_6detail12DenseMapPairIS7_S9_EEEEb
__ZN4llvm15SmallVectorImplINS_15TargetInstrInfo13RegSubRegPairEEaSERKS3_
__ZNK4llvm16AArch64InstrInfo18optimizeCondBranchEPNS_12MachineInstrE
__ZNK4llvm16AArch64InstrInfo14analyzeCompareEPKNS_12MachineInstrERjS4_RiS5_
__ZNK4llvm16AArch64InstrInfo20optimizeCompareInstrEPNS_12MachineInstrEjjiiPKNS_19MachineRegisterInfoE
__ZN12_GLOBAL__N_120InsertSubregRewriter23getNextRewritableSourceERjS1_S1_S1_
__ZNK4llvm18TargetRegisterInfo24getMatchingSuperRegClassEPKNS_19TargetRegisterClassES3_j
__ZN12_GLOBAL__N_120InsertSubregRewriterD0Ev
__ZN12_GLOBAL__N_119ProcessImplicitDefs20runOnMachineFunctionERN4llvm15MachineFunctionE
__ZN4llvm9SetVectorIPNS_12MachineInstrENS_11SmallVectorIS2_Lj16EEENS_8SmallSetIS2_Lj16ENSt3__14lessIS2_EEEEE6insertERKS2_
__ZN12_GLOBAL__N_127UnreachableMachineBlockElim20runOnMachineFunctionERN4llvm15MachineFunctionE
__ZN4llvm13LiveVariables20runOnMachineFunctionERNS_15MachineFunctionE
__ZNSt3__16vectorIPN4llvm12MachineInstrENS_9allocatorIS3_EEE6assignEmRKS3_
__ZN4llvm13LiveVariables16HandlePhysRegDefEjPNS_12MachineInstrERNS_15SmallVectorImplIjEE
__ZN4llvm13LiveVariables17HandlePhysRegKillEjPNS_12MachineInstrE
__ZN4llvm15SmallVectorImplINS_13LiveVariables7VarInfoEE6resizeEmRKS2_
__ZN4llvm13LiveVariables13HandleRegMaskERKNS_14MachineOperandE
__ZN4llvm12MachineInstr15addRegisterDeadEjPKNS_18TargetRegisterInfoEb
__ZN4llvm13LiveVariables23MarkVirtRegAliveInBlockERNS0_7VarInfoEPNS_17MachineBasicBlockES4_RNSt3__16vectorIS4_NS5_9allocatorIS4_EEEE
__ZN4llvm15SparseBitVectorILj128EE4testEj
__ZN4llvm13LiveVariables9isLiveOutEjRKNS_17MachineBasicBlockE
__ZN4llvm17MachineBasicBlock23getFirstInstrTerminatorEv
__ZNK4llvm16AArch64InstrInfo22ReverseBranchConditionERNS_15SmallVectorImplINS_14MachineOperandEEE
__ZN4llvm8SmallSetIjLj16ENSt3__14lessIjEEE6insertERKj
__ZN4llvm15SparseBitVectorILj128EE5resetEj
__ZN4llvm13LiveIntervals20runOnMachineFunctionERNS_15MachineFunctionE
__ZNK4llvm19TargetSubtargetInfo20enableSubRegLivenessEv
__ZN4llvm13LiveIntervals19createEmptyIntervalEj
__ZN4llvm13LiveIntervals22computeVirtRegIntervalERNS_12LiveIntervalE
__ZN4llvm13LiveRangeCalc15resetLiveOutMapEv
__ZL13createDeadDefRN4llvm11SlotIndexesERNS_20BumpPtrAllocatorImplINS_15MallocAllocatorELm4096ELm4096EEERNS_9LiveRangeERKNS_14MachineOperandE
__ZN4llvm9LiveRange13createDeadDefENS_9SlotIndexERNS_20BumpPtrAllocatorImplINS_15MallocAllocatorELm4096ELm4096EEE
__ZN4llvm12LiveInterval20removeEmptySubRangesEv
__ZN4llvm13LiveRangeCalc12extendToUsesERNS_9LiveRangeEjj
__ZN4llvm13LiveRangeCalc6extendERNS_9LiveRangeENS_9SlotIndexEj
__ZN4llvm9LiveRange13extendInBlockENS_9SlotIndexES1_
__ZN12_GLOBAL__N_121CalcLiveRangeUtilBaseINS_23CalcLiveRangeUtilVectorEPN4llvm9LiveRange7SegmentENS2_11SmallVectorIS4_Lj4EEEE18extendSegmentEndToES5_NS2_9SlotIndexE
__ZN4llvm13LiveIntervals17computeDeadValuesERNS_12LiveIntervalEPNS_15SmallVectorImplIPNS_12MachineInstrEEE
__ZN4llvm16LiveRangeUpdater3addENS_9LiveRange7SegmentE
__ZN4llvm16LiveRangeUpdater5flushEv
__ZN4llvm13LiveRangeCalc9updateSSAEv
__ZNK4llvm20MachineDominatorTree9dominatesEPKNS_15DomTreeNodeBaseINS_17MachineBasicBlockEEES5_
__ZN4llvm9LiveRange10addSegmentENS0_7SegmentE
__ZN4llvm13LiveRangeCalc17updateFromLiveInsEv
__ZNSt3__16__treeIN4llvm9LiveRange7SegmentENS_4lessIS3_EENS_9allocatorIS3_EEE12__find_equalIS3_EERPNS_16__tree_node_baseIPvEENS_21__tree_const_iteratorIS3_PNS_11__tree_nodeIS3_SB_EElEESE_RKT_
__ZN4llvm13LiveIntervals19computeRegUnitRangeERNS_9LiveRangeEj
__ZN12_GLOBAL__N_120CalcLiveRangeUtilSet13findInsertPosEN4llvm9LiveRange7SegmentE
__ZN12_GLOBAL__N_121CalcLiveRangeUtilBaseINS_20CalcLiveRangeUtilSetENSt3__121__tree_const_iteratorIN4llvm9LiveRange7SegmentEPNS2_11__tree_nodeIS6_PvEElEENS2_3setIS6_NS2_4lessIS6_EENS2_9allocatorIS6_EEEEE18extendSegmentEndToESB_NS4_9SlotIndexE
__ZN12_GLOBAL__N_117RegisterCoalescer20runOnMachineFunctionERN4llvm15MachineFunctionE
__ZNK4llvm19TargetSubtargetInfo22enableJoinGlobalCopiesEv
__ZL18compareMBBPriorityPKN12_GLOBAL__N_115MBBPriorityInfoES2_
__ZN12_GLOBAL__N_117RegisterCoalescer14coalesceLocalsEv
__ZNK12_GLOBAL__N_117RegisterCoalescer17applyTerminalRuleERKN4llvm12MachineInstrE
__ZNK4llvm13LiveIntervals18intervalIsInOneMBBERKNS_12LiveIntervalE
__ZN12_GLOBAL__N_117RegisterCoalescer8joinCopyEPN4llvm12MachineInstrERb
__ZN4llvm13CoalescerPair12setRegistersEPKNS_12MachineInstrE
__ZNK4llvm18TargetRegisterInfo14shouldCoalesceEPNS_12MachineInstrEPKNS_19TargetRegisterClassEjS5_jS5_
__ZN12_GLOBAL__N_18JoinValsC1ERN4llvm9LiveRangeEjjjRNS1_15SmallVectorImplIPNS1_6VNInfoEEERKNS1_13CoalescerPairEPNS1_13LiveIntervalsEPKNS1_18TargetRegisterInfoEbb
__ZN12_GLOBAL__N_18JoinVals17computeAssignmentEjRS0_
__ZNK4llvm13CoalescerPair13isCoalescableEPKNS_12MachineInstrE
__ZN12_GLOBAL__N_18JoinVals16resolveConflictsERS0_
__ZN12_GLOBAL__N_18JoinVals11pruneValuesERS0_RN4llvm15SmallVectorImplINS2_9SlotIndexEEEb
__ZN12_GLOBAL__N_18JoinVals13isPrunedValueEjRS0_
__ZN12_GLOBAL__N_18JoinVals11eraseInstrsERN4llvm15SmallPtrSetImplIPNS1_12MachineInstrEEERNS1_15SmallVectorImplIjEE
__ZN4llvm9LiveRange4joinERS0_PKiS3_RNS_15SmallVectorImplIPNS_6VNInfoEEE
__ZN12_GLOBAL__N_117RegisterCoalescer17updateRegDefsUsesEjjj
__ZNK4llvm12MachineInstr26readsWritesVirtualRegisterEjPNS_15SmallVectorImplIjEE
__ZN4llvm14MachineOperand12substVirtRegEjjRKNS_18TargetRegisterInfoE
__ZN4llvm12LiveIntervalD2Ev
__ZN4llvm12LiveInterval14clearSubRangesEv
__ZNK4llvm18TargetRegisterInfo18updateRegAllocHintEjjRNS_15MachineFunctionE
__ZN12_GLOBAL__N_117RegisterCoalescer23reMaterializeTrivialDefERKN4llvm13CoalescerPairEPNS1_12MachineInstrERb
__ZNK4llvm15TargetInstrInfo13reMaterializeERNS_17MachineBasicBlockENS1_15bundle_iteratorINS_12MachineInstrENS_14ilist_iteratorIS4_EEEEjjPKS4_RKNS_18TargetRegisterInfoE
__ZN4llvm12MachineInstrC1ERNS_15MachineFunctionERKS0_
__ZN4llvm12MachineInstr18substituteRegisterEjjjRKNS_18TargetRegisterInfoE
__ZN4llvm14MachineOperand12substPhysRegEjRKNS_18TargetRegisterInfoE
__ZN4llvm11SlotIndexes25replaceMachineInstrInMapsEPNS_12MachineInstrES2_
__ZN4llvm13LiveIntervals12shrinkToUsesEPNS_12LiveIntervalEPNS_15SmallVectorImplIPNS_12MachineInstrEEE
__ZL20extendSegmentsToUsesRN4llvm9LiveRangeERKNS_11SlotIndexesERNS_11SmallVectorINSt3__14pairINS_9SlotIndexEPNS_6VNInfoEEELj16EEERKS0_
__ZN4llvm15SmallVectorImplINS_9LiveRange7SegmentEE4swapERS3_
__ZN12_GLOBAL__N_117RegisterCoalescer17eliminateDeadDefsEv
__ZN4llvm13LiveRangeEdit17eliminateDeadDefsERNS_15SmallVectorImplIPNS_12MachineInstrEEENS_8ArrayRefIjEE
__ZN4llvm13LiveRangeEdit8Delegate21LRE_WillShrinkVirtRegEj
__ZN4llvm13LiveIntervals15removeVRegDefAtERNS_12LiveIntervalENS_9SlotIndexE
__ZThn32_N12_GLOBAL__N_117RegisterCoalescer24LRE_WillEraseInstructionEPN4llvm12MachineInstrE
__ZN4llvm13LiveRangeEdit8Delegate19LRE_CanEraseVirtRegEj
__ZNK12_GLOBAL__N_18JoinVals15followCopyChainEPKN4llvm6VNInfoE
__ZN4llvm13LiveVariables13releaseMemoryEv
__ZN12_GLOBAL__N_117RegisterCoalescer13releaseMemoryEv
__ZThn64_N12_GLOBAL__N_116MachineScheduler20runOnMachineFunctionERN4llvm15MachineFunctionE
__ZN12_GLOBAL__N_116MachineScheduler20runOnMachineFunctionERN4llvm15MachineFunctionE
__ZNK4llvm16TargetPassConfig22createMachineSchedulerEPNS_19MachineSchedContextE
__ZL22createGenericSchedLivePN4llvm19MachineSchedContextE
__ZN4llvm13SchedBoundaryC2EjRKNS_5TwineE
__ZN4llvm13SchedBoundary5resetEv
__ZN4llvm17ScheduleDAGMILiveC2EPNS_19MachineSchedContextENSt3__110unique_ptrINS_20MachineSchedStrategyENS3_14default_deleteIS5_EEEE
__ZN4llvm17ScheduleDAGInstrsC2ERNS_15MachineFunctionEPKNS_15MachineLoopInfoEb
__ZNSt3__16vectorINS_10unique_ptrIN4llvm19ScheduleDAGMutationENS_14default_deleteIS3_EEEENS_9allocatorIS6_EEE21__push_back_slow_pathIS6_EEvOT_
__ZNK4llvm16AArch64InstrInfo18enableClusterLoadsEv
__ZN12_GLOBAL__N_120MachineSchedulerBase15scheduleRegionsERN4llvm17ScheduleDAGInstrsEb
__ZN4llvm17ScheduleDAGInstrs10startBlockEPNS_17MachineBasicBlockE
__ZNK4llvm15TargetInstrInfo20isSchedulingBoundaryEPKNS_12MachineInstrEPKNS_17MachineBasicBlockERKNS_15MachineFunctionE
__ZN4llvm17ScheduleDAGMILive11enterRegionEPNS_17MachineBasicBlockENS1_15bundle_iteratorINS_12MachineInstrENS_14ilist_iteratorIS4_EEEES7_j
__ZN4llvm16GenericScheduler10initPolicyENS_17MachineBasicBlock15bundle_iteratorINS_12MachineInstrENS_14ilist_iteratorIS3_EEEES6_j
__ZNK4llvm16AArch64Subtarget19overrideSchedPolicyERNS_18MachineSchedPolicyEPNS_12MachineInstrES4_j
__ZNK4llvm16GenericScheduler19shouldTrackPressureEv
__ZNK4llvm16GenericScheduler20shouldTrackLaneMasksEv
__ZN4llvm17ScheduleDAGInstrs10exitRegionEv
__ZN4llvm17ScheduleDAGMILive8scheduleEv
__ZN4llvm18RegPressureTracker5resetEv
__ZN4llvm17ScheduleDAGInstrs15buildSchedGraphEPNS_9AAResultsEPNS_18RegPressureTrackerEPNS_13PressureDiffsEPNS_13LiveIntervalsEb
__ZN4llvm12DenseMapBaseINS_8DenseMapIPNS_12MachineInstrEPNS_5SUnitENS_12DenseMapInfoIS3_EENS_6detail12DenseMapPairIS3_S5_EEEES3_S5_S7_SA_E20InsertIntoBucketImplERKS3_PSA_
__ZN4llvm8DenseMapIPNS_12MachineInstrEPNS_5SUnitENS_12DenseMapInfoIS2_EENS_6detail12DenseMapPairIS2_S4_EEE4growEj
__ZNK4llvm16TargetSchedModel19computeInstrLatencyEPKNS_12MachineInstrEb
__ZNK4llvm23AArch64GenSubtargetInfo17resolveSchedClassEjPKNS_12MachineInstrEPKNS_16TargetSchedModelE
__ZN4llvm17ScheduleDAGInstrs14addVRegUseDepsEPNS_5SUnitEj
__ZN4llvm17ScheduleDAGInstrs20addChainDependenciesEPNS_5SUnitERNS0_12Value2SUsMapENS_12PointerUnionIPKNS_5ValueEPKNS_17PseudoSourceValueEEE
__ZN4llvm12DenseMapBaseINS_8DenseMapINS_12PointerUnionIPKNS_5ValueEPKNS_17PseudoSourceValueEEEjNS_12DenseMapInfoIS9_EENS_6detail12DenseMapPairIS9_jEEEES9_jSB_SE_E20InsertIntoBucketImplERKS9_PSE_
__ZN4llvm8DenseMapINS_12PointerUnionIPKNS_5ValueEPKNS_17PseudoSourceValueEEEjNS_12DenseMapInfoIS8_EENS_6detail12DenseMapPairIS8_jEEE4growEj
__ZNK4llvm16TargetSchedModel21computeOperandLatencyEPKNS_12MachineInstrEjS3_j
__ZNK4llvm19TargetSubtargetInfo21adjustSchedDependencyEPNS_5SUnitES2_RNS_4SDepE
__ZN4llvm14SparseMultiSetINS_13PhysRegSUOperENS_8identityIjEEtE6insertERKS1_
__ZN12_GLOBAL__N_113CopyConstrain5applyEPN4llvm13ScheduleDAGMIE
__ZN12_GLOBAL__N_119LoadClusterMutation5applyEPN4llvm13ScheduleDAGMIE
__ZN12_GLOBAL__N_111MacroFusion5applyEPN4llvm13ScheduleDAGMIE
__ZN4llvm13ScheduleDAGMI21findRootsAndBiasEdgesERNS_15SmallVectorImplIPNS_5SUnitEEES5_
__ZN4llvm5SUnit16biasCriticalPathEv
__ZN4llvm16GenericScheduler10initializeEPNS_13ScheduleDAGMIE
__ZN4llvm14SchedRemainder4initEPNS_13ScheduleDAGMIEPKNS_16TargetSchedModelE
__ZNK4llvm16TargetSchedModel14getNumMicroOpsEPKNS_12MachineInstrEPKNS_16MCSchedClassDescE
__ZN4llvm13SchedBoundary4initEPNS_13ScheduleDAGMIEPKNS_16TargetSchedModelEPNS_14SchedRemainderE
__ZNK4llvm15TargetInstrInfo30CreateTargetMIHazardRecognizerEPKNS_18InstrItineraryDataEPKNS_11ScheduleDAGE
__ZN4llvm26ScoreboardHazardRecognizerC2EPKNS_18InstrItineraryDataEPKNS_11ScheduleDAGEPKc
__ZN4llvm13ScheduleDAGMI10initQueuesENS_8ArrayRefIPNS_5SUnitEEES4_
__ZN4llvm16GenericScheduler14releaseTopNodeEPNS_5SUnitE
__ZN4llvm13SchedBoundary11releaseNodeEPNS_5SUnitEj
__ZN4llvm13SchedBoundary11checkHazardEPNS_5SUnitE
__ZN4llvm16GenericScheduler17releaseBottomNodeEPNS_5SUnitE
__ZN4llvm16GenericScheduler13registerRootsEv
__ZN4llvm16GenericScheduler8pickNodeERb
__ZN4llvm13SchedBoundary14pickOnlyChoiceEv
__ZN4llvm16GenericScheduler9schedNodeEPNS_5SUnitEb
__ZN4llvm13SchedBoundary8bumpNodeEPNS_5SUnitE
__ZN4llvm13ScheduleDAGMI12updateQueuesEPNS_5SUnitEb
__ZN4llvm20GenericSchedulerBase9setPolicyERNS0_10CandPolicyEbRNS_13SchedBoundaryEPS3_
__ZN4llvm16GenericScheduler17pickNodeFromQueueERNS_13SchedBoundaryERKNS_18RegPressureTrackerERNS_20GenericSchedulerBase14SchedCandidateE
__ZN4llvm13ScheduleDAGMI16placeDebugValuesEv
__ZNK4llvm15TargetInstrInfo16isHighLatencyDefEi
__ZN4llvm14SparseMultiSetINS_13PhysRegSUOperENS_8identityIjEEtE8eraseAllERKj
__ZN4llvm14SparseMultiSetINS_13PhysRegSUOperENS_8identityIjEEtE6unlinkERKNS4_7SMSNodeE
__ZN4llvm14SparseMultiSetINS_10VReg2SUnitENS_20VirtReg2IndexFunctorEhE6insertERKS1_
__ZN4llvm13ScheduleDAGMI15moveInstructionEPNS_12MachineInstrENS_17MachineBasicBlock15bundle_iteratorIS1_NS_14ilist_iteratorIS1_EEEE
__ZN4llvm13LiveIntervals10handleMoveEPNS_12MachineInstrEb
__ZN4llvm11SlotIndexes24insertMachineInstrInMapsEPNS_12MachineInstrEb
__ZN4llvm13LiveIntervals8HMEditor11updateRangeERNS_9LiveRangeEjj
__ZN4llvm13SchedBoundary9bumpCycleEj
__ZN4llvm13SchedBoundary14releasePendingEv
__ZN4llvm17ScheduleDAGInstrs11finishBlockEv
__ZNK4llvm16AArch64InstrInfo21getMemOpBaseRegImmOfsEPNS_12MachineInstrERjS3_PKNS_18TargetRegisterInfoE
__ZN4llvm17ScheduleDAGInstrs18addChainDependencyEPNS_5SUnitES2_j
__ZNK4llvm16AArch64InstrInfo31areMemAccessesTriviallyDisjointEPNS_12MachineInstrES2_PNS_9AAResultsE
__ZNK4llvm16AArch64InstrInfo22shouldScheduleAdjacentEPNS_12MachineInstrES2_
__ZNSt3__16__sortIRNS_6__lessIN12_GLOBAL__N_119LoadClusterMutation8LoadInfoES4_EEPS4_EEvT0_S8_T_
__ZNSt3__17__sort3IRNS_6__lessIN12_GLOBAL__N_119LoadClusterMutation8LoadInfoES4_EEPS4_EEjT0_S8_S8_T_
__ZN4llvm18RegPressureTracker4initEPKNS_15MachineFunctionEPKNS_17RegisterClassInfoEPKNS_13LiveIntervalsEPKNS_17MachineBasicBlockENSA_15bundle_iteratorIKNS_12MachineInstrENS_14ilist_iteratorISF_EEEEbb
__ZNSt3__16vectorIjNS_9allocatorIjEEE6assignIPjEENS_9enable_ifIXaasr21__is_forward_iteratorIT_EE5valuesr16is_constructibleIjNS_15iterator_traitsIS7_E9referenceEEE5valueEvE4typeES7_S7_
__ZN4llvm18RegPressureTracker6recedeEPNS_15SmallVectorImplINS_16RegisterMaskPairEEE
__ZN4llvm18RegPressureTracker21recedeSkipDebugValuesEv
__ZN4llvm18RegPressureTracker11closeBottomEv
__ZNK4llvm18RegPressureTracker11getCurrSlotEv
__ZN4llvm16RegisterOperands7collectERKNS_12MachineInstrERKNS_18TargetRegisterInfoERKNS_19MachineRegisterInfoEbb
__ZNK12_GLOBAL__N_125RegisterOperandsCollector12pushRegUnitsEjjRN4llvm15SmallVectorImplINS1_16RegisterMaskPairEEE
__ZN4llvm16RegisterOperands14detectDeadDefsERKNS_12MachineInstrERKNS_13LiveIntervalsE
__ZN4llvm18RegPressureTracker6recedeERKNS_16RegisterOperandsEPNS_15SmallVectorImplINS_16RegisterMaskPairEEE
__ZN4llvm18RegPressureTracker12bumpDeadDefsENS_8ArrayRefINS_16RegisterMaskPairEEE
__ZN4llvm12PressureDiff17addPressureChangeEjbPKNS_19MachineRegisterInfoE
__ZN4llvm10LiveRegSet6insertENS_16RegisterMaskPairE
__ZN4llvm18RegPressureTracker15discoverLiveOutENS_16RegisterMaskPairE
__ZN4llvm18RegPressureTracker19increaseRegPressureEjjj
__ZN4llvm18RegPressureTracker19decreaseRegPressureEjjj
__ZN4llvm18RegPressureTracker8closeTopEv
__ZN4llvm17ScheduleDAGMILive19updatePressureDiffsENS_8ArrayRefINS_16RegisterMaskPairEEE
__ZNK4llvm17RegisterClassInfo16computePSetLimitEj
__ZL11tryPressureRKN4llvm14PressureChangeES2_RNS_20GenericSchedulerBase14SchedCandidateES5_NS3_10CandReasonEPKNS_18TargetRegisterInfoERKNS_15MachineFunctionE
__ZNK4llvm18RegPressureTracker16getLastUsedLanesEjNS_9SlotIndexE
__ZN4llvm17ScheduleDAGMILive23updateScheduledPressureEPKNS_5SUnitERKNSt3__16vectorIjNS4_9allocatorIjEEEE
__ZNK4llvm18TargetRegisterInfo22getRegPressureSetScoreERKNS_15MachineFunctionEj
__ZN4llvm17ScheduleDAGInstrs16finalizeScheduleEv
__ZN4llvm17ScheduleDAGMILiveD0Ev
__ZN4llvm17ScheduleDAGMILiveD2Ev
__ZN4llvm18RegPressureTrackerD2Ev
__ZN4llvm13ScheduleDAGMID2Ev
__ZN12_GLOBAL__N_111MacroFusionD0Ev
__ZN12_GLOBAL__N_119LoadClusterMutationD0Ev
__ZN12_GLOBAL__N_113CopyConstrainD0Ev
__ZN4llvm16GenericSchedulerD0Ev
__ZN4llvm13SchedBoundaryD2Ev
__ZN4llvm26ScoreboardHazardRecognizerD0Ev
__ZN4llvm17ScheduleDAGInstrsD2Ev
__ZN4llvm18LiveDebugVariables20runOnMachineFunctionERNS_15MachineFunctionE
__ZN4llvm10LiveStacks20runOnMachineFunctionERNS_15MachineFunctionE
__ZN4llvm10VirtRegMap20runOnMachineFunctionERNS_15MachineFunctionE
__ZN4llvm10VirtRegMap4growEv
__ZN4llvm13LiveRegMatrix20runOnMachineFunctionERNS_15MachineFunctionE
__ZN4llvm11EdgeBundles20runOnMachineFunctionERNS_15MachineFunctionE
__ZN4llvm12IntEqClasses8compressEv
__ZN4llvm23SmallVectorTemplateBaseINS_11SmallVectorIjLj8EEELb0EE4growEm
__ZN4llvm14SpillPlacement20runOnMachineFunctionERNS_15MachineFunctionE
__ZN12_GLOBAL__N_18RAGreedy20runOnMachineFunctionERN4llvm15MachineFunctionE
__ZNK4llvm19TargetSubtargetInfo25enableRALocalReassignmentENS_10CodeGenOpt5LevelE
__ZN4llvm12RegAllocBase4initERNS_10VirtRegMapERNS_13LiveIntervalsERNS_13LiveRegMatrixE
__ZN4llvm19createInlineSpillerERNS_19MachineFunctionPassERNS_15MachineFunctionERNS_10VirtRegMapE
__ZNK4llvm19AArch64RegisterInfo18getCSRFirstUseCostEv
__ZN4llvm29calculateSpillWeightsAndHintsERNS_13LiveIntervalsERNS_15MachineFunctionEPNS_10VirtRegMapERKNS_15MachineLoopInfoERKNS_25MachineBlockFrequencyInfoEPFffjjE
__ZN4llvm14VirtRegAuxInfo27calculateSpillWeightAndHintERNS_12LiveIntervalE
__ZN4llvm13LiveIntervals14getSpillWeightEbbPKNS_25MachineBlockFrequencyInfoEPKNS_12MachineInstrE
__ZN4llvm8DenseMapIjfNS_12DenseMapInfoIjEENS_6detail12DenseMapPairIjfEEE4growEj
__ZN4llvmL20normalizeSpillWeightEfjj.10316
__ZN4llvm15SmallVectorImplIN12_GLOBAL__N_18RAGreedy20GlobalSplitCandidateEE6resizeEm
__ZN4llvm12RegAllocBase16allocatePhysRegsEv
__ZThn32_N12_GLOBAL__N_18RAGreedy7enqueueEPN4llvm12LiveIntervalE
__ZN12_GLOBAL__N_18RAGreedy7enqueueERNSt3__114priority_queueINS1_4pairIjjEENS1_6vectorIS4_NS1_9allocatorIS4_EEEENS1_4lessIS4_EEEEPN4llvm12LiveIntervalE
__ZNK4llvm18TargetRegisterInfo22reverseLocalAssignmentEv
__ZThn32_N12_GLOBAL__N_18RAGreedy7dequeueEv
__ZN12_GLOBAL__N_18RAGreedy7dequeueEv
__ZNSt3__111__sift_downIRNS_4lessINS_4pairIjjEEEENS_11__wrap_iterIPS3_EEEEvT0_S9_T_NS_15iterator_traitsIS9_E15difference_typeES9_
__ZThn32_N12_GLOBAL__N_18RAGreedy13selectOrSplitERN4llvm12LiveIntervalERNS1_15SmallVectorImplIjEE
__ZN12_GLOBAL__N_18RAGreedy13selectOrSplitERN4llvm12LiveIntervalERNS1_15SmallVectorImplIjEE
__ZN12_GLOBAL__N_18RAGreedy17selectOrSplitImplERN4llvm12LiveIntervalERNS1_15SmallVectorImplIjEERNS1_8SmallSetIjLj16ENSt3__14lessIjEEEEj
__ZN4llvm15AllocationOrderC1EjRKNS_10VirtRegMapERKNS_17RegisterClassInfoEPKNS_13LiveRegMatrixE
__ZNK4llvm18TargetRegisterInfo21getRegAllocationHintsEjNS_8ArrayRefItEERNS_15SmallVectorImplItEERKNS_15MachineFunctionEPKNS_10VirtRegMapEPKNS_13LiveRegMatrixE
__ZN12_GLOBAL__N_18RAGreedy9tryAssignERN4llvm12LiveIntervalERNS1_15AllocationOrderERNS1_15SmallVectorImplIjEE
__ZN4llvm13LiveRegMatrix17checkInterferenceERNS_12LiveIntervalEj
__ZN4llvm13LiveIntervals24checkRegMaskInterferenceERNS_12LiveIntervalERNS_9BitVectorE
__ZZN4llvm13LiveRegMatrix24checkRegUnitInterferenceERNS_12LiveIntervalEjENK3$_2clEjRKNS_9LiveRangeE
__ZN4llvm17LiveIntervalUnion5Query23collectInterferingVRegsEj
__ZN12_GLOBAL__N_18RAGreedy20canEvictInterferenceERN4llvm12LiveIntervalEjbRNS0_12EvictionCostE
__ZN4llvm13LiveRegMatrix6assignERNS_12LiveIntervalEj
__ZN4llvm17LiveIntervalUnion5unifyERNS_12LiveIntervalERKNS_9LiveRangeE
__ZN4llvm11IntervalMapINS_9SlotIndexEPNS_12LiveIntervalELj8ENS_15IntervalMapInfoIS1_EEE14const_iterator4findES1_
__ZN4llvm11IntervalMapINS_9SlotIndexEPNS_12LiveIntervalELj8ENS_15IntervalMapInfoIS1_EEE14const_iterator7setRootEj
__ZN4llvm11IntervalMapINS_9SlotIndexEPNS_12LiveIntervalELj8ENS_15IntervalMapInfoIS1_EEE8iterator6insertES1_S1_S3_
__ZN4llvm15IntervalMapImpl8LeafNodeINS_9SlotIndexEPNS_12LiveIntervalELj8ENS_15IntervalMapInfoIS2_EEE10insertFromERjjS2_S2_S4_
__ZN4llvm15IntervalMapImpl4Path11replaceRootEPvjNSt3__14pairIjjEE
__ZN4llvm11IntervalMapINS_9SlotIndexEPNS_12LiveIntervalELj8ENS_15IntervalMapInfoIS1_EEE8iterator10treeInsertES1_S1_S3_
__ZN4llvm11IntervalMapINS_9SlotIndexEPNS_12LiveIntervalELj8ENS_15IntervalMapInfoIS1_EEE14const_iterator12pathFillFindES1_
__ZNK4llvm15IntervalMapImpl4Path14getLeftSiblingEj
__ZNK4llvm15IntervalMapImpl4Path15getRightSiblingEj
__ZN4llvm15IntervalMapImpl10distributeEjjjPKjPjjb
__ZN4llvm15IntervalMapImpl8NodeBaseINSt3__14pairINS_9SlotIndexES4_EEPNS_12LiveIntervalELj8EE17adjustFromLeftSibEjRS8_ji
__ZN4llvm15IntervalMapImpl4Path9moveRightEj
__ZN4llvm15IntervalMapImpl4Path8moveLeftEj
__ZN4llvm11IntervalMapINS_9SlotIndexEPNS_12LiveIntervalELj8ENS_15IntervalMapInfoIS1_EEE8iterator10insertNodeEjNS_15IntervalMapImpl7NodeRefES1_
__ZN12_GLOBAL__N_18RAGreedy8tryEvictERN4llvm12LiveIntervalERNS1_15AllocationOrderERNS1_15SmallVectorImplIjEEj
__ZN12_GLOBAL__N_18RAGreedy17evictInterferenceERN4llvm12LiveIntervalEjRNS1_15SmallVectorImplIjEE
__ZN4llvm13LiveRegMatrix8unassignERNS_12LiveIntervalE
__ZN4llvm17LiveIntervalUnion7extractERNS_12LiveIntervalERKNS_9LiveRangeE
__ZN12_GLOBAL__N_18RAGreedy8setStageERKN4llvm12LiveIntervalENS0_14LiveRangeStageE
__ZN4llvm13SplitAnalysis7analyzeEPKNS_12LiveIntervalE
__ZN4llvm25array_pod_sort_comparatorINS_9SlotIndexEEEiPKvS3_
__ZN4llvm13SplitAnalysis17calcLiveBlockInfoEv
__ZN12_GLOBAL__N_18RAGreedy19addSplitConstraintsEN4llvm17InterferenceCache6CursorERNS1_14BlockFrequencyE
__ZN4llvm14SpillPlacement14addConstraintsENS_8ArrayRefINS0_15BlockConstraintEEE
__ZN4llvm14SpillPlacement17scanActiveBundlesEv
__ZN4llvm14SpillPlacement4Node6updateEPKS1_RKNS_14BlockFrequencyE
__ZN12_GLOBAL__N_18RAGreedy10growRegionERNS0_20GlobalSplitCandidateE
__ZN4llvm14SpillPlacement12addPrefSpillENS_8ArrayRefIjEEb
__ZN4llvm14SpillPlacement7iterateEv
__ZN4llvm14SpillPlacement6finishEv
__ZN12_GLOBAL__N_18RAGreedy13calcSpillCostEv
__ZN12_GLOBAL__N_18RAGreedy24calculateRegionSplitCostERN4llvm12LiveIntervalERNS1_15AllocationOrderERNS1_14BlockFrequencyERjb
__ZN4llvm17InterferenceCache5Entry6updateEj
__ZN4llvm11IntervalMapINS_9SlotIndexEPNS_12LiveIntervalELj8ENS_15IntervalMapInfoIS1_EEE14const_iterator13treeAdvanceToES1_
__ZN4llvm13SplitAnalysis21computeLastSplitPointEj
__ZN4llvm14SpillPlacement8addLinksENS_8ArrayRefIjEE
__ZN12_GLOBAL__N_18RAGreedy13doRegionSplitERN4llvm12LiveIntervalEjbRNS1_15SmallVectorImplIjEE
__ZN4llvm11SplitEditor5resetERNS_13LiveRangeEditENS0_19ComplementSpillModeE
__ZN4llvm13LiveRangeEdit21checkRematerializableEPNS_6VNInfoEPKNS_12MachineInstrEPNS_9AAResultsE
__ZN4llvm13LiveRangeEdit26MRI_NoteNewVirtualRegisterEj
__ZN4llvm11IntervalMapINS_9SlotIndexEjLj9ENS_15IntervalMapInfoIS1_EEE6insertES1_S1_j
__ZN4llvm15IntervalMapImpl8LeafNodeINS_9SlotIndexEjLj9ENS_15IntervalMapInfoIS2_EEE10insertFromERjjS2_S2_j
__ZNK4llvm13SplitAnalysis22shouldSplitSingleBlockERKNS0_9BlockInfoEb
__ZN4llvm11SplitEditor21splitLiveThroughBlockEjjNS_9SlotIndexEjS1_
__ZN4llvm11SplitEditor13defFromParentEjPNS_6VNInfoENS_9SlotIndexERNS_17MachineBasicBlockENS4_15bundle_iteratorINS_12MachineInstrENS_14ilist_iteratorIS7_EEEE
__ZN4llvm13LiveRangeEdit18canRematerializeAtERNS0_5RematENS_9SlotIndexEb
__ZN4llvm11SplitEditor8defValueEjPKNS_6VNInfoENS_9SlotIndexE
__ZNK4llvm12DenseMapBaseINS_8DenseMapINSt3__14pairIjjEENS_14PointerIntPairIPNS_6VNInfoELj1EjNS_21PointerLikeTypeTraitsIS7_EENS_18PointerIntPairInfoIS7_Lj1ES9_EEEENS_12DenseMapInfoIS4_EENS_6detail12DenseMapPairIS4_SC_EEEES4_SC_SE_SH_E15LookupBucketForIS4_EEbRKT_RPKSH_
__ZN4llvm12DenseMapBaseINS_8DenseMapINSt3__14pairIjjEENS_14PointerIntPairIPNS_6VNInfoELj1EjNS_21PointerLikeTypeTraitsIS7_EENS_18PointerIntPairInfoIS7_Lj1ES9_EEEENS_12DenseMapInfoIS4_EENS_6detail12DenseMapPairIS4_SC_EEEES4_SC_SE_SH_E20InsertIntoBucketImplERKS4_PSH_
__ZN4llvm8DenseMapINSt3__14pairIjjEENS_14PointerIntPairIPNS_6VNInfoELj1EjNS_21PointerLikeTypeTraitsIS6_EENS_18PointerIntPairInfoIS6_Lj1ES8_EEEENS_12DenseMapInfoIS3_EENS_6detail12DenseMapPairIS3_SB_EEE4growEj
__ZN4llvm11SplitEditor6finishEPNS_15SmallVectorImplIjEE
__ZNK4llvm11IntervalMapINS_9SlotIndexEjLj9ENS_15IntervalMapInfoIS1_EEE6lookupES1_j
__ZN4llvm11IntervalMapINS_9SlotIndexEjLj9ENS_15IntervalMapInfoIS1_EEE14const_iterator7setRootEj
__ZN4llvm15SmallVectorImplINS_15IntervalMapImpl4Path5EntryEEaSEOS4_
__ZN4llvm11SplitEditor15rewriteAssignedEb
__ZN4llvm9LiveRange14RenumberValuesEv
__ZN4llvm13LiveIntervals23splitSeparateComponentsERNS_12LiveIntervalERNS_15SmallVectorImplIPS1_EE
__ZN4llvm24ConnectedVNInfoEqClasses8ClassifyERKNS_9LiveRangeE
__ZNK4llvm9LiveRange21FindSegmentContainingENS_9SlotIndexE
__ZN4llvm13LiveRangeEdit24calculateRegClassAndHintERNS_15MachineFunctionERKNS_15MachineLoopInfoERKNS_25MachineBlockFrequencyInfoE
__ZN4llvm19MachineRegisterInfo17recomputeRegClassEj
__ZN4llvmL20normalizeSpillWeightEfjj
__ZN4llvm18LiveDebugVariables13splitRegisterEjNS_8ArrayRefIjEERNS_13LiveIntervalsE
__ZN12_GLOBAL__N_18RAGreedy7spillerEv
__ZN12_GLOBAL__N_113InlineSpiller5spillERN4llvm13LiveRangeEditE
__ZN4llvm12DenseMapBaseINS_8DenseMapIPNS_6VNInfoEN12_GLOBAL__N_113InlineSpiller12SibValueInfoENS_12DenseMapInfoIS3_EENS_6detail12DenseMapPairIS3_S6_EEEES3_S6_S8_SB_E4growEj
__ZN12_GLOBAL__N_113InlineSpiller21propagateSiblingValueEN4llvm16DenseMapIteratorIPNS1_6VNInfoENS0_12SibValueInfoENS1_12DenseMapInfoIS4_EENS1_6detail12DenseMapPairIS4_S5_EELb0EEES4_
__ZN4llvm13TinyPtrVectorIPNS_6VNInfoEE9push_backES2_
__ZN4llvm9SetVectorIPNS_6detail12DenseMapPairIPNS_6VNInfoEN12_GLOBAL__N_113InlineSpiller12SibValueInfoEEENS_11SmallVectorIS9_Lj8EEENS_8SmallSetIS9_Lj8ENSt3__14lessIS9_EEEEE6insertERKS9_
__ZN4llvm26MachineOperandIteratorBase14analyzeVirtRegEjPNS_15SmallVectorImplINSt3__14pairIPNS_12MachineInstrEjEEEE
__ZNK4llvm13LiveRangeEdit18allUsesAvailableAtEPKNS_12MachineInstrENS_9SlotIndexES4_
__ZN4llvm13LiveRangeEdit15rematerializeAtERNS_17MachineBasicBlockENS1_15bundle_iteratorINS_12MachineInstrENS_14ilist_iteratorIS4_EEEEjRKNS0_5RematERKNS_18TargetRegisterInfoEb
__ZThn176_N12_GLOBAL__N_18RAGreedy21LRE_WillShrinkVirtRegEj
__ZN12_GLOBAL__N_18RAGreedy21LRE_WillShrinkVirtRegEj
__ZN4llvm13LiveRangeEdit8Delegate24LRE_WillEraseInstructionEPNS_12MachineInstrE
__ZNSt3__112__hash_tableINS_17__hash_value_typeIiN4llvm12LiveIntervalEEENS_22__unordered_map_hasherIiS4_NS_4hashIiEELb1EEENS_21__unordered_map_equalIiS4_NS_8equal_toIiEELb1EEENS_9allocatorIS4_EEE8__rehashEm
__ZN4llvm9LiveRange12getNextValueENS_9SlotIndexERNS_20BumpPtrAllocatorImplINS_15MallocAllocatorELm4096ELm4096EEE
__ZThn176_N12_GLOBAL__N_18RAGreedy19LRE_CanEraseVirtRegEj
__ZN12_GLOBAL__N_18RAGreedy19LRE_CanEraseVirtRegEj
__ZN4llvm11SplitEditor11overlapIntvENS_9SlotIndexES1_
__ZN4llvm11SplitEditor14forceRecomputeEjPKNS_6VNInfoE
__ZNK4llvm16AArch64InstrInfo18isStoreToStackSlotEPKNS_12MachineInstrERi
__ZN12_GLOBAL__N_113InlineSpiller17foldMemoryOperandEN4llvm8ArrayRefINSt3__14pairIPNS1_12MachineInstrEjEEEES6_
__ZNK4llvm16AArch64InstrInfo21foldMemoryOperandImplERNS_15MachineFunctionEPNS_12MachineInstrENS_8ArrayRefIjEENS_17MachineBasicBlock15bundle_iteratorIS3_NS_14ilist_iteratorIS3_EEEEi
__ZN4llvm26MachineOperandIteratorBase14analyzePhysRegEjPKNS_18TargetRegisterInfoE
__ZN4llvm11SplitEditor14leaveIntvAfterENS_9SlotIndexE
__ZN4llvm11SplitEditor14enterIntvAtEndERNS_17MachineBasicBlockE
__ZN12_GLOBAL__N_18RAGreedy13releaseMemoryEv
__ZN12_GLOBAL__N_113InlineSpillerD0Ev
__ZN12_GLOBAL__N_113InlineSpillerD1Ev
__ZN4llvm13LiveRegMatrix13releaseMemoryEv
__ZN4llvm11IntervalMapINS_9SlotIndexEPNS_12LiveIntervalELj8ENS_15IntervalMapInfoIS1_EEE10visitNodesEMS6_FvNS_15IntervalMapImpl7NodeRefEjE
__ZN4llvm11IntervalMapINS_9SlotIndexEPNS_12LiveIntervalELj8ENS_15IntervalMapInfoIS1_EEE10deleteNodeENS_15IntervalMapImpl7NodeRefEj
__ZN4llvm14SpillPlacement13releaseMemoryEv
__ZN12_GLOBAL__N_115VirtRegRewriter20runOnMachineFunctionERN4llvm15MachineFunctionE
__ZN4llvm17MachineBasicBlock17sortUniqueLiveInsEv
__ZNSt3__16__sortIRZN4llvm17MachineBasicBlock17sortUniqueLiveInsEvE3$_2PNS2_16RegisterMaskPairEEEvT0_S7_T_
__ZNSt3__17__sort4IRZN4llvm17MachineBasicBlock17sortUniqueLiveInsEvE3$_2PNS2_16RegisterMaskPairEEEjT0_S7_S7_S7_T_
__ZN4llvm18LiveDebugVariables13releaseMemoryEv
__ZN4llvm13LiveIntervals13releaseMemoryEv
__ZN12_GLOBAL__N_117StackSlotColoring20runOnMachineFunctionERN4llvm15MachineFunctionE
__ZNSt3__16__sortIRZN12_GLOBAL__N_117StackSlotColoring15InitializeSlotsEvE3$_0PPNS_4pairIKiN4llvm12LiveIntervalEEEEEvT0_SC_T_
__ZNSt3__113__stable_sortIRN12_GLOBAL__N_114IntervalSorterENS_11__wrap_iterIPPN4llvm12LiveIntervalEEEEEvT0_SA_T_NS_15iterator_traitsISA_E15difference_typeEPNSD_10value_typeEl
__ZNK4llvm9LiveRange12overlapsFromERKS0_PKNS0_7SegmentE
__ZNK4llvm15TargetInstrInfo15isStackSlotCopyEPKNS_12MachineInstrERiS4_
__ZN4llvm10LiveStacks13releaseMemoryEv
__ZNSt3__16__treeINS_12__value_typeIiPKN4llvm19TargetRegisterClassEEENS_19__map_value_compareIiS6_NS_4lessIiEELb1EEENS_9allocatorIS6_EEE7destroyEPNS_11__tree_nodeIS6_PvEE
__ZN12_GLOBAL__N_130AArch64DeadRegisterDefinitions20runOnMachineFunctionERN4llvm15MachineFunctionE
__ZNK4llvm12MachineInstr22getNumExplicitOperandsEv
__ZN12_GLOBAL__N_125AArch64A57FPLoadBalancing20runOnMachineFunctionERN4llvm15MachineFunctionE
__ZN12_GLOBAL__N_110ShrinkWrap20runOnMachineFunctionERN4llvm15MachineFunctionE
__ZNK4llvm20AArch64FrameLowering20enableShrinkWrappingERKNS_15MachineFunctionE
__ZNK12_GLOBAL__N_110ShrinkWrap15useOrDefCSROrFIERKN4llvm12MachineInstrEPNS1_12RegScavengerE
__ZN12_GLOBAL__N_110ShrinkWrap23updateSaveRestorePointsERN4llvm17MachineBasicBlockEPNS1_12RegScavengerE
__ZN4llvm17DominatorTreeBaseINS_17MachineBasicBlockEE26findNearestCommonDominatorEPS1_S3_
__ZN12_GLOBAL__N_116BranchFolderPass20runOnMachineFunctionERN4llvm15MachineFunctionE
__ZN4llvm12BranchFolder16OptimizeFunctionERNS_15MachineFunctionEPKNS_15TargetInstrInfoEPKNS_18TargetRegisterInfoEPNS_17MachineModuleInfoE
__ZN4llvm17MachineBasicBlock20CorrectExtraCFGEdgesEPS0_S1_b
__ZNSt3__16vectorIN4llvm12BranchFolder18MergePotentialsEltENS_9allocatorIS3_EEE21__push_back_slow_pathIS3_EEvOT_
__ZN4llvm12BranchFolder18TryTailMergeBlocksEPNS_17MachineBasicBlockES2_
__ZN4llvm25array_pod_sort_comparatorINS_12BranchFolder18MergePotentialsEltEEEiPKvS4_
__ZL7FixTailPN4llvm17MachineBasicBlockES1_PKNS_15TargetInstrInfoE
__ZN4llvm17MachineBasicBlock15removeSuccessorENSt3__111__wrap_iterIPPS0_EEb
__ZL19addRegAndItsAliasesIN4llvm8SmallSetIjLj4ENSt3__14lessIjEEEEEvjPKNS0_18TargetRegisterInfoERT_
__ZNK4llvm15TargetInstrInfo12isPredicatedEPKNS_12MachineInstrE
__ZN12_GLOBAL__N_122MachineCopyPropagation20runOnMachineFunctionERN4llvm15MachineFunctionE
__ZN12_GLOBAL__N_122MachineCopyPropagation15ClobberRegisterEj
__ZN12_GLOBAL__N_122MachineCopyPropagation16eraseIfRedundantERN4llvm12MachineInstrEjj
__ZN4llvm8DenseMapIjNS_11SmallVectorIjLj4EEENS_12DenseMapInfoIjEENS_6detail12DenseMapPairIjS2_EEE4growEj
__ZN12_GLOBAL__N_119AArch64LoadStoreOpt20runOnMachineFunctionERN4llvm15MachineFunctionE
__ZN12_GLOBAL__N_119AArch64LoadStoreOpt18tryToMergeLdStInstERN4llvm17MachineBasicBlock15bundle_iteratorINS1_12MachineInstrENS1_14ilist_iteratorIS4_EEEE
__ZL16trackRegDefsUsesPKN4llvm12MachineInstrERNS_9BitVectorES4_PKNS_18TargetRegisterInfoE
__ZNK4llvm12MachineInstr14mayLoadOrStoreENS0_9QueryTypeE
__ZN12_GLOBAL__N_119AArch64LoadStoreOpt29findMatchingUpdateInsnForwardEN4llvm17MachineBasicBlock15bundle_iteratorINS1_12MachineInstrENS1_14ilist_iteratorIS4_EEEEi
__ZN12_GLOBAL__N_119AArch64LoadStoreOpt20isMatchingUpdateInsnEPN4llvm12MachineInstrES3_ji
__ZThn64_N12_GLOBAL__N_120PostMachineScheduler20runOnMachineFunctionERN4llvm15MachineFunctionE
__ZN12_GLOBAL__N_120PostMachineScheduler20runOnMachineFunctionERN4llvm15MachineFunctionE
__ZNK4llvm16AArch64Subtarget21enablePostRASchedulerEv
__ZN12_GLOBAL__N_121MachineBlockPlacement20runOnMachineFunctionERN4llvm15MachineFunctionE
__ZN4llvm12DenseMapBaseINS_8DenseMapIPNS_17MachineBasicBlockEPN12_GLOBAL__N_110BlockChainENS_12DenseMapInfoIS3_EENS_6detail12DenseMapPairIS3_S6_EEEES3_S6_S8_SB_E20InsertIntoBucketImplERKS3_PSB_
__ZN12_GLOBAL__N_121MachineBlockPlacement15buildLoopChainsERN4llvm15MachineFunctionERNS1_11MachineLoopE
__ZN12_GLOBAL__N_121MachineBlockPlacement10buildChainEPN4llvm17MachineBasicBlockERNS_10BlockChainERNS1_15SmallVectorImplIS3_EEPKNS1_11SmallPtrSetIS3_Lj16EEE
__ZN12_GLOBAL__N_121MachineBlockPlacement19markChainSuccessorsERNS_10BlockChainEPN4llvm17MachineBasicBlockERNS3_15SmallVectorImplIS5_EEPKNS3_11SmallPtrSetIS5_Lj16EEE
__ZNK4llvm18TargetLoweringBase20getPrefLoopAlignmentEPNS_11MachineLoopE
__ZN4llvm24SpecificBumpPtrAllocatorIN12_GLOBAL__N_110BlockChainEE10DestroyAllEv
__ZN12_GLOBAL__N_117AArch64CollectLOH20runOnMachineFunctionERN4llvm15MachineFunctionE
__ZL11reachingDefRKN4llvm15MachineFunctionEPNS_9MapVectorIPKNS_12MachineInstrENS_9SetVectorIS6_NSt3__16vectorIS6_NS8_9allocatorIS6_EEEENS_8DenseSetIS6_NS_12DenseMapInfoIS6_EEEEEENS_8DenseMapIS6_jSF_NS_6detail12DenseMapPairIS6_jEEEENS9_INS8_4pairIS6_SH_EENSA_ISO_EEEEEERKNSI_IjjNSE_IjEENSK_IjjEEEEbS6_
__ZN4llvm9MapVectorIPKNS_17MachineBasicBlockENSt3__110unique_ptrIA_PKNS_12MachineInstrENS4_14default_deleteIS9_EEEENS_8DenseMapIS3_jNS_12DenseMapInfoIS3_EENS_6detail12DenseMapPairIS3_jEEEENS4_6vectorINS4_4pairIS3_SC_EENS4_9allocatorISM_EEEEEixERKS3_
__ZN4llvm8DenseMapIPKNS_17MachineBasicBlockEjNS_12DenseMapInfoIS3_EENS_6detail12DenseMapPairIS3_jEEE4growEj
__ZN4llvm9MapVectorIPKNS_17MachineBasicBlockENS_9BitVectorENS_8DenseMapIS3_jNS_12DenseMapInfoIS3_EENS_6detail12DenseMapPairIS3_jEEEENSt3__16vectorINSC_4pairIS3_S4_EENSC_9allocatorISF_EEEEEixERKS3_
__ZL6getSetRN4llvm9MapVectorIPKNS_17MachineBasicBlockENSt3__110unique_ptrIA_NS_9SetVectorIPKNS_12MachineInstrENS4_6vectorIS9_NS4_9allocatorIS9_EEEENS_8DenseSetIS9_NS_12DenseMapInfoIS9_EEEEEENS4_14default_deleteISJ_EEEENS_8DenseMapIS3_jNSF_IS3_EENS_6detail12DenseMapPairIS3_jEEEENSA_INS4_4pairIS3_SM_EENSB_ISU_EEEEEERS2_jj
__ZN4llvm9SetVectorIPKNS_12MachineInstrENSt3__16vectorIS3_NS4_9allocatorIS3_EEEENS_8DenseSetIS3_NS_12DenseMapInfoIS3_EEEEE6insertERKS3_
__ZN4llvm12DenseMapBaseINS_8DenseMapIPKNS_12MachineInstrENS_6detail13DenseSetEmptyENS_12DenseMapInfoIS4_EENS5_12DenseSetPairIS4_EEEES4_S6_S8_SA_E20InsertIntoBucketImplERKS4_PSA_
__ZN4llvm8DenseMapIPKNS_12MachineInstrENS_6detail13DenseSetEmptyENS_12DenseMapInfoIS3_EENS4_12DenseSetPairIS3_EEE4growEj
__ZNSt3__16vectorIPKN4llvm12MachineInstrENS_9allocatorIS4_EEE21__push_back_slow_pathIRKS4_EEvOT_
__ZN4llvm9MapVectorIPKNS_12MachineInstrENS_9SetVectorIS3_NSt3__16vectorIS3_NS5_9allocatorIS3_EEEENS_8DenseSetIS3_NS_12DenseMapInfoIS3_EEEEEENS_8DenseMapIS3_jSC_NS_6detail12DenseMapPairIS3_jEEEENS6_INS5_4pairIS3_SE_EENS7_ISL_EEEEEixERKS3_
__ZN4llvm12DenseMapBaseINS_8DenseMapIPKNS_12MachineInstrEjNS_12DenseMapInfoIS4_EENS_6detail12DenseMapPairIS4_jEEEES4_jS6_S9_E20InsertIntoBucketImplERKS4_PS9_
__ZN4llvm8DenseMapIPKNS_12MachineInstrEjNS_12DenseMapInfoIS3_EENS_6detail12DenseMapPairIS3_jEEE4growEj
__ZNSt3__113__vector_baseINS_4pairIPKN4llvm17MachineBasicBlockENS_10unique_ptrIA_NS2_9SetVectorIPKNS2_12MachineInstrENS_6vectorISA_NS_9allocatorISA_EEEENS2_8DenseSetISA_NS2_12DenseMapInfoISA_EEEEEENS_14default_deleteISK_EEEEEENSC_ISO_EEED2Ev
__ZL17reachedUsesToDefsRN4llvm9MapVectorIPKNS_12MachineInstrENS_9SetVectorIS3_NSt3__16vectorIS3_NS5_9allocatorIS3_EEEENS_8DenseSetIS3_NS_12DenseMapInfoIS3_EEEEEENS_8DenseMapIS3_jSC_NS_6detail12DenseMapPairIS3_jEEEENS6_INS5_4pairIS3_SE_EENS7_ISL_EEEEEEPKSO_RKNSF_IjjNSB_IjEENSH_IjjEEEEb
__ZN4llvm19AArch64FunctionInfo15addLOHDirectiveENS_9MCLOHTypeERKNS_15SmallVectorImplIPKNS_12MachineInstrEEE
__ZN4llvm15SmallVectorImplIPKNS_12MachineInstrEEaSEOS4_
__ZN4llvm12DenseMapBaseINS_8DenseMapIPKNS_12MachineInstrEjNS_12DenseMapInfoIS4_EENS_6detail12DenseMapPairIS4_jEEEES4_jS6_S9_E18moveFromOldBucketsEPS9_SC_
__ZN12_GLOBAL__N_115MCMachOStreamer16EmitLOHDirectiveEN4llvm9MCLOHTypeERKNS1_15SmallVectorImplIPNS1_8MCSymbolEEE
__ZN4llvm15SmallVectorImplIPNS_8MCSymbolEEaSEOS3_
__ZN4llvm12SelectionDAG9getMemsetENS_7SDValueENS_5SDLocES1_S1_S1_jbbNS_18MachinePointerInfoE
__ZNK4llvm23AArch64SelectionDAGInfo23EmitTargetCodeForMemsetERNS_12SelectionDAGENS_5SDLocENS_7SDValueES4_S4_S4_jbNS_18MachinePointerInfoE
__ZNSt3__16vectorIN4llvm14TargetLowering12ArgListEntryENS_9allocatorIS3_EEE21__push_back_slow_pathIRKS3_EEvOT_
__ZN4llvm12SelectionDAG17getExternalSymbolEPKcNS_3EVTE
__ZN4llvm12SelectionDAG23getTargetExternalSymbolEPKcNS_3EVTEh
__ZN4llvm11SplitEditorD2Ev
__ZNK4llvm10AsmPrinter23GetExternalSymbolSymbolENS_9StringRefE
__ZN4llvm19SelectionDAGBuilder20FindMergedConditionsEPKNS_5ValueEPNS_17MachineBasicBlockES5_S5_S5_NS_11Instruction9BinaryOpsENS_17BranchProbabilityES8_
__ZN4llvm17BranchProbability22normalizeProbabilitiesIPS0_EEvT_S3_
__ZN4llvm19SelectionDAGBuilder28isExportableFromCurrentBlockEPKNS_5ValueEPKNS_10BasicBlockE
__ZL23ExtendUsesToFormExtLoadPN4llvm6SDNodeENS_7SDValueEjRNS_15SmallVectorImplIS1_EERKNS_14TargetLoweringE
__ZL18CheckForMaskedLoadN4llvm7SDValueES0_S0_
__ZN12_GLOBAL__N_111DAGCombiner11visitORLikeEN4llvm7SDValueES2_PNS1_6SDNodeE
__ZN12_GLOBAL__N_111DAGCombiner18MatchBSwapHWordLowEPN4llvm6SDNodeENS1_7SDValueES4_b
__ZL13getUsefulBitsN4llvm7SDValueERNS_5APIntEj
__ZN4llvm19MachineTraceMetrics11getEnsembleENS0_8StrategyE
__ZN4llvm19MachineTraceMetrics8Ensemble8getTraceEPKNS_17MachineBasicBlockE
__ZN4llvm19po_iterator_storageIN12_GLOBAL__N_110LoopBoundsELb1EE10insertEdgeEPKNS_17MachineBasicBlockES6_
__ZN12_GLOBAL__N_121MinInstrCountEnsemble13pickTracePredEPKN4llvm17MachineBasicBlockE
__ZN4llvm19MachineTraceMetrics12getResourcesEPKNS_17MachineBasicBlockE
__ZN12_GLOBAL__N_121MinInstrCountEnsemble13pickTraceSuccEPKN4llvm17MachineBasicBlockE
__ZL11getDataDepsPKN4llvm12MachineInstrERNS_15SmallVectorImplIN12_GLOBAL__N_17DataDepEEEPKNS_19MachineRegisterInfoE
__ZN4llvm12DenseMapBaseINS_8DenseMapIPKNS_12MachineInstrENS_19MachineTraceMetrics11InstrCyclesENS_12DenseMapInfoIS4_EENS_6detail12DenseMapPairIS4_S6_EEEES4_S6_S8_SB_E20InsertIntoBucketImplERKS4_PSB_
__ZN4llvm8DenseMapIPKNS_12MachineInstrENS_19MachineTraceMetrics11InstrCyclesENS_12DenseMapInfoIS3_EENS_6detail12DenseMapPairIS3_S5_EEE4growEj
__ZN4llvm9SparseSetIN12_GLOBAL__N_111LiveRegUnitENS_8identityIjEEhEixERKj
__ZL13pushDepHeightRKN12_GLOBAL__N_17DataDepEPKN4llvm12MachineInstrEjRNS3_8DenseMapIS6_jNS3_12DenseMapInfoIS6_EENS3_6detail12DenseMapPairIS6_jEEEERKNS3_16TargetSchedModelEPKNS3_15TargetInstrInfoE
__ZN4llvm19MachineTraceMetrics8Ensemble29computeCrossBlockCriticalPathERKNS0_14TraceBlockInfoE
__ZN12_GLOBAL__N_121MinInstrCountEnsembleD0Ev
__ZN4llvm19MachineTraceMetrics8EnsembleD2Ev
__ZNSt3__16vectorIN4llvm12BranchFolder11SameTailEltENS_9allocatorIS3_EEE21__push_back_slow_pathIS3_EEvOT_
__ZNK4llvm15TargetInstrInfo19isLegalToSplitMBBAtERNS_17MachineBasicBlockENS1_15bundle_iteratorINS_12MachineInstrENS_14ilist_iteratorIS4_EEEE
__ZN4llvm17MachineBasicBlock18transferSuccessorsEPS0_
__ZN4llvm12DenseMapBaseINS_8DenseMapIPKNS_17MachineBasicBlockENS_14BlockFrequencyENS_12DenseMapInfoIS4_EENS_6detail12DenseMapPairIS4_S5_EEEES4_S5_S7_SA_E20InsertIntoBucketImplERKS4_PSA_
__ZN4llvm8DenseMapIPKNS_17MachineBasicBlockENS_14BlockFrequencyENS_12DenseMapInfoIS3_EENS_6detail12DenseMapPairIS3_S4_EEE4growEj
__ZN4llvm12BranchFolder15MaintainLiveInsEPNS_17MachineBasicBlockES2_
__ZN4llvm12MachineInstr16mergeMemRefsWithERKS0_
__ZNK4llvm15TargetInstrInfo23ReplaceTailWithBranchToENS_17MachineBasicBlock15bundle_iteratorINS_12MachineInstrENS_14ilist_iteratorIS3_EEEEPS1_
__ZN4llvm9SetVectorIPNS_17MachineBasicBlockENS_11SmallVectorIS2_Lj8EEENS_8SmallSetIS2_Lj8ENSt3__14lessIS2_EEEEE6insertINS6_11__wrap_iterIPS2_EEEEvT_SF_
__ZNK4llvm18TargetLoweringBase14getVectorIdxTyERKNS_10DataLayoutE
__ZN4llvm12SelectionDAG16getVectorShuffleENS_3EVTENS_5SDLocENS_7SDValueES3_PKi
__ZN12_GLOBAL__N_111DAGCombiner19visitVECTOR_SHUFFLEEPN4llvm6SDNodeE
__ZL33simplifyShuffleOperandRecursivelyRN4llvm14SmallBitVectorENS_7SDValueERNS_12SelectionDAGE
__ZN12_GLOBAL__N_115VectorLegalizer10LegalizeOpEN4llvm7SDValueE
__ZN4llvm12DenseMapBaseINS_13SmallDenseMapINS_7SDValueES2_Lj64ENS_12DenseMapInfoIS2_EENS_6detail12DenseMapPairIS2_S2_EEEES2_S2_S4_S7_E20InsertIntoBucketImplERKS2_PS7_
__ZNK4llvm21AArch64TargetLowering17LowerBUILD_VECTORENS_7SDValueERNS_12SelectionDAGE
__ZL18resolveBuildVectorPN4llvm17BuildVectorSDNodeERNS_5APIntES3_
__ZNK4llvm17BuildVectorSDNode15isConstantSplatERNS_5APIntES2_RjRbjb
__ZL21performPostLD1CombinePN4llvm6SDNodeERNS_14TargetLowering15DAGCombinerInfoEb
__ZNK12_GLOBAL__N_119AArch64DAGToDAGISel21CheckPatternPredicateEj
__ZNSt3__16__sortIRZN4llvm19SelectionDAGBuilder13lowerWorkItemENS2_18SwitchWorkListItemEPNS1_5ValueEPNS1_17MachineBasicBlockES7_E3$_2PNS2_11CaseClusterEEEvT0_SC_T_
__ZNSt3__16__sortIRZN4llvm19SelectionDAGBuilder13buildBitTestsERNS_6vectorINS2_11CaseClusterENS_9allocatorIS4_EEEEjjPKNS1_10SwitchInstERS4_E3$_1PNS2_8CaseBitsEEEvT0_SH_T_
__ZN4llvm15SmallVectorImplINS_19SelectionDAGBuilder11BitTestCaseEEaSEOS3_
__ZN4llvm19SelectionDAGBuilder18visitBitTestHeaderERNS0_12BitTestBlockEPNS_17MachineBasicBlockE
__ZN4llvm19SelectionDAGBuilder16visitBitTestCaseERNS0_12BitTestBlockEPNS_17MachineBasicBlockENS_17BranchProbabilityEjRNS0_11BitTestCaseES4_
__ZN12_GLOBAL__N_111DAGCombiner9useDivRemEPN4llvm6SDNodeE
__ZN4llvm12SelectionDAG15getIndexedStoreENS_7SDValueENS_5SDLocES1_S1_NS_3ISD14MemIndexedModeE
__ZN4llvm31returnTypeIsEligibleForTailCallEPKNS_8FunctionEPKNS_11InstructionEPKNS_10ReturnInstERKNS_18TargetLoweringBaseE
__ZN4llvm7CCState17resultsCompatibleEjjRNS_15MachineFunctionERNS_11LLVMContextERKNS_15SmallVectorImplINS_3ISD8InputArgEEEPFbjNS_3MVTESB_NS_11CCValAssign7LocInfoENS6_10ArgFlagsTyERS0_ESH_
__ZL10getPHIDepsPKN4llvm12MachineInstrERNS_15SmallVectorImplIN12_GLOBAL__N_17DataDepEEEPKNS_17MachineBasicBlockEPKNS_19MachineRegisterInfoE
__ZN4llvm19MachineTraceMetrics10invalidateEPKNS_17MachineBasicBlockE
__ZN4llvm17MachineBasicBlock31transferSuccessorsAndUpdatePHIsEPS0_
__ZN4llvm7BuildMIERNS_17MachineBasicBlockEPNS_12MachineInstrENS_8DebugLocERKNS_11MCInstrDescE
__ZN4llvm17DominatorTreeBaseINS_17MachineBasicBlockEE9eraseNodeEPS1_
__ZN4llvm12LoopInfoBaseINS_17MachineBasicBlockENS_11MachineLoopEE11removeBlockEPS1_
__ZL24convertFlagSettingOpcodePKN4llvm12MachineInstrE
__ZNK4llvm15TargetInstrInfo21hasHighOperandLatencyERKNS_16TargetSchedModelEPKNS_19MachineRegisterInfoEPKNS_12MachineInstrEjS9_j
__ZNK4llvm12DenseMapBaseINS_8DenseMapINSt3__14pairIPNS_17MachineBasicBlockES5_EENS_6detail13DenseSetEmptyENS_12DenseMapInfoIS6_EENS7_12DenseSetPairIS6_EEEES6_S8_SA_SC_E15LookupBucketForIS6_EEbRKT_RPKSC_
__ZN4llvm8DenseMapINSt3__14pairIPNS_17MachineBasicBlockES4_EENS_6detail13DenseSetEmptyENS_12DenseMapInfoIS5_EENS6_12DenseSetPairIS5_EEE4growEj
__ZN4llvm8LoopBaseINS_17MachineBasicBlockENS_11MachineLoopEE19addBasicBlockToLoopEPS1_RNS_12LoopInfoBaseIS1_S2_EE
__ZL21UpdateOperandRegClassPN4llvm12MachineInstrE
__ZNK4llvm12MachineInstr21getRegClassConstraintEjPKNS_15TargetInstrInfoEPKNS_18TargetRegisterInfoE
__ZL15isPlainlyKilledPN4llvm12MachineInstrEjPNS_13LiveIntervalsE
__ZNK4llvm15TargetInstrInfo21findCommutedOpIndicesEPNS_12MachineInstrERjS3_
__ZN4llvm15SmallVectorImplINS_9LiveRange7SegmentEE6insertEPS2_OS2_
__ZNK4llvm18TargetRegisterInfo22getCommonSuperRegClassEPKNS_19TargetRegisterClassEjS3_jRjS4_
__ZNK4llvm16TargetSchedModel20computeOutputLatencyEPKNS_12MachineInstrEjS3_
__ZN4llvm9MapVectorINS_12PointerUnionIPKNS_5ValueEPKNS_17PseudoSourceValueEEENSt3__14listIPNS_5SUnitENS9_9allocatorISC_EEEENS_8DenseMapIS8_jNS_12DenseMapInfoIS8_EENS_6detail12DenseMapPairIS8_jEEEENS9_6vectorINS9_4pairIS8_SF_EENSD_ISP_EEEEE5clearEv
__ZN4llvm5SUnit14addPredBarrierEPS0_
__ZN4llvm11SplitEditor14enterIntvAfterENS_9SlotIndexE
__ZN12_GLOBAL__N_113InlineSpiller24eliminateRedundantSpillsERN4llvm12LiveIntervalEPNS1_6VNInfoE
__ZN12_GLOBAL__N_18RAGreedy7enqueueEPN4llvm12LiveIntervalE
__ZN12_GLOBAL__N_119AArch64LoadStoreOpt15mergeUpdateInsnEN4llvm17MachineBasicBlock15bundle_iteratorINS1_12MachineInstrENS1_14ilist_iteratorIS4_EEEES7_b
__ZN4llvm12SelectionDAG18UpdateNodeOperandsEPNS_6SDNodeENS_7SDValueES3_S3_S3_S3_
__ZL17getTestBitOperandN4llvm7SDValueERjRbRNS_12SelectionDAGE
__ZN12_GLOBAL__N_111DAGCombiner32SimplifyBinOpWithSameOpcodeHandsEPN4llvm6SDNodeE
__ZN4llvm8DenseMapIPNS_5ValueENS_11SmallVectorIPNS_11InstructionELj16EEENS_12DenseMapInfoIS2_EENS_6detail12DenseMapPairIS2_S6_EEE4growEj
__ZN4llvm12SelectionDAG14getMachineNodeEjNS_5SDLocENS_3EVTENS_7SDValueES3_S3_
__ZN4llvm12SelectionDAG9getMemcpyENS_7SDValueENS_5SDLocES1_S1_S1_jbbbNS_18MachinePointerInfoES3_
__ZNK4llvm22TargetSelectionDAGInfo23EmitTargetCodeForMemcpyERNS_12SelectionDAGENS_5SDLocENS_7SDValueES4_S4_S4_jbbNS_18MachinePointerInfoES5_
__ZL19isBSwapHWordElementN4llvm7SDValueENS_15MutableArrayRefIPNS_6SDNodeEEE
__ZL24FindOptimalMemOpLoweringRNSt3__16vectorIN4llvm3EVTENS_9allocatorIS2_EEEEjyjjbbbbRNS1_12SelectionDAGERKNS1_14TargetLoweringE
__ZNK4llvm21AArch64TargetLowering19getOptimalMemOpTypeEyjjbbbRNS_15MachineFunctionE
__ZL14getMemsetValueN4llvm7SDValueENS_3EVTERNS_12SelectionDAGENS_5SDLocE
__ZN4llvm5APInt8getSplatEjRKS0_
__ZL20getMemBasePlusOffsetN4llvm7SDValueEjNS_5SDLocERNS_12SelectionDAGE
__ZL31ShrinkLoadReplaceStoreWithStoreRKNSt3__14pairIjjEEN4llvm7SDValueEPNS4_11StoreSDNodeEPN12_GLOBAL__N_111DAGCombinerE
__ZN4llvm12DenseMapBaseINS_8DenseMapIPNS_17MachineBasicBlockENS_17DominatorTreeBaseIS2_E7InfoRecENS_12DenseMapInfoIS3_EENS_6detail12DenseMapPairIS3_S6_EEEES3_S6_S8_SB_E18moveFromOldBucketsEPSB_SE_
__ZN4llvm12DenseMapBaseINS_8DenseMapIPNS_17MachineBasicBlockES3_NS_12DenseMapInfoIS3_EENS_6detail12DenseMapPairIS3_S3_EEEES3_S3_S5_S8_E18moveFromOldBucketsEPS8_SB_
__ZN4llvm12DenseMapBaseINS_8DenseMapIPNS_17MachineBasicBlockENSt3__110unique_ptrINS_15DomTreeNodeBaseIS2_EENS4_14default_deleteIS7_EEEENS_12DenseMapInfoIS3_EENS_6detail12DenseMapPairIS3_SA_EEEES3_SA_SC_SF_E18moveFromOldBucketsEPSF_SI_
__ZN4llvm12DenseMapBaseINS_8DenseMapIPKNS_17MachineBasicBlockEiNS_12DenseMapInfoIS4_EENS_6detail12DenseMapPairIS4_iEEEES4_iS6_S9_E18moveFromOldBucketsEPS9_SC_
__ZNSt3__113__stable_sortIRZN12_GLOBAL__N_113StackColoring20runOnMachineFunctionERN4llvm15MachineFunctionEE3$_0PiEEvT0_S9_T_NS_15iterator_traitsIS9_E15difference_typeEPNSC_10value_typeEl
__ZN4llvm12DenseMapBaseINS_8DenseMapIiiNS_12DenseMapInfoIiEENS_6detail12DenseMapPairIiiEEEEiiS3_S6_E20InsertIntoBucketImplERKiPS6_
__ZN4llvm8DenseMapIiiNS_12DenseMapInfoIiEENS_6detail12DenseMapPairIiiEEE4growEj
__ZN4llvm12DenseMapBaseINS_8DenseMapIPKNS_10AllocaInstES4_NS_12DenseMapInfoIS4_EENS_6detail12DenseMapPairIS4_S4_EEEES4_S4_S6_S9_E20InsertIntoBucketImplERKS4_PS9_
__ZN4llvm8DenseMapIPKNS_10AllocaInstES3_NS_12DenseMapInfoIS3_EENS_6detail12DenseMapPairIS3_S3_EEE4growEj
__ZN4llvm12MachineInstr41eraseFromParentAndMarkDBGValuesForRemovalEv
__ZNK4llvm19MachineRegisterInfo27markUsesInDebugValueAsUndefEj
__ZN4llvm20MachineDominatorTree24changeImmediateDominatorEPNS_15DomTreeNodeBaseINS_17MachineBasicBlockEEES4_
__ZN4llvm12DenseMapBaseINS_8DenseMapIPNS_15DomTreeNodeBaseINS_17MachineBasicBlockEEEjNS_12DenseMapInfoIS5_EENS_6detail12DenseMapPairIS5_jEEEES5_jS7_SA_E18moveFromOldBucketsEPSA_SD_
__ZN4llvm13LiveVariables27removeVirtualRegisterKilledEjPNS_12MachineInstrE
__ZNK4llvm15TargetInstrInfo15getInstrLatencyEPKNS_18InstrItineraryDataEPKNS_12MachineInstrEPj
__ZNK4llvm16AArch64InstrInfo18shouldClusterLoadsEPNS_12MachineInstrES2_j
__ZN4llvm26ScheduleDAGTopologicalSort3DFSEPKNS_5SUnitEiRb
__ZN4llvm26ScheduleDAGTopologicalSort7AddPredEPNS_5SUnitES2_
__ZNSt3__17__sort4IRNS_6__lessIN12_GLOBAL__N_119LoadClusterMutation8LoadInfoES4_EEPS4_EEjT0_S8_S8_S8_T_
__ZNK4llvm17PseudoSourceValue9isAliasedEPKNS_16MachineFrameInfoE
__ZNK4llvm17PseudoSourceValue8mayAliasEPKNS_16MachineFrameInfoE
__ZN4llvm11IntervalMapINS_9SlotIndexEPNS_12LiveIntervalELj8ENS_15IntervalMapInfoIS1_EEE8iterator9treeEraseEb
__ZN4llvm11IntervalMapINS_9SlotIndexEPNS_12LiveIntervalELj8ENS_15IntervalMapInfoIS1_EEE8iterator9eraseNodeEj
__ZN4llvm15IntervalMapImpl8NodeBaseINS0_7NodeRefENS_9SlotIndexELj12EE17adjustFromLeftSibEjRS4_ji
__ZN4llvm11IntervalMapINS_9SlotIndexEjLj9ENS_15IntervalMapInfoIS1_EEE14const_iterator4findES1_
__ZN4llvm11IntervalMapINS_9SlotIndexEjLj9ENS_15IntervalMapInfoIS1_EEE8iterator10treeInsertES1_S1_j
__ZN4llvm11IntervalMapINS_9SlotIndexEjLj9ENS_15IntervalMapInfoIS1_EEE14const_iterator12pathFillFindES1_
__ZN4llvm15IntervalMapImpl18adjustSiblingSizesINS0_8LeafNodeINS_9SlotIndexEjLj9ENS_15IntervalMapInfoIS3_EEEEEEvPPT_jPjPKj
__ZN4llvm15IntervalMapImpl8NodeBaseINSt3__14pairINS_9SlotIndexES4_EEjLj9EE17adjustFromLeftSibEjRS6_ji
__ZN4llvm11IntervalMapINS_9SlotIndexEjLj9ENS_15IntervalMapInfoIS1_EEE8iterator10insertNodeEjNS_15IntervalMapImpl7NodeRefES1_
__ZN4llvm11IntervalMapINS_9SlotIndexEjLj9ENS_15IntervalMapInfoIS1_EEE8iterator9treeEraseEb
__ZN4llvm11IntervalMapINS_9SlotIndexEjLj9ENS_15IntervalMapInfoIS1_EEE10visitNodesEMS4_FvNS_15IntervalMapImpl7NodeRefEjE
__ZN4llvm11IntervalMapINS_9SlotIndexEjLj9ENS_15IntervalMapInfoIS1_EEE10deleteNodeENS_15IntervalMapImpl7NodeRefEj
__ZN4llvm11SplitEditor16splitSingleBlockERKNS_13SplitAnalysis9BlockInfoE
__ZN12_GLOBAL__N_113InlineSpiller13markValueUsedEPN4llvm12LiveIntervalEPNS1_6VNInfoE
__ZN4llvm15IntervalMapImpl18adjustSiblingSizesINS0_10BranchNodeINS_9SlotIndexEjLj12ENS_15IntervalMapInfoIS3_EEEEEEvPPT_jPjPKj
__ZN4llvm15SmallVectorImplINS_15IntervalMapImpl7NodeRefEE4swapERS3_
__ZThn32_N12_GLOBAL__N_18RAGreedy21aboutToRemoveIntervalERN4llvm12LiveIntervalE
__ZThn176_N12_GLOBAL__N_18RAGreedy19LRE_DidCloneVirtRegEjj
__ZN12_GLOBAL__N_18RAGreedy19LRE_DidCloneVirtRegEjj
__ZNK4llvm27FixedStackPseudoSourceValue10isConstantEPKNS_16MachineFrameInfoE
__ZN12_GLOBAL__N_18RAGreedy21aboutToRemoveIntervalERN4llvm12LiveIntervalE
__ZN12_GLOBAL__N_18RAGreedy15collectHintInfoEjRN4llvm11SmallVectorINS0_8HintInfoELj4EEE
__ZN4llvm12MachineInstr18clearRegisterKillsEjPKNS_18TargetRegisterInfoE
__ZN12_GLOBAL__N_117TailDuplicatePass20DuplicateInstructionEPN4llvm12MachineInstrEPNS1_17MachineBasicBlockES5_RNS1_15MachineFunctionERNS1_8DenseMapIjjNS1_12DenseMapInfoIjEENS1_6detail12DenseMapPairIjjEEEERKNS1_8DenseSetIjSA_EE
__ZNK4llvm15TargetInstrInfo9duplicateEPNS_12MachineInstrERNS_15MachineFunctionE
__ZL8mayAliasPN4llvm12MachineInstrERNS_15SmallVectorImplIS1_EEPKNS_16AArch64InstrInfoE
__ZN4llvm12DenseMapBaseINS_8DenseMapIPKNS_17MachineBasicBlockEjNS_12DenseMapInfoIS4_EENS_6detail12DenseMapPairIS4_jEEEES4_jS6_S9_E18moveFromOldBucketsEPS9_SC_
__ZN4llvm8DenseMapIPNS_17MachineBasicBlockES2_NS_12DenseMapInfoIS2_EENS_6detail12DenseMapPairIS2_S2_EEE16shrink_and_clearEv
__ZN4llvm8DenseMapIPNS_17MachineBasicBlockENS_17DominatorTreeBaseIS1_E7InfoRecENS_12DenseMapInfoIS2_EENS_6detail12DenseMapPairIS2_S5_EEE16shrink_and_clearEv
__ZN4llvm8DenseMapIPNS_17MachineBasicBlockENSt3__110unique_ptrINS_15DomTreeNodeBaseIS1_EENS3_14default_deleteIS6_EEEENS_12DenseMapInfoIS2_EENS_6detail12DenseMapPairIS2_S9_EEE16shrink_and_clearEv
__ZNSt3__17__sort4IRN4llvm14Idx2MBBCompareEPNS_4pairINS1_9SlotIndexEPNS1_17MachineBasicBlockEEEEEjT0_SA_SA_SA_T_
__ZN12_GLOBAL__N_111DAGCombiner17MatchRotatePosNegEN4llvm7SDValueES2_S2_S2_S2_jjNS1_5SDLocE
__ZL24ValueHasExactlyOneBitSetN4llvm7SDValueERKNS_12SelectionDAGE
__ZL13firstRealTypePN4llvm4TypeERNS_15SmallVectorImplIPNS_13CompositeTypeEEERNS2_IjEE
__ZL12getNoopInputPKN4llvm5ValueERNS_15SmallVectorImplIjEERjRKNS_18TargetLoweringBaseERKNS_10DataLayoutE
__ZL33emitConjunctionDisjunctionTreeRecRN4llvm12SelectionDAGENS_7SDValueERNS_9AArch64CC8CondCodeEbS2_S4_
__ZL25emitConditionalComparisonN4llvm7SDValueES0_NS_3ISD8CondCodeES0_NS_9AArch64CC8CondCodeES4_NS_5SDLocERNS_12SelectionDAGE
__ZNK4llvm17PseudoSourceValue10isConstantEPKNS_16MachineFrameInfoE
__ZNK4llvm19MachineTraceMetrics14verifyAnalysisEv
__ZNK4llvm16AArch64InstrInfo26genAlternativeCodeSequenceERNS_12MachineInstrENS_22MachineCombinerPatternERNS_15SmallVectorImplIPS1_EES7_RNS_8DenseMapIjjNS_12DenseMapInfoIjEENS_6detail12DenseMapPairIjjEEEE
__ZL7genMaddRN4llvm15MachineFunctionERNS_19MachineRegisterInfoEPKNS_15TargetInstrInfoERNS_12MachineInstrERNS_15SmallVectorImplIPS7_EEjjPKNS_19TargetRegisterClassE
__ZNK4llvm19MachineTraceMetrics5Trace17getResourceLengthENS_8ArrayRefIPKNS_17MachineBasicBlockEEENS2_IPKNS_16MCSchedClassDescEEESA_
__ZNK4llvm19MachineTraceMetrics5Trace11getPHIDepthEPKNS_12MachineInstrE
__ZNK4llvm16AArch64InstrInfo12insertSelectERNS_17MachineBasicBlockENS1_15bundle_iteratorINS_12MachineInstrENS_14ilist_iteratorIS4_EEEENS_8DebugLocEjNS_8ArrayRefINS_14MachineOperandEEEjj
__ZL19increaseSetPressureRNSt3__16vectorIjNS_9allocatorIjEEEERKN4llvm19MachineRegisterInfoEjjj
__ZN4llvm13SmallDenseMapINS_7SDValueES1_Lj8ENS_12DenseMapInfoIS1_EENS_6detail12DenseMapPairIS1_S1_EEE4growEj
__ZL21advanceToNextLeafTypeRN4llvm15SmallVectorImplIPNS_13CompositeTypeEEERNS0_IjEE
__ZNK4llvm20AArch64FrameLowering16canUseAsPrologueERKNS_17MachineBasicBlockE
__ZNK4llvm19TargetFrameLowering16canUseAsEpilogueERKNS_17MachineBasicBlockE
__ZN4llvm12SelectionDAG17getBoolExtOrTruncENS_7SDValueENS_5SDLocENS_3EVTES3_
__ZNK4llvm5APInt9getLoBitsEj
__ZN4llvm3ISD21isBuildVectorAllZerosEPKNS_6SDNodeE
__ZN4llvm3ISD20isBuildVectorAllOnesEPKNS_6SDNodeE
__ZN12_GLOBAL__N_111DAGCombiner14SimplifyVBinOpEPN4llvm6SDNodeE
__ZL12getVShiftImmN4llvm7SDValueEjRx.4581
